TMS320C2000 Assembler PC v18.1.2 Sun Jun 17 14:52:02 2018

Tools Copyright (c) 1996-2017 Texas Instruments Incorporated
C:\Users\haowp\AppData\Local\Temp\{90C17AA4-2C03-4A74-A215-B08F3B065D28} PAGE    1

       1              ;***************************************************************
       2              ;* TMS320C2000 C/C++ Codegen                    PC v18.1.2.LTS *
       3              ;* Date/Time created: Sun Jun 17 14:52:02 2018                 *
       4              ;***************************************************************
       5                      .compiler_opts --abi=coffabi --float_support=softlib --hll_source=on --mem_model:code=flat --mem_mode
       6                      .asg    XAR2, FP
       7              
       8              $C$DW$CU        .dwtag  DW_TAG_compile_unit
       9                      .dwattr $C$DW$CU, DW_AT_name("D:/ti/motorware/motorware_1_01_00_18/sw/drivers/adc/src/32b/f28x/f2802x
      10                      .dwattr $C$DW$CU, DW_AT_producer("TI TMS320C2000 C/C++ Codegen PC v18.1.2.LTS Copyright (c) 1996-2017
      11                      .dwattr $C$DW$CU, DW_AT_TI_version(0x01)
      12                      .dwattr $C$DW$CU, DW_AT_comp_dir("D:\ti\motorware\motorware_1_01_00_18\sw\solutions\instaspin_foc\boa
      13              ;       D:\ti\ccsv8\tools\compiler\ti-cgt-c2000_18.1.2.LTS\bin\opt2000.exe C:\\Users\\haowp\\AppData\\Local\\
      14              ;       D:\ti\ccsv8\tools\compiler\ti-cgt-c2000_18.1.2.LTS\bin\ac2000.exe -@C:\\Users\\haowp\\AppData\\Local\
      15 00000000               .sect   ".text"
      16                      .clink
      17                      .global _ADC_setupSocTrigSrc
      18              
      19              $C$DW$1 .dwtag  DW_TAG_subprogram
      20                      .dwattr $C$DW$1, DW_AT_name("ADC_setupSocTrigSrc")
      21                      .dwattr $C$DW$1, DW_AT_low_pc(_ADC_setupSocTrigSrc)
      22                      .dwattr $C$DW$1, DW_AT_high_pc(0x00)
      23                      .dwattr $C$DW$1, DW_AT_TI_symbol_name("_ADC_setupSocTrigSrc")
      24                      .dwattr $C$DW$1, DW_AT_external
      25                      .dwattr $C$DW$1, DW_AT_TI_begin_file("D:/ti/motorware/motorware_1_01_00_18/sw/drivers/adc/src/32b/f28
      26                      .dwattr $C$DW$1, DW_AT_TI_begin_line(0x236)
      27                      .dwattr $C$DW$1, DW_AT_TI_begin_column(0x06)
      28                      .dwattr $C$DW$1, DW_AT_TI_max_frame_size(-2)
      29                      .dwpsn  file "D:/ti/motorware/motorware_1_01_00_18/sw/drivers/adc/src/32b/f28x/f2802x/adc.c",line 567
      30              
      31                      .dwfde $C$DW$CIE, _ADC_setupSocTrigSrc
      32              $C$DW$2 .dwtag  DW_TAG_formal_parameter
      33                      .dwattr $C$DW$2, DW_AT_name("adcHandle")
      34                      .dwattr $C$DW$2, DW_AT_TI_symbol_name("_adcHandle")
      35                      .dwattr $C$DW$2, DW_AT_type(*$C$DW$T$71)
      36                      .dwattr $C$DW$2, DW_AT_location[DW_OP_reg12]
      37              
      38              $C$DW$3 .dwtag  DW_TAG_formal_parameter
      39                      .dwattr $C$DW$3, DW_AT_name("socNumber")
      40                      .dwattr $C$DW$3, DW_AT_TI_symbol_name("_socNumber")
      41                      .dwattr $C$DW$3, DW_AT_type(*$C$DW$T$47)
      42                      .dwattr $C$DW$3, DW_AT_location[DW_OP_reg0]
      43              
      44              $C$DW$4 .dwtag  DW_TAG_formal_parameter
      45                      .dwattr $C$DW$4, DW_AT_name("intTrigSrc")
      46                      .dwattr $C$DW$4, DW_AT_TI_symbol_name("_intTrigSrc")
      47                      .dwattr $C$DW$4, DW_AT_type(*$C$DW$T$75)
      48                      .dwattr $C$DW$4, DW_AT_location[DW_OP_reg1]
      49              
      50              
      51              ;***************************************************************
      52              ;* FNAME: _ADC_setupSocTrigSrc          FR SIZE:   0           *
      53              ;*                                                             *
      54              ;* FUNCTION ENVIRONMENT                                        *
      55              ;*                                                             *
TMS320C2000 Assembler PC v18.1.2 Sun Jun 17 14:52:02 2018

Tools Copyright (c) 1996-2017 Texas Instruments Incorporated
C:\Users\haowp\AppData\Local\Temp\{90C17AA4-2C03-4A74-A215-B08F3B065D28} PAGE    2

      56              ;* FUNCTION PROPERTIES                                         *
      57              ;*                            0 Parameter,  0 Auto,  0 SOE     *
      58              ;***************************************************************
      59              
      60              _ADC_setupSocTrigSrc:
      61              ;* T     assigned to $O$C1
      62              ;* AR4   assigned to _adcHandle
      63              $C$DW$5 .dwtag  DW_TAG_variable
      64                      .dwattr $C$DW$5, DW_AT_name("adcHandle")
      65                      .dwattr $C$DW$5, DW_AT_TI_symbol_name("_adcHandle")
      66                      .dwattr $C$DW$5, DW_AT_type(*$C$DW$T$78)
      67                      .dwattr $C$DW$5, DW_AT_location[DW_OP_reg12]
      68              
      69              ;* AR6   assigned to _socNumber
      70              $C$DW$6 .dwtag  DW_TAG_variable
      71                      .dwattr $C$DW$6, DW_AT_name("socNumber")
      72                      .dwattr $C$DW$6, DW_AT_TI_symbol_name("_socNumber")
      73                      .dwattr $C$DW$6, DW_AT_type(*$C$DW$T$48)
      74                      .dwattr $C$DW$6, DW_AT_location[DW_OP_reg16]
      75              
      76              ;* AR7   assigned to _intTrigSrc
      77              $C$DW$7 .dwtag  DW_TAG_variable
      78                      .dwattr $C$DW$7, DW_AT_name("intTrigSrc")
      79                      .dwattr $C$DW$7, DW_AT_TI_symbol_name("_intTrigSrc")
      80                      .dwattr $C$DW$7, DW_AT_type(*$C$DW$T$76)
      81                      .dwattr $C$DW$7, DW_AT_location[DW_OP_reg18]
      82              
      83              ;* T     assigned to _lShift_socsel1
      84              $C$DW$8 .dwtag  DW_TAG_variable
      85                      .dwattr $C$DW$8, DW_AT_name("lShift_socsel1")
      86                      .dwattr $C$DW$8, DW_AT_TI_symbol_name("_lShift_socsel1")
      87                      .dwattr $C$DW$8, DW_AT_type(*$C$DW$T$19)
      88                      .dwattr $C$DW$8, DW_AT_location[DW_OP_reg22]
      89              
      90                      .dwcfi  cfa_offset, -2
      91                      .dwcfi  save_reg_to_mem, 26, 0
      92 00000000 88A9          MOVZ      AR6,AL                ; [CPU_ALU] |567| 
      93 00000001 80A8          MOVZ      AR7,AH                ; [CPU_ALU] |567| 
      94                      .dwpsn  file "D:/ti/motorware/motorware_1_01_00_18/sw/drivers/adc/src/32b/f28x/f2802x/adc.c",line 571
      95 00000002 5603          MOV       ACC,AR6 << #1         ; [CPU_ALU] |571| 
         00000003 01A6 
      96 00000004 2DA9          MOV       T,AL                  ; [CPU_ALU] |571| 
      97 00000005 7622   EALLOW
      98 00000006 92A6          MOV       AL,AR6                ; [CPU_ALU] 
      99                      .dwpsn  file "D:/ti/motorware/motorware_1_01_00_18/sw/drivers/adc/src/32b/f28x/f2802x/adc.c",line 577
     100 00000007 5208          CMPB      AL,#8                 ; [CPU_ALU] |577| 
     101 00000008 6811          B         $C$L1,LO              ; [CPU_ALU] |577| 
     102                      ; branchcc occurs ; [] |577| 
     103                      .dwpsn  file "D:/ti/motorware/motorware_1_01_00_18/sw/drivers/adc/src/32b/f28x/f2802x/adc.c",line 594
     104 00000009 9CF8          ADDB      AL,#-8                ; [CPU_ALU] |594| 
     105 0000000a 5603          MOV       ACC,AL << #1          ; [CPU_ALU] |594| 
         0000000b 01A9 
     106 0000000c 2DA9          MOV       T,AL                  ; [CPU_ALU] |594| 
     107 0000000d A8A9          MOVL      ACC,XAR4              ; [CPU_ALU] |594| 
     108 0000000e FF10          ADD       ACC,#26133 << 0       ; [CPU_ALU] |594| 
TMS320C2000 Assembler PC v18.1.2 Sun Jun 17 14:52:02 2018

Tools Copyright (c) 1996-2017 Texas Instruments Incorporated
C:\Users\haowp\AppData\Local\Temp\{90C17AA4-2C03-4A74-A215-B08F3B065D28} PAGE    3

         0000000f 6615 
     109 00000010 83A9          MOVL      XAR5,ACC              ; [CPU_ALU] |594| 
     110 00000011 9A03          MOVB      AL,#3                 ; [CPU_ALU] |594| 
     111 00000012 FF66          LSL       AL,T                  ; [CPU_ALU] |594| 
     112 00000013 FF5E          NOT       AL                    ; [CPU_ALU] |594| 
     113 00000014 C0C5          AND       *+XAR5[0],AL          ; [CPU_ALU] |594| 
     114                      .dwpsn  file "D:/ti/motorware/motorware_1_01_00_18/sw/drivers/adc/src/32b/f28x/f2802x/adc.c",line 597
     115 00000015 A8A9          MOVL      ACC,XAR4              ; [CPU_ALU] |597| 
     116 00000016 FF10          ADD       ACC,#26133 << 0       ; [CPU_ALU] |597| 
         00000017 6615 
     117 00000018 6F0C          B         $C$L2,UNC             ; [CPU_ALU] |597| 
     118                      ; branch occurs ; [] |597| 
     119 00000019       $C$L1:    
     120                      .dwpsn  file "D:/ti/motorware/motorware_1_01_00_18/sw/drivers/adc/src/32b/f28x/f2802x/adc.c",line 583
     121 00000019 A8A9          MOVL      ACC,XAR4              ; [CPU_ALU] |583| 
     122 0000001a FF12          ADD       ACC,#6533 << 2        ; [CPU_ALU] |583| 
         0000001b 1985 
     123 0000001c 83A9          MOVL      XAR5,ACC              ; [CPU_ALU] |583| 
     124 0000001d 9A03          MOVB      AL,#3                 ; [CPU_ALU] |583| 
     125 0000001e FF66          LSL       AL,T                  ; [CPU_ALU] |583| 
     126 0000001f FF5E          NOT       AL                    ; [CPU_ALU] |583| 
     127 00000020 C0C5          AND       *+XAR5[0],AL          ; [CPU_ALU] |583| 
     128                      .dwpsn  file "D:/ti/motorware/motorware_1_01_00_18/sw/drivers/adc/src/32b/f28x/f2802x/adc.c",line 586
     129 00000021 A8A9          MOVL      ACC,XAR4              ; [CPU_ALU] |586| 
     130 00000022 FF12          ADD       ACC,#6533 << 2        ; [CPU_ALU] |586| 
         00000023 1985 
     131 00000024       $C$L2:    
     132 00000024 8AA9          MOVL      XAR4,ACC              ; [CPU_ALU] |586| 
     133 00000025 92A7          MOV       AL,AR7                ; [CPU_ALU] |586| 
     134 00000026 FF66          LSL       AL,T                  ; [CPU_ALU] |586| 
     135 00000027 98C4          OR        *+XAR4[0],AL          ; [CPU_ALU] |586| 
     136 00000028 761A   EDIS
     137 00000029 FF69          SPM       #0                    ; [CPU_ALU] 
     138              $C$DW$9 .dwtag  DW_TAG_TI_branch
     139                      .dwattr $C$DW$9, DW_AT_low_pc(0x00)
     140                      .dwattr $C$DW$9, DW_AT_TI_return
     141              
     142 0000002a 0006          LRETR     ; [CPU_ALU] 
     143                      ; return occurs ; [] 
     144                      .dwattr $C$DW$1, DW_AT_TI_end_file("D:/ti/motorware/motorware_1_01_00_18/sw/drivers/adc/src/32b/f28x/
     145                      .dwattr $C$DW$1, DW_AT_TI_end_line(0x25b)
     146                      .dwattr $C$DW$1, DW_AT_TI_end_column(0x01)
     147                      .dwendentry
     148                      .dwendtag $C$DW$1
     149              
     150 0000002b               .sect   ".text"
     151                      .clink
     152                      .global _ADC_setVoltRefSrc
     153              
     154              $C$DW$10        .dwtag  DW_TAG_subprogram
     155                      .dwattr $C$DW$10, DW_AT_name("ADC_setVoltRefSrc")
     156                      .dwattr $C$DW$10, DW_AT_low_pc(_ADC_setVoltRefSrc)
     157                      .dwattr $C$DW$10, DW_AT_high_pc(0x00)
     158                      .dwattr $C$DW$10, DW_AT_TI_symbol_name("_ADC_setVoltRefSrc")
     159                      .dwattr $C$DW$10, DW_AT_external
TMS320C2000 Assembler PC v18.1.2 Sun Jun 17 14:52:02 2018

Tools Copyright (c) 1996-2017 Texas Instruments Incorporated
C:\Users\haowp\AppData\Local\Temp\{90C17AA4-2C03-4A74-A215-B08F3B065D28} PAGE    4

     160                      .dwattr $C$DW$10, DW_AT_TI_begin_file("D:/ti/motorware/motorware_1_01_00_18/sw/drivers/adc/src/32b/f2
     161                      .dwattr $C$DW$10, DW_AT_TI_begin_line(0x1e0)
     162                      .dwattr $C$DW$10, DW_AT_TI_begin_column(0x06)
     163                      .dwattr $C$DW$10, DW_AT_TI_max_frame_size(-2)
     164                      .dwpsn  file "D:/ti/motorware/motorware_1_01_00_18/sw/drivers/adc/src/32b/f28x/f2802x/adc.c",line 481
     165              
     166                      .dwfde $C$DW$CIE, _ADC_setVoltRefSrc
     167              $C$DW$11        .dwtag  DW_TAG_formal_parameter
     168                      .dwattr $C$DW$11, DW_AT_name("adcHandle")
     169                      .dwattr $C$DW$11, DW_AT_TI_symbol_name("_adcHandle")
     170                      .dwattr $C$DW$11, DW_AT_type(*$C$DW$T$71)
     171                      .dwattr $C$DW$11, DW_AT_location[DW_OP_reg12]
     172              
     173              $C$DW$12        .dwtag  DW_TAG_formal_parameter
     174                      .dwattr $C$DW$12, DW_AT_name("voltSrc")
     175                      .dwattr $C$DW$12, DW_AT_TI_symbol_name("_voltSrc")
     176                      .dwattr $C$DW$12, DW_AT_type(*$C$DW$T$65)
     177                      .dwattr $C$DW$12, DW_AT_location[DW_OP_reg0]
     178              
     179              
     180              ;***************************************************************
     181              ;* FNAME: _ADC_setVoltRefSrc            FR SIZE:   0           *
     182              ;*                                                             *
     183              ;* FUNCTION ENVIRONMENT                                        *
     184              ;*                                                             *
     185              ;* FUNCTION PROPERTIES                                         *
     186              ;*                            0 Parameter,  0 Auto,  0 SOE     *
     187              ;***************************************************************
     188              
     189              _ADC_setVoltRefSrc:
     190              ;* AR4   assigned to _adcHandle
     191              $C$DW$13        .dwtag  DW_TAG_variable
     192                      .dwattr $C$DW$13, DW_AT_name("adcHandle")
     193                      .dwattr $C$DW$13, DW_AT_TI_symbol_name("_adcHandle")
     194                      .dwattr $C$DW$13, DW_AT_type(*$C$DW$T$78)
     195                      .dwattr $C$DW$13, DW_AT_location[DW_OP_reg12]
     196              
     197              ;* AR6   assigned to _voltSrc
     198              $C$DW$14        .dwtag  DW_TAG_variable
     199                      .dwattr $C$DW$14, DW_AT_name("voltSrc")
     200                      .dwattr $C$DW$14, DW_AT_TI_symbol_name("_voltSrc")
     201                      .dwattr $C$DW$14, DW_AT_type(*$C$DW$T$66)
     202                      .dwattr $C$DW$14, DW_AT_location[DW_OP_reg16]
     203              
     204                      .dwcfi  cfa_offset, -2
     205                      .dwcfi  save_reg_to_mem, 26, 0
     206 0000002b 88A9          MOVZ      AR6,AL                ; [CPU_ALU] |481| 
     207 0000002c 7622   EALLOW
     208                      .dwpsn  file "D:/ti/motorware/motorware_1_01_00_18/sw/drivers/adc/src/32b/f28x/f2802x/adc.c",line 488
     209 0000002d A8A9          MOVL      ACC,XAR4              ; [CPU_ALU] |488| 
     210 0000002e FF19          ADD       ACC,#51 << 9          ; [CPU_ALU] |488| 
         0000002f 0033 
     211 00000030 83A9          MOVL      XAR5,ACC              ; [CPU_ALU] |488| 
     212                      .dwpsn  file "D:/ti/motorware/motorware_1_01_00_18/sw/drivers/adc/src/32b/f28x/f2802x/adc.c",line 492
     213 00000031 A8A9          MOVL      ACC,XAR4              ; [CPU_ALU] |492| 
TMS320C2000 Assembler PC v18.1.2 Sun Jun 17 14:52:02 2018

Tools Copyright (c) 1996-2017 Texas Instruments Incorporated
C:\Users\haowp\AppData\Local\Temp\{90C17AA4-2C03-4A74-A215-B08F3B065D28} PAGE    5

     214 00000032 FF19          ADD       ACC,#51 << 9          ; [CPU_ALU] |492| 
         00000033 0033 
     215 00000034 8AA9          MOVL      XAR4,ACC              ; [CPU_ALU] |492| 
     216                      .dwpsn  file "D:/ti/motorware/motorware_1_01_00_18/sw/drivers/adc/src/32b/f28x/f2802x/adc.c",line 488
     217 00000035 18C5          AND       *+XAR5[0],#0xfff7     ; [CPU_ALU] |488| 
         00000036 FFF7 
     218                      .dwpsn  file "D:/ti/motorware/motorware_1_01_00_18/sw/drivers/adc/src/32b/f28x/f2802x/adc.c",line 492
     219 00000037 92A6          MOV       AL,AR6                ; [CPU_ALU] |492| 
     220 00000038 98C4          OR        *+XAR4[0],AL          ; [CPU_ALU] |492| 
     221 00000039 761A   EDIS
     222 0000003a FF69          SPM       #0                    ; [CPU_ALU] 
     223              $C$DW$15        .dwtag  DW_TAG_TI_branch
     224                      .dwattr $C$DW$15, DW_AT_low_pc(0x00)
     225                      .dwattr $C$DW$15, DW_AT_TI_return
     226              
     227 0000003b 0006          LRETR     ; [CPU_ALU] 
     228                      ; return occurs ; [] 
     229                      .dwattr $C$DW$10, DW_AT_TI_end_file("D:/ti/motorware/motorware_1_01_00_18/sw/drivers/adc/src/32b/f28x
     230                      .dwattr $C$DW$10, DW_AT_TI_end_line(0x1f1)
     231                      .dwattr $C$DW$10, DW_AT_TI_end_column(0x01)
     232                      .dwendentry
     233                      .dwendtag $C$DW$10
     234              
     235 0000003c               .sect   ".text"
     236                      .clink
     237                      .global _ADC_setTempSensorSrc
     238              
     239              $C$DW$16        .dwtag  DW_TAG_subprogram
     240                      .dwattr $C$DW$16, DW_AT_name("ADC_setTempSensorSrc")
     241                      .dwattr $C$DW$16, DW_AT_low_pc(_ADC_setTempSensorSrc)
     242                      .dwattr $C$DW$16, DW_AT_high_pc(0x00)
     243                      .dwattr $C$DW$16, DW_AT_TI_symbol_name("_ADC_setTempSensorSrc")
     244                      .dwattr $C$DW$16, DW_AT_external
     245                      .dwattr $C$DW$16, DW_AT_TI_begin_file("D:/ti/motorware/motorware_1_01_00_18/sw/drivers/adc/src/32b/f2
     246                      .dwattr $C$DW$16, DW_AT_TI_begin_line(0x1cc)
     247                      .dwattr $C$DW$16, DW_AT_TI_begin_column(0x06)
     248                      .dwattr $C$DW$16, DW_AT_TI_max_frame_size(-2)
     249                      .dwpsn  file "D:/ti/motorware/motorware_1_01_00_18/sw/drivers/adc/src/32b/f28x/f2802x/adc.c",line 461
     250              
     251                      .dwfde $C$DW$CIE, _ADC_setTempSensorSrc
     252              $C$DW$17        .dwtag  DW_TAG_formal_parameter
     253                      .dwattr $C$DW$17, DW_AT_name("adcHandle")
     254                      .dwattr $C$DW$17, DW_AT_TI_symbol_name("_adcHandle")
     255                      .dwattr $C$DW$17, DW_AT_type(*$C$DW$T$71)
     256                      .dwattr $C$DW$17, DW_AT_location[DW_OP_reg12]
     257              
     258              $C$DW$18        .dwtag  DW_TAG_formal_parameter
     259                      .dwattr $C$DW$18, DW_AT_name("sensorSrc")
     260                      .dwattr $C$DW$18, DW_AT_TI_symbol_name("_sensorSrc")
     261                      .dwattr $C$DW$18, DW_AT_type(*$C$DW$T$62)
     262                      .dwattr $C$DW$18, DW_AT_location[DW_OP_reg0]
     263              
     264              
     265              ;***************************************************************
     266              ;* FNAME: _ADC_setTempSensorSrc         FR SIZE:   0           *
TMS320C2000 Assembler PC v18.1.2 Sun Jun 17 14:52:02 2018

Tools Copyright (c) 1996-2017 Texas Instruments Incorporated
C:\Users\haowp\AppData\Local\Temp\{90C17AA4-2C03-4A74-A215-B08F3B065D28} PAGE    6

     267              ;*                                                             *
     268              ;* FUNCTION ENVIRONMENT                                        *
     269              ;*                                                             *
     270              ;* FUNCTION PROPERTIES                                         *
     271              ;*                            0 Parameter,  0 Auto,  0 SOE     *
     272              ;***************************************************************
     273              
     274              _ADC_setTempSensorSrc:
     275              ;* AR4   assigned to _adcHandle
     276              $C$DW$19        .dwtag  DW_TAG_variable
     277                      .dwattr $C$DW$19, DW_AT_name("adcHandle")
     278                      .dwattr $C$DW$19, DW_AT_TI_symbol_name("_adcHandle")
     279                      .dwattr $C$DW$19, DW_AT_type(*$C$DW$T$78)
     280                      .dwattr $C$DW$19, DW_AT_location[DW_OP_reg12]
     281              
     282              ;* AR6   assigned to _sensorSrc
     283              $C$DW$20        .dwtag  DW_TAG_variable
     284                      .dwattr $C$DW$20, DW_AT_name("sensorSrc")
     285                      .dwattr $C$DW$20, DW_AT_TI_symbol_name("_sensorSrc")
     286                      .dwattr $C$DW$20, DW_AT_type(*$C$DW$T$63)
     287                      .dwattr $C$DW$20, DW_AT_location[DW_OP_reg16]
     288              
     289                      .dwcfi  cfa_offset, -2
     290                      .dwcfi  save_reg_to_mem, 26, 0
     291 0000003c 88A9          MOVZ      AR6,AL                ; [CPU_ALU] |461| 
     292 0000003d 7622   EALLOW
     293                      .dwpsn  file "D:/ti/motorware/motorware_1_01_00_18/sw/drivers/adc/src/32b/f28x/f2802x/adc.c",line 468
     294 0000003e A8A9          MOVL      ACC,XAR4              ; [CPU_ALU] |468| 
     295 0000003f FF19          ADD       ACC,#51 << 9          ; [CPU_ALU] |468| 
         00000040 0033 
     296 00000041 83A9          MOVL      XAR5,ACC              ; [CPU_ALU] |468| 
     297                      .dwpsn  file "D:/ti/motorware/motorware_1_01_00_18/sw/drivers/adc/src/32b/f28x/f2802x/adc.c",line 472
     298 00000042 A8A9          MOVL      ACC,XAR4              ; [CPU_ALU] |472| 
     299 00000043 FF19          ADD       ACC,#51 << 9          ; [CPU_ALU] |472| 
         00000044 0033 
     300 00000045 8AA9          MOVL      XAR4,ACC              ; [CPU_ALU] |472| 
     301                      .dwpsn  file "D:/ti/motorware/motorware_1_01_00_18/sw/drivers/adc/src/32b/f28x/f2802x/adc.c",line 468
     302 00000046 18C5          AND       *+XAR5[0],#0xfffe     ; [CPU_ALU] |468| 
         00000047 FFFE 
     303                      .dwpsn  file "D:/ti/motorware/motorware_1_01_00_18/sw/drivers/adc/src/32b/f28x/f2802x/adc.c",line 472
     304 00000048 92A6          MOV       AL,AR6                ; [CPU_ALU] |472| 
     305 00000049 98C4          OR        *+XAR4[0],AL          ; [CPU_ALU] |472| 
     306 0000004a 761A   EDIS
     307 0000004b FF69          SPM       #0                    ; [CPU_ALU] 
     308              $C$DW$21        .dwtag  DW_TAG_TI_branch
     309                      .dwattr $C$DW$21, DW_AT_low_pc(0x00)
     310                      .dwattr $C$DW$21, DW_AT_TI_return
     311              
     312 0000004c 0006          LRETR     ; [CPU_ALU] 
     313                      ; return occurs ; [] 
     314                      .dwattr $C$DW$16, DW_AT_TI_end_file("D:/ti/motorware/motorware_1_01_00_18/sw/drivers/adc/src/32b/f28x
     315                      .dwattr $C$DW$16, DW_AT_TI_end_line(0x1dd)
     316                      .dwattr $C$DW$16, DW_AT_TI_end_column(0x01)
     317                      .dwendentry
     318                      .dwendtag $C$DW$16
TMS320C2000 Assembler PC v18.1.2 Sun Jun 17 14:52:02 2018

Tools Copyright (c) 1996-2017 Texas Instruments Incorporated
C:\Users\haowp\AppData\Local\Temp\{90C17AA4-2C03-4A74-A215-B08F3B065D28} PAGE    7

     319              
     320 0000004d               .sect   ".text"
     321                      .clink
     322                      .global _ADC_setSocTrigSrc
     323              
     324              $C$DW$22        .dwtag  DW_TAG_subprogram
     325                      .dwattr $C$DW$22, DW_AT_name("ADC_setSocTrigSrc")
     326                      .dwattr $C$DW$22, DW_AT_low_pc(_ADC_setSocTrigSrc)
     327                      .dwattr $C$DW$22, DW_AT_high_pc(0x00)
     328                      .dwattr $C$DW$22, DW_AT_TI_symbol_name("_ADC_setSocTrigSrc")
     329                      .dwattr $C$DW$22, DW_AT_external
     330                      .dwattr $C$DW$22, DW_AT_TI_begin_file("D:/ti/motorware/motorware_1_01_00_18/sw/drivers/adc/src/32b/f2
     331                      .dwattr $C$DW$22, DW_AT_TI_begin_line(0x198)
     332                      .dwattr $C$DW$22, DW_AT_TI_begin_column(0x06)
     333                      .dwattr $C$DW$22, DW_AT_TI_max_frame_size(-2)
     334                      .dwpsn  file "D:/ti/motorware/motorware_1_01_00_18/sw/drivers/adc/src/32b/f28x/f2802x/adc.c",line 409
     335              
     336                      .dwfde $C$DW$CIE, _ADC_setSocTrigSrc
     337              $C$DW$23        .dwtag  DW_TAG_formal_parameter
     338                      .dwattr $C$DW$23, DW_AT_name("adcHandle")
     339                      .dwattr $C$DW$23, DW_AT_TI_symbol_name("_adcHandle")
     340                      .dwattr $C$DW$23, DW_AT_type(*$C$DW$T$71)
     341                      .dwattr $C$DW$23, DW_AT_location[DW_OP_reg12]
     342              
     343              $C$DW$24        .dwtag  DW_TAG_formal_parameter
     344                      .dwattr $C$DW$24, DW_AT_name("socNumber")
     345                      .dwattr $C$DW$24, DW_AT_TI_symbol_name("_socNumber")
     346                      .dwattr $C$DW$24, DW_AT_type(*$C$DW$T$47)
     347                      .dwattr $C$DW$24, DW_AT_location[DW_OP_reg0]
     348              
     349              $C$DW$25        .dwtag  DW_TAG_formal_parameter
     350                      .dwattr $C$DW$25, DW_AT_name("trigSrc")
     351                      .dwattr $C$DW$25, DW_AT_TI_symbol_name("_trigSrc")
     352                      .dwattr $C$DW$25, DW_AT_type(*$C$DW$T$56)
     353                      .dwattr $C$DW$25, DW_AT_location[DW_OP_reg1]
     354              
     355              
     356              ;***************************************************************
     357              ;* FNAME: _ADC_setSocTrigSrc            FR SIZE:   0           *
     358              ;*                                                             *
     359              ;* FUNCTION ENVIRONMENT                                        *
     360              ;*                                                             *
     361              ;* FUNCTION PROPERTIES                                         *
     362              ;*                            0 Parameter,  0 Auto,  0 SOE     *
     363              ;***************************************************************
     364              
     365              _ADC_setSocTrigSrc:
     366              ;* AR4   assigned to $O$C1
     367              ;* AR4   assigned to _adcHandle
     368              $C$DW$26        .dwtag  DW_TAG_variable
     369                      .dwattr $C$DW$26, DW_AT_name("adcHandle")
     370                      .dwattr $C$DW$26, DW_AT_TI_symbol_name("_adcHandle")
     371                      .dwattr $C$DW$26, DW_AT_type(*$C$DW$T$78)
     372                      .dwattr $C$DW$26, DW_AT_location[DW_OP_reg12]
     373              
TMS320C2000 Assembler PC v18.1.2 Sun Jun 17 14:52:02 2018

Tools Copyright (c) 1996-2017 Texas Instruments Incorporated
C:\Users\haowp\AppData\Local\Temp\{90C17AA4-2C03-4A74-A215-B08F3B065D28} PAGE    8

     374              ;* AR7   assigned to _socNumber
     375              $C$DW$27        .dwtag  DW_TAG_variable
     376                      .dwattr $C$DW$27, DW_AT_name("socNumber")
     377                      .dwattr $C$DW$27, DW_AT_TI_symbol_name("_socNumber")
     378                      .dwattr $C$DW$27, DW_AT_type(*$C$DW$T$48)
     379                      .dwattr $C$DW$27, DW_AT_location[DW_OP_reg18]
     380              
     381              ;* AR6   assigned to _trigSrc
     382              $C$DW$28        .dwtag  DW_TAG_variable
     383                      .dwattr $C$DW$28, DW_AT_name("trigSrc")
     384                      .dwattr $C$DW$28, DW_AT_TI_symbol_name("_trigSrc")
     385                      .dwattr $C$DW$28, DW_AT_type(*$C$DW$T$57)
     386                      .dwattr $C$DW$28, DW_AT_location[DW_OP_reg16]
     387              
     388                      .dwcfi  cfa_offset, -2
     389                      .dwcfi  save_reg_to_mem, 26, 0
     390 0000004d 80A9          MOVZ      AR7,AL                ; [CPU_ALU] |409| 
     391 0000004e 88A8          MOVZ      AR6,AH                ; [CPU_ALU] |409| 
     392 0000004f 7622   EALLOW
     393                      .dwpsn  file "D:/ti/motorware/motorware_1_01_00_18/sw/drivers/adc/src/32b/f28x/f2802x/adc.c",line 416
     394 00000050 A8A9          MOVL      ACC,XAR4              ; [CPU_ALU] |416| 
     395 00000051 0DA7          ADDU      ACC,AR7               ; [CPU_ALU] |416| 
     396 00000052 8AA9          MOVL      XAR4,ACC              ; [CPU_ALU] |416| 
     397 00000053 FF15          ADD       ACC,#817 << 5         ; [CPU_ALU] |416| 
         00000054 0331 
     398 00000055 83A9          MOVL      XAR5,ACC              ; [CPU_ALU] |416| 
     399                      .dwpsn  file "D:/ti/motorware/motorware_1_01_00_18/sw/drivers/adc/src/32b/f28x/f2802x/adc.c",line 420
     400 00000056 A8A9          MOVL      ACC,XAR4              ; [CPU_ALU] |420| 
     401 00000057 FF15          ADD       ACC,#817 << 5         ; [CPU_ALU] |420| 
         00000058 0331 
     402 00000059 8AA9          MOVL      XAR4,ACC              ; [CPU_ALU] |420| 
     403                      .dwpsn  file "D:/ti/motorware/motorware_1_01_00_18/sw/drivers/adc/src/32b/f28x/f2802x/adc.c",line 416
     404 0000005a 18C5          AND       *+XAR5[0],#0x07ff     ; [CPU_ALU] |416| 
         0000005b 07FF 
     405                      .dwpsn  file "D:/ti/motorware/motorware_1_01_00_18/sw/drivers/adc/src/32b/f28x/f2802x/adc.c",line 420
     406 0000005c 92A6          MOV       AL,AR6                ; [CPU_ALU] |420| 
     407 0000005d 98C4          OR        *+XAR4[0],AL          ; [CPU_ALU] |420| 
     408 0000005e 761A   EDIS
     409 0000005f FF69          SPM       #0                    ; [CPU_ALU] 
     410              $C$DW$29        .dwtag  DW_TAG_TI_branch
     411                      .dwattr $C$DW$29, DW_AT_low_pc(0x00)
     412                      .dwattr $C$DW$29, DW_AT_TI_return
     413              
     414 00000060 0006          LRETR     ; [CPU_ALU] 
     415                      ; return occurs ; [] 
     416                      .dwattr $C$DW$22, DW_AT_TI_end_file("D:/ti/motorware/motorware_1_01_00_18/sw/drivers/adc/src/32b/f28x
     417                      .dwattr $C$DW$22, DW_AT_TI_end_line(0x1a9)
     418                      .dwattr $C$DW$22, DW_AT_TI_end_column(0x01)
     419                      .dwendentry
     420                      .dwendtag $C$DW$22
     421              
     422 00000061               .sect   ".text"
     423                      .clink
     424                      .global _ADC_setSocSampleDelay
     425              
TMS320C2000 Assembler PC v18.1.2 Sun Jun 17 14:52:02 2018

Tools Copyright (c) 1996-2017 Texas Instruments Incorporated
C:\Users\haowp\AppData\Local\Temp\{90C17AA4-2C03-4A74-A215-B08F3B065D28} PAGE    9

     426              $C$DW$30        .dwtag  DW_TAG_subprogram
     427                      .dwattr $C$DW$30, DW_AT_name("ADC_setSocSampleDelay")
     428                      .dwattr $C$DW$30, DW_AT_low_pc(_ADC_setSocSampleDelay)
     429                      .dwattr $C$DW$30, DW_AT_high_pc(0x00)
     430                      .dwattr $C$DW$30, DW_AT_TI_symbol_name("_ADC_setSocSampleDelay")
     431                      .dwattr $C$DW$30, DW_AT_external
     432                      .dwattr $C$DW$30, DW_AT_TI_begin_file("D:/ti/motorware/motorware_1_01_00_18/sw/drivers/adc/src/32b/f2
     433                      .dwattr $C$DW$30, DW_AT_TI_begin_line(0x184)
     434                      .dwattr $C$DW$30, DW_AT_TI_begin_column(0x06)
     435                      .dwattr $C$DW$30, DW_AT_TI_max_frame_size(-2)
     436                      .dwpsn  file "D:/ti/motorware/motorware_1_01_00_18/sw/drivers/adc/src/32b/f28x/f2802x/adc.c",line 389
     437              
     438                      .dwfde $C$DW$CIE, _ADC_setSocSampleDelay
     439              $C$DW$31        .dwtag  DW_TAG_formal_parameter
     440                      .dwattr $C$DW$31, DW_AT_name("adcHandle")
     441                      .dwattr $C$DW$31, DW_AT_TI_symbol_name("_adcHandle")
     442                      .dwattr $C$DW$31, DW_AT_type(*$C$DW$T$71)
     443                      .dwattr $C$DW$31, DW_AT_location[DW_OP_reg12]
     444              
     445              $C$DW$32        .dwtag  DW_TAG_formal_parameter
     446                      .dwattr $C$DW$32, DW_AT_name("socNumber")
     447                      .dwattr $C$DW$32, DW_AT_TI_symbol_name("_socNumber")
     448                      .dwattr $C$DW$32, DW_AT_type(*$C$DW$T$47)
     449                      .dwattr $C$DW$32, DW_AT_location[DW_OP_reg0]
     450              
     451              $C$DW$33        .dwtag  DW_TAG_formal_parameter
     452                      .dwattr $C$DW$33, DW_AT_name("sampleDelay")
     453                      .dwattr $C$DW$33, DW_AT_TI_symbol_name("_sampleDelay")
     454                      .dwattr $C$DW$33, DW_AT_type(*$C$DW$T$53)
     455                      .dwattr $C$DW$33, DW_AT_location[DW_OP_reg1]
     456              
     457              
     458              ;***************************************************************
     459              ;* FNAME: _ADC_setSocSampleDelay        FR SIZE:   0           *
     460              ;*                                                             *
     461              ;* FUNCTION ENVIRONMENT                                        *
     462              ;*                                                             *
     463              ;* FUNCTION PROPERTIES                                         *
     464              ;*                            0 Parameter,  0 Auto,  0 SOE     *
     465              ;***************************************************************
     466              
     467              _ADC_setSocSampleDelay:
     468              ;* AR4   assigned to $O$C1
     469              ;* AR4   assigned to _adcHandle
     470              $C$DW$34        .dwtag  DW_TAG_variable
     471                      .dwattr $C$DW$34, DW_AT_name("adcHandle")
     472                      .dwattr $C$DW$34, DW_AT_TI_symbol_name("_adcHandle")
     473                      .dwattr $C$DW$34, DW_AT_type(*$C$DW$T$78)
     474                      .dwattr $C$DW$34, DW_AT_location[DW_OP_reg12]
     475              
     476              ;* AR7   assigned to _socNumber
     477              $C$DW$35        .dwtag  DW_TAG_variable
     478                      .dwattr $C$DW$35, DW_AT_name("socNumber")
     479                      .dwattr $C$DW$35, DW_AT_TI_symbol_name("_socNumber")
     480                      .dwattr $C$DW$35, DW_AT_type(*$C$DW$T$48)
TMS320C2000 Assembler PC v18.1.2 Sun Jun 17 14:52:02 2018

Tools Copyright (c) 1996-2017 Texas Instruments Incorporated
C:\Users\haowp\AppData\Local\Temp\{90C17AA4-2C03-4A74-A215-B08F3B065D28} PAGE   10

     481                      .dwattr $C$DW$35, DW_AT_location[DW_OP_reg18]
     482              
     483              ;* AR6   assigned to _sampleDelay
     484              $C$DW$36        .dwtag  DW_TAG_variable
     485                      .dwattr $C$DW$36, DW_AT_name("sampleDelay")
     486                      .dwattr $C$DW$36, DW_AT_TI_symbol_name("_sampleDelay")
     487                      .dwattr $C$DW$36, DW_AT_type(*$C$DW$T$54)
     488                      .dwattr $C$DW$36, DW_AT_location[DW_OP_reg16]
     489              
     490                      .dwcfi  cfa_offset, -2
     491                      .dwcfi  save_reg_to_mem, 26, 0
     492 00000061 80A9          MOVZ      AR7,AL                ; [CPU_ALU] |389| 
     493 00000062 88A8          MOVZ      AR6,AH                ; [CPU_ALU] |389| 
     494 00000063 7622   EALLOW
     495                      .dwpsn  file "D:/ti/motorware/motorware_1_01_00_18/sw/drivers/adc/src/32b/f28x/f2802x/adc.c",line 396
     496 00000064 A8A9          MOVL      ACC,XAR4              ; [CPU_ALU] |396| 
     497 00000065 0DA7          ADDU      ACC,AR7               ; [CPU_ALU] |396| 
     498 00000066 8AA9          MOVL      XAR4,ACC              ; [CPU_ALU] |396| 
     499 00000067 FF15          ADD       ACC,#817 << 5         ; [CPU_ALU] |396| 
         00000068 0331 
     500 00000069 83A9          MOVL      XAR5,ACC              ; [CPU_ALU] |396| 
     501                      .dwpsn  file "D:/ti/motorware/motorware_1_01_00_18/sw/drivers/adc/src/32b/f28x/f2802x/adc.c",line 400
     502 0000006a A8A9          MOVL      ACC,XAR4              ; [CPU_ALU] |400| 
     503 0000006b FF15          ADD       ACC,#817 << 5         ; [CPU_ALU] |400| 
         0000006c 0331 
     504 0000006d 8AA9          MOVL      XAR4,ACC              ; [CPU_ALU] |400| 
     505                      .dwpsn  file "D:/ti/motorware/motorware_1_01_00_18/sw/drivers/adc/src/32b/f28x/f2802x/adc.c",line 396
     506 0000006e 18C5          AND       *+XAR5[0],#0xffc0     ; [CPU_ALU] |396| 
         0000006f FFC0 
     507                      .dwpsn  file "D:/ti/motorware/motorware_1_01_00_18/sw/drivers/adc/src/32b/f28x/f2802x/adc.c",line 400
     508 00000070 92A6          MOV       AL,AR6                ; [CPU_ALU] |400| 
     509 00000071 98C4          OR        *+XAR4[0],AL          ; [CPU_ALU] |400| 
     510 00000072 761A   EDIS
     511 00000073 FF69          SPM       #0                    ; [CPU_ALU] 
     512              $C$DW$37        .dwtag  DW_TAG_TI_branch
     513                      .dwattr $C$DW$37, DW_AT_low_pc(0x00)
     514                      .dwattr $C$DW$37, DW_AT_TI_return
     515              
     516 00000074 0006          LRETR     ; [CPU_ALU] 
     517                      ; return occurs ; [] 
     518                      .dwattr $C$DW$30, DW_AT_TI_end_file("D:/ti/motorware/motorware_1_01_00_18/sw/drivers/adc/src/32b/f28x
     519                      .dwattr $C$DW$30, DW_AT_TI_end_line(0x195)
     520                      .dwattr $C$DW$30, DW_AT_TI_end_column(0x01)
     521                      .dwendentry
     522                      .dwendtag $C$DW$30
     523              
     524 00000075               .sect   ".text"
     525                      .clink
     526                      .global _ADC_setSocFrcWord
     527              
     528              $C$DW$38        .dwtag  DW_TAG_subprogram
     529                      .dwattr $C$DW$38, DW_AT_name("ADC_setSocFrcWord")
     530                      .dwattr $C$DW$38, DW_AT_low_pc(_ADC_setSocFrcWord)
     531                      .dwattr $C$DW$38, DW_AT_high_pc(0x00)
     532                      .dwattr $C$DW$38, DW_AT_TI_symbol_name("_ADC_setSocFrcWord")
TMS320C2000 Assembler PC v18.1.2 Sun Jun 17 14:52:02 2018

Tools Copyright (c) 1996-2017 Texas Instruments Incorporated
C:\Users\haowp\AppData\Local\Temp\{90C17AA4-2C03-4A74-A215-B08F3B065D28} PAGE   11

     533                      .dwattr $C$DW$38, DW_AT_external
     534                      .dwattr $C$DW$38, DW_AT_TI_begin_file("D:/ti/motorware/motorware_1_01_00_18/sw/drivers/adc/src/32b/f2
     535                      .dwattr $C$DW$38, DW_AT_TI_begin_line(0x1bc)
     536                      .dwattr $C$DW$38, DW_AT_TI_begin_column(0x06)
     537                      .dwattr $C$DW$38, DW_AT_TI_max_frame_size(-2)
     538                      .dwpsn  file "D:/ti/motorware/motorware_1_01_00_18/sw/drivers/adc/src/32b/f28x/f2802x/adc.c",line 445
     539              
     540                      .dwfde $C$DW$CIE, _ADC_setSocFrcWord
     541              $C$DW$39        .dwtag  DW_TAG_formal_parameter
     542                      .dwattr $C$DW$39, DW_AT_name("adcHandle")
     543                      .dwattr $C$DW$39, DW_AT_TI_symbol_name("_adcHandle")
     544                      .dwattr $C$DW$39, DW_AT_type(*$C$DW$T$71)
     545                      .dwattr $C$DW$39, DW_AT_location[DW_OP_reg12]
     546              
     547              $C$DW$40        .dwtag  DW_TAG_formal_parameter
     548                      .dwattr $C$DW$40, DW_AT_name("socFrc")
     549                      .dwattr $C$DW$40, DW_AT_TI_symbol_name("_socFrc")
     550                      .dwattr $C$DW$40, DW_AT_type(*$C$DW$T$19)
     551                      .dwattr $C$DW$40, DW_AT_location[DW_OP_reg0]
     552              
     553              
     554              ;***************************************************************
     555              ;* FNAME: _ADC_setSocFrcWord            FR SIZE:   0           *
     556              ;*                                                             *
     557              ;* FUNCTION ENVIRONMENT                                        *
     558              ;*                                                             *
     559              ;* FUNCTION PROPERTIES                                         *
     560              ;*                            0 Parameter,  0 Auto,  0 SOE     *
     561              ;***************************************************************
     562              
     563              _ADC_setSocFrcWord:
     564              ;* AR4   assigned to _adcHandle
     565              $C$DW$41        .dwtag  DW_TAG_variable
     566                      .dwattr $C$DW$41, DW_AT_name("adcHandle")
     567                      .dwattr $C$DW$41, DW_AT_TI_symbol_name("_adcHandle")
     568                      .dwattr $C$DW$41, DW_AT_type(*$C$DW$T$78)
     569                      .dwattr $C$DW$41, DW_AT_location[DW_OP_reg12]
     570              
     571              ;* AL    assigned to _socFrc
     572              $C$DW$42        .dwtag  DW_TAG_variable
     573                      .dwattr $C$DW$42, DW_AT_name("socFrc")
     574                      .dwattr $C$DW$42, DW_AT_TI_symbol_name("_socFrc")
     575                      .dwattr $C$DW$42, DW_AT_type(*$C$DW$T$96)
     576                      .dwattr $C$DW$42, DW_AT_location[DW_OP_reg0]
     577              
     578                      .dwcfi  cfa_offset, -2
     579                      .dwcfi  save_reg_to_mem, 26, 0
     580 00000075 7622   EALLOW
     581                      .dwpsn  file "D:/ti/motorware/motorware_1_01_00_18/sw/drivers/adc/src/32b/f28x/f2802x/adc.c",line 452
     582 00000076 8D00          MOVL      XAR0,#26138           ; [CPU_ALU] |452| 
         00000077 661A 
     583 00000078 9694          MOV       *+XAR4[AR0],AL        ; [CPU_ALU] |452| 
     584 00000079 761A   EDIS
     585 0000007a FF69          SPM       #0                    ; [CPU_ALU] 
     586              $C$DW$43        .dwtag  DW_TAG_TI_branch
TMS320C2000 Assembler PC v18.1.2 Sun Jun 17 14:52:02 2018

Tools Copyright (c) 1996-2017 Texas Instruments Incorporated
C:\Users\haowp\AppData\Local\Temp\{90C17AA4-2C03-4A74-A215-B08F3B065D28} PAGE   12

     587                      .dwattr $C$DW$43, DW_AT_low_pc(0x00)
     588                      .dwattr $C$DW$43, DW_AT_TI_return
     589              
     590 0000007b 0006          LRETR     ; [CPU_ALU] 
     591                      ; return occurs ; [] 
     592                      .dwattr $C$DW$38, DW_AT_TI_end_file("D:/ti/motorware/motorware_1_01_00_18/sw/drivers/adc/src/32b/f28x
     593                      .dwattr $C$DW$38, DW_AT_TI_end_line(0x1c9)
     594                      .dwattr $C$DW$38, DW_AT_TI_end_column(0x01)
     595                      .dwendentry
     596                      .dwendtag $C$DW$38
     597              
     598 0000007c               .sect   ".text"
     599                      .clink
     600                      .global _ADC_setSocFrc
     601              
     602              $C$DW$44        .dwtag  DW_TAG_subprogram
     603                      .dwattr $C$DW$44, DW_AT_name("ADC_setSocFrc")
     604                      .dwattr $C$DW$44, DW_AT_low_pc(_ADC_setSocFrc)
     605                      .dwattr $C$DW$44, DW_AT_high_pc(0x00)
     606                      .dwattr $C$DW$44, DW_AT_TI_symbol_name("_ADC_setSocFrc")
     607                      .dwattr $C$DW$44, DW_AT_external
     608                      .dwattr $C$DW$44, DW_AT_TI_begin_file("D:/ti/motorware/motorware_1_01_00_18/sw/drivers/adc/src/32b/f2
     609                      .dwattr $C$DW$44, DW_AT_TI_begin_line(0x1ac)
     610                      .dwattr $C$DW$44, DW_AT_TI_begin_column(0x06)
     611                      .dwattr $C$DW$44, DW_AT_TI_max_frame_size(-2)
     612                      .dwpsn  file "D:/ti/motorware/motorware_1_01_00_18/sw/drivers/adc/src/32b/f28x/f2802x/adc.c",line 429
     613              
     614                      .dwfde $C$DW$CIE, _ADC_setSocFrc
     615              $C$DW$45        .dwtag  DW_TAG_formal_parameter
     616                      .dwattr $C$DW$45, DW_AT_name("adcHandle")
     617                      .dwattr $C$DW$45, DW_AT_TI_symbol_name("_adcHandle")
     618                      .dwattr $C$DW$45, DW_AT_type(*$C$DW$T$71)
     619                      .dwattr $C$DW$45, DW_AT_location[DW_OP_reg12]
     620              
     621              $C$DW$46        .dwtag  DW_TAG_formal_parameter
     622                      .dwattr $C$DW$46, DW_AT_name("socFrc")
     623                      .dwattr $C$DW$46, DW_AT_TI_symbol_name("_socFrc")
     624                      .dwattr $C$DW$46, DW_AT_type(*$C$DW$T$59)
     625                      .dwattr $C$DW$46, DW_AT_location[DW_OP_reg0]
     626              
     627              
     628              ;***************************************************************
     629              ;* FNAME: _ADC_setSocFrc                FR SIZE:   0           *
     630              ;*                                                             *
     631              ;* FUNCTION ENVIRONMENT                                        *
     632              ;*                                                             *
     633              ;* FUNCTION PROPERTIES                                         *
     634              ;*                            0 Parameter,  0 Auto,  0 SOE     *
     635              ;***************************************************************
     636              
     637              _ADC_setSocFrc:
     638              ;* AR4   assigned to _adcHandle
     639              $C$DW$47        .dwtag  DW_TAG_variable
     640                      .dwattr $C$DW$47, DW_AT_name("adcHandle")
     641                      .dwattr $C$DW$47, DW_AT_TI_symbol_name("_adcHandle")
TMS320C2000 Assembler PC v18.1.2 Sun Jun 17 14:52:02 2018

Tools Copyright (c) 1996-2017 Texas Instruments Incorporated
C:\Users\haowp\AppData\Local\Temp\{90C17AA4-2C03-4A74-A215-B08F3B065D28} PAGE   13

     642                      .dwattr $C$DW$47, DW_AT_type(*$C$DW$T$78)
     643                      .dwattr $C$DW$47, DW_AT_location[DW_OP_reg12]
     644              
     645              ;* T     assigned to _socFrc
     646              $C$DW$48        .dwtag  DW_TAG_variable
     647                      .dwattr $C$DW$48, DW_AT_name("socFrc")
     648                      .dwattr $C$DW$48, DW_AT_TI_symbol_name("_socFrc")
     649                      .dwattr $C$DW$48, DW_AT_type(*$C$DW$T$60)
     650                      .dwattr $C$DW$48, DW_AT_location[DW_OP_reg22]
     651              
     652                      .dwcfi  cfa_offset, -2
     653                      .dwcfi  save_reg_to_mem, 26, 0
     654 0000007c 2DA9          MOV       T,AL                  ; [CPU_ALU] |429| 
     655 0000007d 7622   EALLOW
     656                      .dwpsn  file "D:/ti/motorware/motorware_1_01_00_18/sw/drivers/adc/src/32b/f28x/f2802x/adc.c",line 436
     657 0000007e 8D00          MOVL      XAR0,#26138           ; [CPU_ALU] |436| 
         0000007f 661A 
     658 00000080 9A01          MOVB      AL,#1                 ; [CPU_ALU] |436| 
     659 00000081 FF66          LSL       AL,T                  ; [CPU_ALU] |436| 
     660 00000082 9694          MOV       *+XAR4[AR0],AL        ; [CPU_ALU] |436| 
     661 00000083 761A   EDIS
     662 00000084 FF69          SPM       #0                    ; [CPU_ALU] 
     663              $C$DW$49        .dwtag  DW_TAG_TI_branch
     664                      .dwattr $C$DW$49, DW_AT_low_pc(0x00)
     665                      .dwattr $C$DW$49, DW_AT_TI_return
     666              
     667 00000085 0006          LRETR     ; [CPU_ALU] 
     668                      ; return occurs ; [] 
     669                      .dwattr $C$DW$44, DW_AT_TI_end_file("D:/ti/motorware/motorware_1_01_00_18/sw/drivers/adc/src/32b/f28x
     670                      .dwattr $C$DW$44, DW_AT_TI_end_line(0x1b9)
     671                      .dwattr $C$DW$44, DW_AT_TI_end_column(0x01)
     672                      .dwendentry
     673                      .dwendtag $C$DW$44
     674              
     675 00000086               .sect   ".text"
     676                      .clink
     677                      .global _ADC_setSocChanNumber
     678              
     679              $C$DW$50        .dwtag  DW_TAG_subprogram
     680                      .dwattr $C$DW$50, DW_AT_name("ADC_setSocChanNumber")
     681                      .dwattr $C$DW$50, DW_AT_low_pc(_ADC_setSocChanNumber)
     682                      .dwattr $C$DW$50, DW_AT_high_pc(0x00)
     683                      .dwattr $C$DW$50, DW_AT_TI_symbol_name("_ADC_setSocChanNumber")
     684                      .dwattr $C$DW$50, DW_AT_external
     685                      .dwattr $C$DW$50, DW_AT_TI_begin_file("D:/ti/motorware/motorware_1_01_00_18/sw/drivers/adc/src/32b/f2
     686                      .dwattr $C$DW$50, DW_AT_TI_begin_line(0x170)
     687                      .dwattr $C$DW$50, DW_AT_TI_begin_column(0x06)
     688                      .dwattr $C$DW$50, DW_AT_TI_max_frame_size(-2)
     689                      .dwpsn  file "D:/ti/motorware/motorware_1_01_00_18/sw/drivers/adc/src/32b/f28x/f2802x/adc.c",line 369
     690              
     691                      .dwfde $C$DW$CIE, _ADC_setSocChanNumber
     692              $C$DW$51        .dwtag  DW_TAG_formal_parameter
     693                      .dwattr $C$DW$51, DW_AT_name("adcHandle")
     694                      .dwattr $C$DW$51, DW_AT_TI_symbol_name("_adcHandle")
     695                      .dwattr $C$DW$51, DW_AT_type(*$C$DW$T$71)
TMS320C2000 Assembler PC v18.1.2 Sun Jun 17 14:52:02 2018

Tools Copyright (c) 1996-2017 Texas Instruments Incorporated
C:\Users\haowp\AppData\Local\Temp\{90C17AA4-2C03-4A74-A215-B08F3B065D28} PAGE   14

     696                      .dwattr $C$DW$51, DW_AT_location[DW_OP_reg12]
     697              
     698              $C$DW$52        .dwtag  DW_TAG_formal_parameter
     699                      .dwattr $C$DW$52, DW_AT_name("socNumber")
     700                      .dwattr $C$DW$52, DW_AT_TI_symbol_name("_socNumber")
     701                      .dwattr $C$DW$52, DW_AT_type(*$C$DW$T$47)
     702                      .dwattr $C$DW$52, DW_AT_location[DW_OP_reg0]
     703              
     704              $C$DW$53        .dwtag  DW_TAG_formal_parameter
     705                      .dwattr $C$DW$53, DW_AT_name("chanNumber")
     706                      .dwattr $C$DW$53, DW_AT_TI_symbol_name("_chanNumber")
     707                      .dwattr $C$DW$53, DW_AT_type(*$C$DW$T$50)
     708                      .dwattr $C$DW$53, DW_AT_location[DW_OP_reg1]
     709              
     710              
     711              ;***************************************************************
     712              ;* FNAME: _ADC_setSocChanNumber         FR SIZE:   0           *
     713              ;*                                                             *
     714              ;* FUNCTION ENVIRONMENT                                        *
     715              ;*                                                             *
     716              ;* FUNCTION PROPERTIES                                         *
     717              ;*                            0 Parameter,  0 Auto,  0 SOE     *
     718              ;***************************************************************
     719              
     720              _ADC_setSocChanNumber:
     721              ;* AR4   assigned to $O$C1
     722              ;* AR4   assigned to _adcHandle
     723              $C$DW$54        .dwtag  DW_TAG_variable
     724                      .dwattr $C$DW$54, DW_AT_name("adcHandle")
     725                      .dwattr $C$DW$54, DW_AT_TI_symbol_name("_adcHandle")
     726                      .dwattr $C$DW$54, DW_AT_type(*$C$DW$T$78)
     727                      .dwattr $C$DW$54, DW_AT_location[DW_OP_reg12]
     728              
     729              ;* AR7   assigned to _socNumber
     730              $C$DW$55        .dwtag  DW_TAG_variable
     731                      .dwattr $C$DW$55, DW_AT_name("socNumber")
     732                      .dwattr $C$DW$55, DW_AT_TI_symbol_name("_socNumber")
     733                      .dwattr $C$DW$55, DW_AT_type(*$C$DW$T$48)
     734                      .dwattr $C$DW$55, DW_AT_location[DW_OP_reg18]
     735              
     736              ;* AR6   assigned to _chanNumber
     737              $C$DW$56        .dwtag  DW_TAG_variable
     738                      .dwattr $C$DW$56, DW_AT_name("chanNumber")
     739                      .dwattr $C$DW$56, DW_AT_TI_symbol_name("_chanNumber")
     740                      .dwattr $C$DW$56, DW_AT_type(*$C$DW$T$51)
     741                      .dwattr $C$DW$56, DW_AT_location[DW_OP_reg16]
     742              
     743                      .dwcfi  cfa_offset, -2
     744                      .dwcfi  save_reg_to_mem, 26, 0
     745 00000086 80A9          MOVZ      AR7,AL                ; [CPU_ALU] |369| 
     746 00000087 88A8          MOVZ      AR6,AH                ; [CPU_ALU] |369| 
     747 00000088 7622   EALLOW
     748                      .dwpsn  file "D:/ti/motorware/motorware_1_01_00_18/sw/drivers/adc/src/32b/f28x/f2802x/adc.c",line 376
     749 00000089 A8A9          MOVL      ACC,XAR4              ; [CPU_ALU] |376| 
     750 0000008a 0DA7          ADDU      ACC,AR7               ; [CPU_ALU] |376| 
TMS320C2000 Assembler PC v18.1.2 Sun Jun 17 14:52:02 2018

Tools Copyright (c) 1996-2017 Texas Instruments Incorporated
C:\Users\haowp\AppData\Local\Temp\{90C17AA4-2C03-4A74-A215-B08F3B065D28} PAGE   15

     751 0000008b 8AA9          MOVL      XAR4,ACC              ; [CPU_ALU] |376| 
     752 0000008c FF15          ADD       ACC,#817 << 5         ; [CPU_ALU] |376| 
         0000008d 0331 
     753 0000008e 83A9          MOVL      XAR5,ACC              ; [CPU_ALU] |376| 
     754                      .dwpsn  file "D:/ti/motorware/motorware_1_01_00_18/sw/drivers/adc/src/32b/f28x/f2802x/adc.c",line 380
     755 0000008f A8A9          MOVL      ACC,XAR4              ; [CPU_ALU] |380| 
     756 00000090 FF15          ADD       ACC,#817 << 5         ; [CPU_ALU] |380| 
         00000091 0331 
     757 00000092 8AA9          MOVL      XAR4,ACC              ; [CPU_ALU] |380| 
     758                      .dwpsn  file "D:/ti/motorware/motorware_1_01_00_18/sw/drivers/adc/src/32b/f28x/f2802x/adc.c",line 376
     759 00000093 18C5          AND       *+XAR5[0],#0xfc3f     ; [CPU_ALU] |376| 
         00000094 FC3F 
     760                      .dwpsn  file "D:/ti/motorware/motorware_1_01_00_18/sw/drivers/adc/src/32b/f28x/f2802x/adc.c",line 380
     761 00000095 92A6          MOV       AL,AR6                ; [CPU_ALU] |380| 
     762 00000096 98C4          OR        *+XAR4[0],AL          ; [CPU_ALU] |380| 
     763 00000097 761A   EDIS
     764 00000098 FF69          SPM       #0                    ; [CPU_ALU] 
     765              $C$DW$57        .dwtag  DW_TAG_TI_branch
     766                      .dwattr $C$DW$57, DW_AT_low_pc(0x00)
     767                      .dwattr $C$DW$57, DW_AT_TI_return
     768              
     769 00000099 0006          LRETR     ; [CPU_ALU] 
     770                      ; return occurs ; [] 
     771                      .dwattr $C$DW$50, DW_AT_TI_end_file("D:/ti/motorware/motorware_1_01_00_18/sw/drivers/adc/src/32b/f28x
     772                      .dwattr $C$DW$50, DW_AT_TI_end_line(0x181)
     773                      .dwattr $C$DW$50, DW_AT_TI_end_column(0x01)
     774                      .dwendentry
     775                      .dwendtag $C$DW$50
     776              
     777 0000009a               .sect   ".text"
     778                      .clink
     779                      .global _ADC_setSampleOverlapMode
     780              
     781              $C$DW$58        .dwtag  DW_TAG_subprogram
     782                      .dwattr $C$DW$58, DW_AT_name("ADC_setSampleOverlapMode")
     783                      .dwattr $C$DW$58, DW_AT_low_pc(_ADC_setSampleOverlapMode)
     784                      .dwattr $C$DW$58, DW_AT_high_pc(0x00)
     785                      .dwattr $C$DW$58, DW_AT_TI_symbol_name("_ADC_setSampleOverlapMode")
     786                      .dwattr $C$DW$58, DW_AT_external
     787                      .dwattr $C$DW$58, DW_AT_TI_begin_file("D:/ti/motorware/motorware_1_01_00_18/sw/drivers/adc/src/32b/f2
     788                      .dwattr $C$DW$58, DW_AT_TI_begin_line(0x101)
     789                      .dwattr $C$DW$58, DW_AT_TI_begin_column(0x06)
     790                      .dwattr $C$DW$58, DW_AT_TI_max_frame_size(-2)
     791                      .dwpsn  file "D:/ti/motorware/motorware_1_01_00_18/sw/drivers/adc/src/32b/f28x/f2802x/adc.c",line 258
     792              
     793                      .dwfde $C$DW$CIE, _ADC_setSampleOverlapMode
     794              $C$DW$59        .dwtag  DW_TAG_formal_parameter
     795                      .dwattr $C$DW$59, DW_AT_name("adcHandle")
     796                      .dwattr $C$DW$59, DW_AT_TI_symbol_name("_adcHandle")
     797                      .dwattr $C$DW$59, DW_AT_type(*$C$DW$T$71)
     798                      .dwattr $C$DW$59, DW_AT_location[DW_OP_reg12]
     799              
     800              $C$DW$60        .dwtag  DW_TAG_formal_parameter
     801                      .dwattr $C$DW$60, DW_AT_name("OverLap")
     802                      .dwattr $C$DW$60, DW_AT_TI_symbol_name("_OverLap")
TMS320C2000 Assembler PC v18.1.2 Sun Jun 17 14:52:02 2018

Tools Copyright (c) 1996-2017 Texas Instruments Incorporated
C:\Users\haowp\AppData\Local\Temp\{90C17AA4-2C03-4A74-A215-B08F3B065D28} PAGE   16

     803                      .dwattr $C$DW$60, DW_AT_type(*$C$DW$T$32)
     804                      .dwattr $C$DW$60, DW_AT_location[DW_OP_reg0]
     805              
     806              
     807              ;***************************************************************
     808              ;* FNAME: _ADC_setSampleOverlapMode     FR SIZE:   0           *
     809              ;*                                                             *
     810              ;* FUNCTION ENVIRONMENT                                        *
     811              ;*                                                             *
     812              ;* FUNCTION PROPERTIES                                         *
     813              ;*                            0 Parameter,  0 Auto,  0 SOE     *
     814              ;***************************************************************
     815              
     816              _ADC_setSampleOverlapMode:
     817              ;* AR4   assigned to _adcHandle
     818              $C$DW$61        .dwtag  DW_TAG_variable
     819                      .dwattr $C$DW$61, DW_AT_name("adcHandle")
     820                      .dwattr $C$DW$61, DW_AT_TI_symbol_name("_adcHandle")
     821                      .dwattr $C$DW$61, DW_AT_type(*$C$DW$T$78)
     822                      .dwattr $C$DW$61, DW_AT_location[DW_OP_reg12]
     823              
     824              ;* AL    assigned to _OverLap
     825              $C$DW$62        .dwtag  DW_TAG_variable
     826                      .dwattr $C$DW$62, DW_AT_name("OverLap")
     827                      .dwattr $C$DW$62, DW_AT_TI_symbol_name("_OverLap")
     828                      .dwattr $C$DW$62, DW_AT_type(*$C$DW$T$33)
     829                      .dwattr $C$DW$62, DW_AT_location[DW_OP_reg0]
     830              
     831                      .dwcfi  cfa_offset, -2
     832                      .dwcfi  save_reg_to_mem, 26, 0
     833 0000009a 7622   EALLOW
     834                      .dwpsn  file "D:/ti/motorware/motorware_1_01_00_18/sw/drivers/adc/src/32b/f28x/f2802x/adc.c",line 265
     835 0000009b 5200          CMPB      AL,#0                 ; [CPU_ALU] |265| 
     836 0000009c 6008          B         $C$L3,NEQ             ; [CPU_ALU] |265| 
     837                      ; branchcc occurs ; [] |265| 
     838                      .dwpsn  file "D:/ti/motorware/motorware_1_01_00_18/sw/drivers/adc/src/32b/f28x/f2802x/adc.c",line 266
     839 0000009d A8A9          MOVL      ACC,XAR4              ; [CPU_ALU] |266| 
     840 0000009e FF10          ADD       ACC,#26113 << 0       ; [CPU_ALU] |266| 
         0000009f 6601 
     841 000000a0 8AA9          MOVL      XAR4,ACC              ; [CPU_ALU] |266| 
     842 000000a1 18C4          AND       *+XAR4[0],#0xfffd     ; [CPU_ALU] |266| 
         000000a2 FFFD 
     843 000000a3 6F07          B         $C$L4,UNC             ; [CPU_ALU] |266| 
     844                      ; branch occurs ; [] |266| 
     845 000000a4       $C$L3:    
     846                      .dwpsn  file "D:/ti/motorware/motorware_1_01_00_18/sw/drivers/adc/src/32b/f28x/f2802x/adc.c",line 268
     847 000000a4 A8A9          MOVL      ACC,XAR4              ; [CPU_ALU] |268| 
     848 000000a5 FF10          ADD       ACC,#26113 << 0       ; [CPU_ALU] |268| 
         000000a6 6601 
     849 000000a7 8AA9          MOVL      XAR4,ACC              ; [CPU_ALU] |268| 
     850 000000a8 1AC4          OR        *+XAR4[0],#0x0002     ; [CPU_ALU] |268| 
         000000a9 0002 
     851 000000aa       $C$L4:    
     852 000000aa 761A   EDIS
     853 000000ab FF69          SPM       #0                    ; [CPU_ALU] 
TMS320C2000 Assembler PC v18.1.2 Sun Jun 17 14:52:02 2018

Tools Copyright (c) 1996-2017 Texas Instruments Incorporated
C:\Users\haowp\AppData\Local\Temp\{90C17AA4-2C03-4A74-A215-B08F3B065D28} PAGE   17

     854              $C$DW$63        .dwtag  DW_TAG_TI_branch
     855                      .dwattr $C$DW$63, DW_AT_low_pc(0x00)
     856                      .dwattr $C$DW$63, DW_AT_TI_return
     857              
     858 000000ac 0006          LRETR     ; [CPU_ALU] 
     859                      ; return occurs ; [] 
     860                      .dwattr $C$DW$58, DW_AT_TI_end_file("D:/ti/motorware/motorware_1_01_00_18/sw/drivers/adc/src/32b/f28x
     861                      .dwattr $C$DW$58, DW_AT_TI_end_line(0x111)
     862                      .dwattr $C$DW$58, DW_AT_TI_end_column(0x01)
     863                      .dwendentry
     864                      .dwendtag $C$DW$58
     865              
     866 000000ad               .sect   ".text"
     867                      .clink
     868                      .global _ADC_setSampleMode
     869              
     870              $C$DW$64        .dwtag  DW_TAG_subprogram
     871                      .dwattr $C$DW$64, DW_AT_name("ADC_setSampleMode")
     872                      .dwattr $C$DW$64, DW_AT_low_pc(_ADC_setSampleMode)
     873                      .dwattr $C$DW$64, DW_AT_high_pc(0x00)
     874                      .dwattr $C$DW$64, DW_AT_TI_symbol_name("_ADC_setSampleMode")
     875                      .dwattr $C$DW$64, DW_AT_external
     876                      .dwattr $C$DW$64, DW_AT_TI_begin_file("D:/ti/motorware/motorware_1_01_00_18/sw/drivers/adc/src/32b/f2
     877                      .dwattr $C$DW$64, DW_AT_TI_begin_line(0x15a)
     878                      .dwattr $C$DW$64, DW_AT_TI_begin_column(0x06)
     879                      .dwattr $C$DW$64, DW_AT_TI_max_frame_size(-2)
     880                      .dwpsn  file "D:/ti/motorware/motorware_1_01_00_18/sw/drivers/adc/src/32b/f28x/f2802x/adc.c",line 347
     881              
     882                      .dwfde $C$DW$CIE, _ADC_setSampleMode
     883              $C$DW$65        .dwtag  DW_TAG_formal_parameter
     884                      .dwattr $C$DW$65, DW_AT_name("adcHandle")
     885                      .dwattr $C$DW$65, DW_AT_TI_symbol_name("_adcHandle")
     886                      .dwattr $C$DW$65, DW_AT_type(*$C$DW$T$71)
     887                      .dwattr $C$DW$65, DW_AT_location[DW_OP_reg12]
     888              
     889              $C$DW$66        .dwtag  DW_TAG_formal_parameter
     890                      .dwattr $C$DW$66, DW_AT_name("sampleMode")
     891                      .dwattr $C$DW$66, DW_AT_TI_symbol_name("_sampleMode")
     892                      .dwattr $C$DW$66, DW_AT_type(*$C$DW$T$44)
     893                      .dwattr $C$DW$66, DW_AT_location[DW_OP_reg0]
     894              
     895              
     896              ;***************************************************************
     897              ;* FNAME: _ADC_setSampleMode            FR SIZE:   0           *
     898              ;*                                                             *
     899              ;* FUNCTION ENVIRONMENT                                        *
     900              ;*                                                             *
     901              ;* FUNCTION PROPERTIES                                         *
     902              ;*                            0 Parameter,  0 Auto,  0 SOE     *
     903              ;***************************************************************
     904              
     905              _ADC_setSampleMode:
     906              ;* AR4   assigned to _adcHandle
     907              $C$DW$67        .dwtag  DW_TAG_variable
     908                      .dwattr $C$DW$67, DW_AT_name("adcHandle")
TMS320C2000 Assembler PC v18.1.2 Sun Jun 17 14:52:02 2018

Tools Copyright (c) 1996-2017 Texas Instruments Incorporated
C:\Users\haowp\AppData\Local\Temp\{90C17AA4-2C03-4A74-A215-B08F3B065D28} PAGE   18

     909                      .dwattr $C$DW$67, DW_AT_TI_symbol_name("_adcHandle")
     910                      .dwattr $C$DW$67, DW_AT_type(*$C$DW$T$78)
     911                      .dwattr $C$DW$67, DW_AT_location[DW_OP_reg12]
     912              
     913              ;* AR6   assigned to _sampleMode
     914              $C$DW$68        .dwtag  DW_TAG_variable
     915                      .dwattr $C$DW$68, DW_AT_name("sampleMode")
     916                      .dwattr $C$DW$68, DW_AT_TI_symbol_name("_sampleMode")
     917                      .dwattr $C$DW$68, DW_AT_type(*$C$DW$T$45)
     918                      .dwattr $C$DW$68, DW_AT_location[DW_OP_reg16]
     919              
     920                      .dwcfi  cfa_offset, -2
     921                      .dwcfi  save_reg_to_mem, 26, 0
     922 000000ad 88A9          MOVZ      AR6,AL                ; [CPU_ALU] |347| 
     923 000000ae 7622   EALLOW
     924                      .dwpsn  file "D:/ti/motorware/motorware_1_01_00_18/sw/drivers/adc/src/32b/f28x/f2802x/adc.c",line 353
     925 000000af 48A6          TBIT      AR6,#8                ; [CPU_ALU] |353| 
     926 000000b0 6D08          B         $C$L5,TC              ; [CPU_ALU] |353| 
     927                      ; branchcc occurs ; [] |353| 
     928                      .dwpsn  file "D:/ti/motorware/motorware_1_01_00_18/sw/drivers/adc/src/32b/f28x/f2802x/adc.c",line 359
     929 000000b1 A8A9          MOVL      ACC,XAR4              ; [CPU_ALU] |359| 
     930 000000b2 FF11          ADD       ACC,#13065 << 1       ; [CPU_ALU] |359| 
         000000b3 3309 
     931 000000b4 8AA9          MOVL      XAR4,ACC              ; [CPU_ALU] |359| 
     932 000000b5 92A6          MOV       AL,AR6                ; [CPU_ALU] |359| 
     933 000000b6 98C4          OR        *+XAR4[0],AL          ; [CPU_ALU] |359| 
     934 000000b7 6F0A          B         $C$L6,UNC             ; [CPU_ALU] |359| 
     935                      ; branch occurs ; [] |359| 
     936 000000b8       $C$L5:    
     937                      .dwpsn  file "D:/ti/motorware/motorware_1_01_00_18/sw/drivers/adc/src/32b/f28x/f2802x/adc.c",line 355
     938 000000b8 A8A9          MOVL      ACC,XAR4              ; [CPU_ALU] |355| 
     939 000000b9 FF11          ADD       ACC,#13065 << 1       ; [CPU_ALU] |355| 
         000000ba 3309 
     940 000000bb 8AA9          MOVL      XAR4,ACC              ; [CPU_ALU] |355| 
     941 000000bc 92A6          MOV       AL,AR6                ; [CPU_ALU] |355| 
     942 000000bd 08A9          SUB       AL,#256               ; [CPU_ALU] |355| 
         000000be FF00 
     943 000000bf FF5E          NOT       AL                    ; [CPU_ALU] |355| 
     944 000000c0 C0C4          AND       *+XAR4[0],AL          ; [CPU_ALU] |355| 
     945 000000c1       $C$L6:    
     946 000000c1 761A   EDIS
     947 000000c2 FF69          SPM       #0                    ; [CPU_ALU] 
     948              $C$DW$69        .dwtag  DW_TAG_TI_branch
     949                      .dwattr $C$DW$69, DW_AT_low_pc(0x00)
     950                      .dwattr $C$DW$69, DW_AT_TI_return
     951              
     952 000000c3 0006          LRETR     ; [CPU_ALU] 
     953                      ; return occurs ; [] 
     954                      .dwattr $C$DW$64, DW_AT_TI_end_file("D:/ti/motorware/motorware_1_01_00_18/sw/drivers/adc/src/32b/f28x
     955                      .dwattr $C$DW$64, DW_AT_TI_end_line(0x16d)
     956                      .dwattr $C$DW$64, DW_AT_TI_end_column(0x01)
     957                      .dwendentry
     958                      .dwendtag $C$DW$64
     959              
     960 000000c4               .sect   ".text"
TMS320C2000 Assembler PC v18.1.2 Sun Jun 17 14:52:02 2018

Tools Copyright (c) 1996-2017 Texas Instruments Incorporated
C:\Users\haowp\AppData\Local\Temp\{90C17AA4-2C03-4A74-A215-B08F3B065D28} PAGE   19

     961                      .clink
     962                      .global _ADC_setOffTrim
     963              
     964              $C$DW$70        .dwtag  DW_TAG_subprogram
     965                      .dwattr $C$DW$70, DW_AT_name("ADC_setOffTrim")
     966                      .dwattr $C$DW$70, DW_AT_low_pc(_ADC_setOffTrim)
     967                      .dwattr $C$DW$70, DW_AT_high_pc(0x00)
     968                      .dwattr $C$DW$70, DW_AT_TI_symbol_name("_ADC_setOffTrim")
     969                      .dwattr $C$DW$70, DW_AT_external
     970                      .dwattr $C$DW$70, DW_AT_TI_begin_file("D:/ti/motorware/motorware_1_01_00_18/sw/drivers/adc/src/32b/f2
     971                      .dwattr $C$DW$70, DW_AT_TI_begin_line(0x25d)
     972                      .dwattr $C$DW$70, DW_AT_TI_begin_column(0x06)
     973                      .dwattr $C$DW$70, DW_AT_TI_max_frame_size(-2)
     974                      .dwpsn  file "D:/ti/motorware/motorware_1_01_00_18/sw/drivers/adc/src/32b/f28x/f2802x/adc.c",line 606
     975              
     976                      .dwfde $C$DW$CIE, _ADC_setOffTrim
     977              $C$DW$71        .dwtag  DW_TAG_formal_parameter
     978                      .dwattr $C$DW$71, DW_AT_name("adcHandle")
     979                      .dwattr $C$DW$71, DW_AT_TI_symbol_name("_adcHandle")
     980                      .dwattr $C$DW$71, DW_AT_type(*$C$DW$T$71)
     981                      .dwattr $C$DW$71, DW_AT_location[DW_OP_reg12]
     982              
     983              $C$DW$72        .dwtag  DW_TAG_formal_parameter
     984                      .dwattr $C$DW$72, DW_AT_name("offtrim")
     985                      .dwattr $C$DW$72, DW_AT_TI_symbol_name("_offtrim")
     986                      .dwattr $C$DW$72, DW_AT_type(*$C$DW$T$19)
     987                      .dwattr $C$DW$72, DW_AT_location[DW_OP_reg0]
     988              
     989              
     990              ;***************************************************************
     991              ;* FNAME: _ADC_setOffTrim               FR SIZE:   0           *
     992              ;*                                                             *
     993              ;* FUNCTION ENVIRONMENT                                        *
     994              ;*                                                             *
     995              ;* FUNCTION PROPERTIES                                         *
     996              ;*                            0 Parameter,  0 Auto,  0 SOE     *
     997              ;***************************************************************
     998              
     999              _ADC_setOffTrim:
    1000              ;* AR4   assigned to _adcHandle
    1001              $C$DW$73        .dwtag  DW_TAG_variable
    1002                      .dwattr $C$DW$73, DW_AT_name("adcHandle")
    1003                      .dwattr $C$DW$73, DW_AT_TI_symbol_name("_adcHandle")
    1004                      .dwattr $C$DW$73, DW_AT_type(*$C$DW$T$78)
    1005                      .dwattr $C$DW$73, DW_AT_location[DW_OP_reg12]
    1006              
    1007              ;* AL    assigned to _offtrim
    1008              $C$DW$74        .dwtag  DW_TAG_variable
    1009                      .dwattr $C$DW$74, DW_AT_name("offtrim")
    1010                      .dwattr $C$DW$74, DW_AT_TI_symbol_name("_offtrim")
    1011                      .dwattr $C$DW$74, DW_AT_type(*$C$DW$T$96)
    1012                      .dwattr $C$DW$74, DW_AT_location[DW_OP_reg0]
    1013              
    1014                      .dwcfi  cfa_offset, -2
    1015                      .dwcfi  save_reg_to_mem, 26, 0
TMS320C2000 Assembler PC v18.1.2 Sun Jun 17 14:52:02 2018

Tools Copyright (c) 1996-2017 Texas Instruments Incorporated
C:\Users\haowp\AppData\Local\Temp\{90C17AA4-2C03-4A74-A215-B08F3B065D28} PAGE   20

    1016 000000c4 7622   EALLOW
    1017                      .dwpsn  file "D:/ti/motorware/motorware_1_01_00_18/sw/drivers/adc/src/32b/f28x/f2802x/adc.c",line 613
    1018 000000c5 8D00          MOVL      XAR0,#26177           ; [CPU_ALU] |613| 
         000000c6 6641 
    1019 000000c7 9694          MOV       *+XAR4[AR0],AL        ; [CPU_ALU] |613| 
    1020 000000c8 761A   EDIS
    1021 000000c9 FF69          SPM       #0                    ; [CPU_ALU] 
    1022              $C$DW$75        .dwtag  DW_TAG_TI_branch
    1023                      .dwattr $C$DW$75, DW_AT_low_pc(0x00)
    1024                      .dwattr $C$DW$75, DW_AT_TI_return
    1025              
    1026 000000ca 0006          LRETR     ; [CPU_ALU] 
    1027                      ; return occurs ; [] 
    1028                      .dwattr $C$DW$70, DW_AT_TI_end_file("D:/ti/motorware/motorware_1_01_00_18/sw/drivers/adc/src/32b/f28x
    1029                      .dwattr $C$DW$70, DW_AT_TI_end_line(0x26a)
    1030                      .dwattr $C$DW$70, DW_AT_TI_end_column(0x01)
    1031                      .dwendentry
    1032                      .dwendtag $C$DW$70
    1033              
    1034 000000cb               .sect   ".text"
    1035                      .clink
    1036                      .global _ADC_setIntSrc
    1037              
    1038              $C$DW$76        .dwtag  DW_TAG_subprogram
    1039                      .dwattr $C$DW$76, DW_AT_name("ADC_setIntSrc")
    1040                      .dwattr $C$DW$76, DW_AT_low_pc(_ADC_setIntSrc)
    1041                      .dwattr $C$DW$76, DW_AT_high_pc(0x00)
    1042                      .dwattr $C$DW$76, DW_AT_TI_symbol_name("_ADC_setIntSrc")
    1043                      .dwattr $C$DW$76, DW_AT_external
    1044                      .dwattr $C$DW$76, DW_AT_TI_begin_file("D:/ti/motorware/motorware_1_01_00_18/sw/drivers/adc/src/32b/f2
    1045                      .dwattr $C$DW$76, DW_AT_TI_begin_line(0x140)
    1046                      .dwattr $C$DW$76, DW_AT_TI_begin_column(0x06)
    1047                      .dwattr $C$DW$76, DW_AT_TI_max_frame_size(-2)
    1048                      .dwpsn  file "D:/ti/motorware/motorware_1_01_00_18/sw/drivers/adc/src/32b/f28x/f2802x/adc.c",line 321
    1049              
    1050                      .dwfde $C$DW$CIE, _ADC_setIntSrc
    1051              $C$DW$77        .dwtag  DW_TAG_formal_parameter
    1052                      .dwattr $C$DW$77, DW_AT_name("adcHandle")
    1053                      .dwattr $C$DW$77, DW_AT_TI_symbol_name("_adcHandle")
    1054                      .dwattr $C$DW$77, DW_AT_type(*$C$DW$T$71)
    1055                      .dwattr $C$DW$77, DW_AT_location[DW_OP_reg12]
    1056              
    1057              $C$DW$78        .dwtag  DW_TAG_formal_parameter
    1058                      .dwattr $C$DW$78, DW_AT_name("intNumber")
    1059                      .dwattr $C$DW$78, DW_AT_TI_symbol_name("_intNumber")
    1060                      .dwattr $C$DW$78, DW_AT_type(*$C$DW$T$29)
    1061                      .dwattr $C$DW$78, DW_AT_location[DW_OP_reg0]
    1062              
    1063              $C$DW$79        .dwtag  DW_TAG_formal_parameter
    1064                      .dwattr $C$DW$79, DW_AT_name("intSrc")
    1065                      .dwattr $C$DW$79, DW_AT_TI_symbol_name("_intSrc")
    1066                      .dwattr $C$DW$79, DW_AT_type(*$C$DW$T$41)
    1067                      .dwattr $C$DW$79, DW_AT_location[DW_OP_reg1]
    1068              
    1069              
TMS320C2000 Assembler PC v18.1.2 Sun Jun 17 14:52:02 2018

Tools Copyright (c) 1996-2017 Texas Instruments Incorporated
C:\Users\haowp\AppData\Local\Temp\{90C17AA4-2C03-4A74-A215-B08F3B065D28} PAGE   21

    1070              ;***************************************************************
    1071              ;* FNAME: _ADC_setIntSrc                FR SIZE:   0           *
    1072              ;*                                                             *
    1073              ;* FUNCTION ENVIRONMENT                                        *
    1074              ;*                                                             *
    1075              ;* FUNCTION PROPERTIES                                         *
    1076              ;*                            0 Parameter,  0 Auto,  0 SOE     *
    1077              ;***************************************************************
    1078              
    1079              _ADC_setIntSrc:
    1080              ;* AR4   assigned to $O$C1
    1081              ;* T     assigned to $O$C2
    1082              ;* AR6   assigned to _intNumber
    1083              $C$DW$80        .dwtag  DW_TAG_variable
    1084                      .dwattr $C$DW$80, DW_AT_name("intNumber")
    1085                      .dwattr $C$DW$80, DW_AT_TI_symbol_name("_intNumber")
    1086                      .dwattr $C$DW$80, DW_AT_type(*$C$DW$T$30)
    1087                      .dwattr $C$DW$80, DW_AT_location[DW_OP_reg16]
    1088              
    1089              ;* AR7   assigned to _intSrc
    1090              $C$DW$81        .dwtag  DW_TAG_variable
    1091                      .dwattr $C$DW$81, DW_AT_name("intSrc")
    1092                      .dwattr $C$DW$81, DW_AT_TI_symbol_name("_intSrc")
    1093                      .dwattr $C$DW$81, DW_AT_type(*$C$DW$T$42)
    1094                      .dwattr $C$DW$81, DW_AT_location[DW_OP_reg18]
    1095              
    1096                      .dwcfi  cfa_offset, -2
    1097                      .dwcfi  save_reg_to_mem, 26, 0
    1098 000000cb 88A9          MOVZ      AR6,AL                ; [CPU_ALU] |321| 
    1099 000000cc 80A8          MOVZ      AR7,AH                ; [CPU_ALU] |321| 
    1100 000000cd 7622   EALLOW
    1101                      .dwpsn  file "D:/ti/motorware/motorware_1_01_00_18/sw/drivers/adc/src/32b/f28x/f2802x/adc.c",line 333
    1102 000000ce 28AC          MOV       T,#8                  ; [CPU_ALU] |333| 
         000000cf 0008 
    1103 000000d0 5603          MOV       ACC,AR6 << #3         ; [CPU_ALU] |333| 
         000000d1 03A6 
    1104 000000d2 F00F          XORB      AL,#0x0f              ; [CPU_ALU] |333| 
    1105 000000d3 9008          ANDB      AL,#0x08              ; [CPU_ALU] |333| 
    1106 000000d4 74AC          SUB       T,AL                  ; [CPU_ALU] |333| 
    1107 000000d5 92A6          MOV       AL,AR6                ; [CPU_ALU] |333| 
    1108 000000d6 FFC0          LSR       AL,1                  ; [CPU_ALU] |333| 
    1109 000000d7 88A9          MOVZ      AR6,AL                ; [CPU_ALU] |333| 
    1110 000000d8 A8A9          MOVL      ACC,XAR4              ; [CPU_ALU] |333| 
    1111 000000d9 0DA6          ADDU      ACC,AR6               ; [CPU_ALU] |333| 
    1112 000000da 8AA9          MOVL      XAR4,ACC              ; [CPU_ALU] |333| 
    1113 000000db FF13          ADD       ACC,#3265 << 3        ; [CPU_ALU] |333| 
         000000dc 0CC1 
    1114 000000dd 83A9          MOVL      XAR5,ACC              ; [CPU_ALU] |333| 
    1115 000000de 9A1F          MOVB      AL,#31                ; [CPU_ALU] |333| 
    1116 000000df FF66          LSL       AL,T                  ; [CPU_ALU] |333| 
    1117 000000e0 FF5E          NOT       AL                    ; [CPU_ALU] |333| 
    1118 000000e1 C0C5          AND       *+XAR5[0],AL          ; [CPU_ALU] |333| 
    1119                      .dwpsn  file "D:/ti/motorware/motorware_1_01_00_18/sw/drivers/adc/src/32b/f28x/f2802x/adc.c",line 337
    1120 000000e2 A8A9          MOVL      ACC,XAR4              ; [CPU_ALU] |337| 
    1121 000000e3 FF13          ADD       ACC,#3265 << 3        ; [CPU_ALU] |337| 
TMS320C2000 Assembler PC v18.1.2 Sun Jun 17 14:52:02 2018

Tools Copyright (c) 1996-2017 Texas Instruments Incorporated
C:\Users\haowp\AppData\Local\Temp\{90C17AA4-2C03-4A74-A215-B08F3B065D28} PAGE   22

         000000e4 0CC1 
    1122 000000e5 8AA9          MOVL      XAR4,ACC              ; [CPU_ALU] |337| 
    1123 000000e6 92A7          MOV       AL,AR7                ; [CPU_ALU] |337| 
    1124 000000e7 FF66          LSL       AL,T                  ; [CPU_ALU] |337| 
    1125 000000e8 98C4          OR        *+XAR4[0],AL          ; [CPU_ALU] |337| 
    1126 000000e9 761A   EDIS
    1127 000000ea FF69          SPM       #0                    ; [CPU_ALU] 
    1128              $C$DW$82        .dwtag  DW_TAG_TI_branch
    1129                      .dwattr $C$DW$82, DW_AT_low_pc(0x00)
    1130                      .dwattr $C$DW$82, DW_AT_TI_return
    1131              
    1132 000000eb 0006          LRETR     ; [CPU_ALU] 
    1133                      ; return occurs ; [] 
    1134                      .dwattr $C$DW$76, DW_AT_TI_end_file("D:/ti/motorware/motorware_1_01_00_18/sw/drivers/adc/src/32b/f28x
    1135                      .dwattr $C$DW$76, DW_AT_TI_end_line(0x157)
    1136                      .dwattr $C$DW$76, DW_AT_TI_end_column(0x01)
    1137                      .dwendentry
    1138                      .dwendtag $C$DW$76
    1139              
    1140 000000ec               .sect   ".text"
    1141                      .clink
    1142                      .global _ADC_setIntPulseGenMode
    1143              
    1144              $C$DW$83        .dwtag  DW_TAG_subprogram
    1145                      .dwattr $C$DW$83, DW_AT_name("ADC_setIntPulseGenMode")
    1146                      .dwattr $C$DW$83, DW_AT_low_pc(_ADC_setIntPulseGenMode)
    1147                      .dwattr $C$DW$83, DW_AT_high_pc(0x00)
    1148                      .dwattr $C$DW$83, DW_AT_TI_symbol_name("_ADC_setIntPulseGenMode")
    1149                      .dwattr $C$DW$83, DW_AT_external
    1150                      .dwattr $C$DW$83, DW_AT_TI_begin_file("D:/ti/motorware/motorware_1_01_00_18/sw/drivers/adc/src/32b/f2
    1151                      .dwattr $C$DW$83, DW_AT_TI_begin_line(0x12c)
    1152                      .dwattr $C$DW$83, DW_AT_TI_begin_column(0x06)
    1153                      .dwattr $C$DW$83, DW_AT_TI_max_frame_size(-2)
    1154                      .dwpsn  file "D:/ti/motorware/motorware_1_01_00_18/sw/drivers/adc/src/32b/f28x/f2802x/adc.c",line 301
    1155              
    1156                      .dwfde $C$DW$CIE, _ADC_setIntPulseGenMode
    1157              $C$DW$84        .dwtag  DW_TAG_formal_parameter
    1158                      .dwattr $C$DW$84, DW_AT_name("adcHandle")
    1159                      .dwattr $C$DW$84, DW_AT_TI_symbol_name("_adcHandle")
    1160                      .dwattr $C$DW$84, DW_AT_type(*$C$DW$T$71)
    1161                      .dwattr $C$DW$84, DW_AT_location[DW_OP_reg12]
    1162              
    1163              $C$DW$85        .dwtag  DW_TAG_formal_parameter
    1164                      .dwattr $C$DW$85, DW_AT_name("pulseMode")
    1165                      .dwattr $C$DW$85, DW_AT_TI_symbol_name("_pulseMode")
    1166                      .dwattr $C$DW$85, DW_AT_type(*$C$DW$T$38)
    1167                      .dwattr $C$DW$85, DW_AT_location[DW_OP_reg0]
    1168              
    1169              
    1170              ;***************************************************************
    1171              ;* FNAME: _ADC_setIntPulseGenMode       FR SIZE:   0           *
    1172              ;*                                                             *
    1173              ;* FUNCTION ENVIRONMENT                                        *
    1174              ;*                                                             *
    1175              ;* FUNCTION PROPERTIES                                         *
TMS320C2000 Assembler PC v18.1.2 Sun Jun 17 14:52:02 2018

Tools Copyright (c) 1996-2017 Texas Instruments Incorporated
C:\Users\haowp\AppData\Local\Temp\{90C17AA4-2C03-4A74-A215-B08F3B065D28} PAGE   23

    1176              ;*                            0 Parameter,  0 Auto,  0 SOE     *
    1177              ;***************************************************************
    1178              
    1179              _ADC_setIntPulseGenMode:
    1180              ;* AR4   assigned to _adcHandle
    1181              $C$DW$86        .dwtag  DW_TAG_variable
    1182                      .dwattr $C$DW$86, DW_AT_name("adcHandle")
    1183                      .dwattr $C$DW$86, DW_AT_TI_symbol_name("_adcHandle")
    1184                      .dwattr $C$DW$86, DW_AT_type(*$C$DW$T$78)
    1185                      .dwattr $C$DW$86, DW_AT_location[DW_OP_reg12]
    1186              
    1187              ;* AR6   assigned to _pulseMode
    1188              $C$DW$87        .dwtag  DW_TAG_variable
    1189                      .dwattr $C$DW$87, DW_AT_name("pulseMode")
    1190                      .dwattr $C$DW$87, DW_AT_TI_symbol_name("_pulseMode")
    1191                      .dwattr $C$DW$87, DW_AT_type(*$C$DW$T$39)
    1192                      .dwattr $C$DW$87, DW_AT_location[DW_OP_reg16]
    1193              
    1194                      .dwcfi  cfa_offset, -2
    1195                      .dwcfi  save_reg_to_mem, 26, 0
    1196 000000ec 88A9          MOVZ      AR6,AL                ; [CPU_ALU] |301| 
    1197 000000ed 7622   EALLOW
    1198                      .dwpsn  file "D:/ti/motorware/motorware_1_01_00_18/sw/drivers/adc/src/32b/f28x/f2802x/adc.c",line 308
    1199 000000ee A8A9          MOVL      ACC,XAR4              ; [CPU_ALU] |308| 
    1200 000000ef FF19          ADD       ACC,#51 << 9          ; [CPU_ALU] |308| 
         000000f0 0033 
    1201 000000f1 83A9          MOVL      XAR5,ACC              ; [CPU_ALU] |308| 
    1202                      .dwpsn  file "D:/ti/motorware/motorware_1_01_00_18/sw/drivers/adc/src/32b/f28x/f2802x/adc.c",line 312
    1203 000000f2 A8A9          MOVL      ACC,XAR4              ; [CPU_ALU] |312| 
    1204 000000f3 FF19          ADD       ACC,#51 << 9          ; [CPU_ALU] |312| 
         000000f4 0033 
    1205 000000f5 8AA9          MOVL      XAR4,ACC              ; [CPU_ALU] |312| 
    1206                      .dwpsn  file "D:/ti/motorware/motorware_1_01_00_18/sw/drivers/adc/src/32b/f28x/f2802x/adc.c",line 308
    1207 000000f6 18C5          AND       *+XAR5[0],#0xfffb     ; [CPU_ALU] |308| 
         000000f7 FFFB 
    1208                      .dwpsn  file "D:/ti/motorware/motorware_1_01_00_18/sw/drivers/adc/src/32b/f28x/f2802x/adc.c",line 312
    1209 000000f8 92A6          MOV       AL,AR6                ; [CPU_ALU] |312| 
    1210 000000f9 98C4          OR        *+XAR4[0],AL          ; [CPU_ALU] |312| 
    1211 000000fa 761A   EDIS
    1212 000000fb FF69          SPM       #0                    ; [CPU_ALU] 
    1213              $C$DW$88        .dwtag  DW_TAG_TI_branch
    1214                      .dwattr $C$DW$88, DW_AT_low_pc(0x00)
    1215                      .dwattr $C$DW$88, DW_AT_TI_return
    1216              
    1217 000000fc 0006          LRETR     ; [CPU_ALU] 
    1218                      ; return occurs ; [] 
    1219                      .dwattr $C$DW$83, DW_AT_TI_end_file("D:/ti/motorware/motorware_1_01_00_18/sw/drivers/adc/src/32b/f28x
    1220                      .dwattr $C$DW$83, DW_AT_TI_end_line(0x13d)
    1221                      .dwattr $C$DW$83, DW_AT_TI_end_column(0x01)
    1222                      .dwendentry
    1223                      .dwendtag $C$DW$83
    1224              
    1225 000000fd               .sect   ".text"
    1226                      .clink
    1227                      .global _ADC_setIntMode
TMS320C2000 Assembler PC v18.1.2 Sun Jun 17 14:52:02 2018

Tools Copyright (c) 1996-2017 Texas Instruments Incorporated
C:\Users\haowp\AppData\Local\Temp\{90C17AA4-2C03-4A74-A215-B08F3B065D28} PAGE   24

    1228              
    1229              $C$DW$89        .dwtag  DW_TAG_subprogram
    1230                      .dwattr $C$DW$89, DW_AT_name("ADC_setIntMode")
    1231                      .dwattr $C$DW$89, DW_AT_low_pc(_ADC_setIntMode)
    1232                      .dwattr $C$DW$89, DW_AT_high_pc(0x00)
    1233                      .dwattr $C$DW$89, DW_AT_TI_symbol_name("_ADC_setIntMode")
    1234                      .dwattr $C$DW$89, DW_AT_external
    1235                      .dwattr $C$DW$89, DW_AT_TI_begin_file("D:/ti/motorware/motorware_1_01_00_18/sw/drivers/adc/src/32b/f2
    1236                      .dwattr $C$DW$89, DW_AT_TI_begin_line(0x114)
    1237                      .dwattr $C$DW$89, DW_AT_TI_begin_column(0x06)
    1238                      .dwattr $C$DW$89, DW_AT_TI_max_frame_size(-2)
    1239                      .dwpsn  file "D:/ti/motorware/motorware_1_01_00_18/sw/drivers/adc/src/32b/f28x/f2802x/adc.c",line 277
    1240              
    1241                      .dwfde $C$DW$CIE, _ADC_setIntMode
    1242              $C$DW$90        .dwtag  DW_TAG_formal_parameter
    1243                      .dwattr $C$DW$90, DW_AT_name("adcHandle")
    1244                      .dwattr $C$DW$90, DW_AT_TI_symbol_name("_adcHandle")
    1245                      .dwattr $C$DW$90, DW_AT_type(*$C$DW$T$71)
    1246                      .dwattr $C$DW$90, DW_AT_location[DW_OP_reg12]
    1247              
    1248              $C$DW$91        .dwtag  DW_TAG_formal_parameter
    1249                      .dwattr $C$DW$91, DW_AT_name("intNumber")
    1250                      .dwattr $C$DW$91, DW_AT_TI_symbol_name("_intNumber")
    1251                      .dwattr $C$DW$91, DW_AT_type(*$C$DW$T$29)
    1252                      .dwattr $C$DW$91, DW_AT_location[DW_OP_reg0]
    1253              
    1254              $C$DW$92        .dwtag  DW_TAG_formal_parameter
    1255                      .dwattr $C$DW$92, DW_AT_name("intMode")
    1256                      .dwattr $C$DW$92, DW_AT_TI_symbol_name("_intMode")
    1257                      .dwattr $C$DW$92, DW_AT_type(*$C$DW$T$35)
    1258                      .dwattr $C$DW$92, DW_AT_location[DW_OP_reg1]
    1259              
    1260              
    1261              ;***************************************************************
    1262              ;* FNAME: _ADC_setIntMode               FR SIZE:   0           *
    1263              ;*                                                             *
    1264              ;* FUNCTION ENVIRONMENT                                        *
    1265              ;*                                                             *
    1266              ;* FUNCTION PROPERTIES                                         *
    1267              ;*                            0 Parameter,  0 Auto,  0 SOE     *
    1268              ;***************************************************************
    1269              
    1270              _ADC_setIntMode:
    1271              ;* AR4   assigned to $O$C1
    1272              ;* T     assigned to $O$C2
    1273              ;* AR6   assigned to _intNumber
    1274              $C$DW$93        .dwtag  DW_TAG_variable
    1275                      .dwattr $C$DW$93, DW_AT_name("intNumber")
    1276                      .dwattr $C$DW$93, DW_AT_TI_symbol_name("_intNumber")
    1277                      .dwattr $C$DW$93, DW_AT_type(*$C$DW$T$30)
    1278                      .dwattr $C$DW$93, DW_AT_location[DW_OP_reg16]
    1279              
    1280              ;* AR7   assigned to _intMode
    1281              $C$DW$94        .dwtag  DW_TAG_variable
    1282                      .dwattr $C$DW$94, DW_AT_name("intMode")
TMS320C2000 Assembler PC v18.1.2 Sun Jun 17 14:52:02 2018

Tools Copyright (c) 1996-2017 Texas Instruments Incorporated
C:\Users\haowp\AppData\Local\Temp\{90C17AA4-2C03-4A74-A215-B08F3B065D28} PAGE   25

    1283                      .dwattr $C$DW$94, DW_AT_TI_symbol_name("_intMode")
    1284                      .dwattr $C$DW$94, DW_AT_type(*$C$DW$T$36)
    1285                      .dwattr $C$DW$94, DW_AT_location[DW_OP_reg18]
    1286              
    1287                      .dwcfi  cfa_offset, -2
    1288                      .dwcfi  save_reg_to_mem, 26, 0
    1289 000000fd 88A9          MOVZ      AR6,AL                ; [CPU_ALU] |277| 
    1290 000000fe 80A8          MOVZ      AR7,AH                ; [CPU_ALU] |277| 
    1291 000000ff 7622   EALLOW
    1292                      .dwpsn  file "D:/ti/motorware/motorware_1_01_00_18/sw/drivers/adc/src/32b/f28x/f2802x/adc.c",line 288
    1293 00000100 28AC          MOV       T,#8                  ; [CPU_ALU] |288| 
         00000101 0008 
    1294 00000102 5603          MOV       ACC,AR6 << #3         ; [CPU_ALU] |288| 
         00000103 03A6 
    1295 00000104 F00F          XORB      AL,#0x0f              ; [CPU_ALU] |288| 
    1296 00000105 9008          ANDB      AL,#0x08              ; [CPU_ALU] |288| 
    1297 00000106 74AC          SUB       T,AL                  ; [CPU_ALU] |288| 
    1298 00000107 92A6          MOV       AL,AR6                ; [CPU_ALU] |288| 
    1299 00000108 FFC0          LSR       AL,1                  ; [CPU_ALU] |288| 
    1300 00000109 88A9          MOVZ      AR6,AL                ; [CPU_ALU] |288| 
    1301 0000010a A8A9          MOVL      ACC,XAR4              ; [CPU_ALU] |288| 
    1302 0000010b 0DA6          ADDU      ACC,AR6               ; [CPU_ALU] |288| 
    1303 0000010c 8AA9          MOVL      XAR4,ACC              ; [CPU_ALU] |288| 
    1304 0000010d FF13          ADD       ACC,#3265 << 3        ; [CPU_ALU] |288| 
         0000010e 0CC1 
    1305 0000010f 83A9          MOVL      XAR5,ACC              ; [CPU_ALU] |288| 
    1306 00000110 9A40          MOVB      AL,#64                ; [CPU_ALU] |288| 
    1307 00000111 FF66          LSL       AL,T                  ; [CPU_ALU] |288| 
    1308 00000112 FF5E          NOT       AL                    ; [CPU_ALU] |288| 
    1309 00000113 C0C5          AND       *+XAR5[0],AL          ; [CPU_ALU] |288| 
    1310                      .dwpsn  file "D:/ti/motorware/motorware_1_01_00_18/sw/drivers/adc/src/32b/f28x/f2802x/adc.c",line 292
    1311 00000114 A8A9          MOVL      ACC,XAR4              ; [CPU_ALU] |292| 
    1312 00000115 FF13          ADD       ACC,#3265 << 3        ; [CPU_ALU] |292| 
         00000116 0CC1 
    1313 00000117 8AA9          MOVL      XAR4,ACC              ; [CPU_ALU] |292| 
    1314 00000118 92A7          MOV       AL,AR7                ; [CPU_ALU] |292| 
    1315 00000119 FF66          LSL       AL,T                  ; [CPU_ALU] |292| 
    1316 0000011a 98C4          OR        *+XAR4[0],AL          ; [CPU_ALU] |292| 
    1317 0000011b 761A   EDIS
    1318 0000011c FF69          SPM       #0                    ; [CPU_ALU] 
    1319              $C$DW$95        .dwtag  DW_TAG_TI_branch
    1320                      .dwattr $C$DW$95, DW_AT_low_pc(0x00)
    1321                      .dwattr $C$DW$95, DW_AT_TI_return
    1322              
    1323 0000011d 0006          LRETR     ; [CPU_ALU] 
    1324                      ; return occurs ; [] 
    1325                      .dwattr $C$DW$89, DW_AT_TI_end_file("D:/ti/motorware/motorware_1_01_00_18/sw/drivers/adc/src/32b/f28x
    1326                      .dwattr $C$DW$89, DW_AT_TI_end_line(0x129)
    1327                      .dwattr $C$DW$89, DW_AT_TI_end_column(0x01)
    1328                      .dwendentry
    1329                      .dwendtag $C$DW$89
    1330              
    1331 0000011e               .sect   ".text"
    1332                      .clink
    1333                      .global _ADC_setDivideSelect
TMS320C2000 Assembler PC v18.1.2 Sun Jun 17 14:52:02 2018

Tools Copyright (c) 1996-2017 Texas Instruments Incorporated
C:\Users\haowp\AppData\Local\Temp\{90C17AA4-2C03-4A74-A215-B08F3B065D28} PAGE   26

    1334              
    1335              $C$DW$96        .dwtag  DW_TAG_subprogram
    1336                      .dwattr $C$DW$96, DW_AT_name("ADC_setDivideSelect")
    1337                      .dwattr $C$DW$96, DW_AT_low_pc(_ADC_setDivideSelect)
    1338                      .dwattr $C$DW$96, DW_AT_high_pc(0x00)
    1339                      .dwattr $C$DW$96, DW_AT_TI_symbol_name("_ADC_setDivideSelect")
    1340                      .dwattr $C$DW$96, DW_AT_external
    1341                      .dwattr $C$DW$96, DW_AT_TI_begin_file("D:/ti/motorware/motorware_1_01_00_18/sw/drivers/adc/src/32b/f2
    1342                      .dwattr $C$DW$96, DW_AT_TI_begin_line(0x202)
    1343                      .dwattr $C$DW$96, DW_AT_TI_begin_column(0x06)
    1344                      .dwattr $C$DW$96, DW_AT_TI_max_frame_size(-2)
    1345                      .dwpsn  file "D:/ti/motorware/motorware_1_01_00_18/sw/drivers/adc/src/32b/f28x/f2802x/adc.c",line 515
    1346              
    1347                      .dwfde $C$DW$CIE, _ADC_setDivideSelect
    1348              $C$DW$97        .dwtag  DW_TAG_formal_parameter
    1349                      .dwattr $C$DW$97, DW_AT_name("adcHandle")
    1350                      .dwattr $C$DW$97, DW_AT_TI_symbol_name("_adcHandle")
    1351                      .dwattr $C$DW$97, DW_AT_type(*$C$DW$T$71)
    1352                      .dwattr $C$DW$97, DW_AT_location[DW_OP_reg12]
    1353              
    1354              $C$DW$98        .dwtag  DW_TAG_formal_parameter
    1355                      .dwattr $C$DW$98, DW_AT_name("divSelect")
    1356                      .dwattr $C$DW$98, DW_AT_TI_symbol_name("_divSelect")
    1357                      .dwattr $C$DW$98, DW_AT_type(*$C$DW$T$68)
    1358                      .dwattr $C$DW$98, DW_AT_location[DW_OP_reg0]
    1359              
    1360              
    1361              ;***************************************************************
    1362              ;* FNAME: _ADC_setDivideSelect          FR SIZE:   0           *
    1363              ;*                                                             *
    1364              ;* FUNCTION ENVIRONMENT                                        *
    1365              ;*                                                             *
    1366              ;* FUNCTION PROPERTIES                                         *
    1367              ;*                            0 Parameter,  0 Auto,  0 SOE     *
    1368              ;***************************************************************
    1369              
    1370              _ADC_setDivideSelect:
    1371              ;* AR4   assigned to _adcHandle
    1372              $C$DW$99        .dwtag  DW_TAG_variable
    1373                      .dwattr $C$DW$99, DW_AT_name("adcHandle")
    1374                      .dwattr $C$DW$99, DW_AT_TI_symbol_name("_adcHandle")
    1375                      .dwattr $C$DW$99, DW_AT_type(*$C$DW$T$78)
    1376                      .dwattr $C$DW$99, DW_AT_location[DW_OP_reg12]
    1377              
    1378              ;* AR6   assigned to _divSelect
    1379              $C$DW$100       .dwtag  DW_TAG_variable
    1380                      .dwattr $C$DW$100, DW_AT_name("divSelect")
    1381                      .dwattr $C$DW$100, DW_AT_TI_symbol_name("_divSelect")
    1382                      .dwattr $C$DW$100, DW_AT_type(*$C$DW$T$69)
    1383                      .dwattr $C$DW$100, DW_AT_location[DW_OP_reg16]
    1384              
    1385                      .dwcfi  cfa_offset, -2
    1386                      .dwcfi  save_reg_to_mem, 26, 0
    1387 0000011e 88A9          MOVZ      AR6,AL                ; [CPU_ALU] |515| 
    1388 0000011f 7622   EALLOW
TMS320C2000 Assembler PC v18.1.2 Sun Jun 17 14:52:02 2018

Tools Copyright (c) 1996-2017 Texas Instruments Incorporated
C:\Users\haowp\AppData\Local\Temp\{90C17AA4-2C03-4A74-A215-B08F3B065D28} PAGE   27

    1389                      .dwpsn  file "D:/ti/motorware/motorware_1_01_00_18/sw/drivers/adc/src/32b/f28x/f2802x/adc.c",line 522
    1390 00000120 A8A9          MOVL      ACC,XAR4              ; [CPU_ALU] |522| 
    1391 00000121 FF10          ADD       ACC,#26113 << 0       ; [CPU_ALU] |522| 
         00000122 6601 
    1392 00000123 83A9          MOVL      XAR5,ACC              ; [CPU_ALU] |522| 
    1393                      .dwpsn  file "D:/ti/motorware/motorware_1_01_00_18/sw/drivers/adc/src/32b/f28x/f2802x/adc.c",line 526
    1394 00000124 A8A9          MOVL      ACC,XAR4              ; [CPU_ALU] |526| 
    1395 00000125 FF10          ADD       ACC,#26113 << 0       ; [CPU_ALU] |526| 
         00000126 6601 
    1396 00000127 8AA9          MOVL      XAR4,ACC              ; [CPU_ALU] |526| 
    1397                      .dwpsn  file "D:/ti/motorware/motorware_1_01_00_18/sw/drivers/adc/src/32b/f28x/f2802x/adc.c",line 522
    1398 00000128 18C5          AND       *+XAR5[0],#0xfffe     ; [CPU_ALU] |522| 
         00000129 FFFE 
    1399                      .dwpsn  file "D:/ti/motorware/motorware_1_01_00_18/sw/drivers/adc/src/32b/f28x/f2802x/adc.c",line 526
    1400 0000012a 92A6          MOV       AL,AR6                ; [CPU_ALU] |526| 
    1401 0000012b 98C4          OR        *+XAR4[0],AL          ; [CPU_ALU] |526| 
    1402 0000012c 761A   EDIS
    1403 0000012d FF69          SPM       #0                    ; [CPU_ALU] 
    1404              $C$DW$101       .dwtag  DW_TAG_TI_branch
    1405                      .dwattr $C$DW$101, DW_AT_low_pc(0x00)
    1406                      .dwattr $C$DW$101, DW_AT_TI_return
    1407              
    1408 0000012e 0006          LRETR     ; [CPU_ALU] 
    1409                      ; return occurs ; [] 
    1410                      .dwattr $C$DW$96, DW_AT_TI_end_file("D:/ti/motorware/motorware_1_01_00_18/sw/drivers/adc/src/32b/f28x
    1411                      .dwattr $C$DW$96, DW_AT_TI_end_line(0x213)
    1412                      .dwattr $C$DW$96, DW_AT_TI_end_column(0x01)
    1413                      .dwendentry
    1414                      .dwendtag $C$DW$96
    1415              
    1416 0000012f               .sect   ".text"
    1417                      .clink
    1418                      .global _ADC_reset
    1419              
    1420              $C$DW$102       .dwtag  DW_TAG_subprogram
    1421                      .dwattr $C$DW$102, DW_AT_name("ADC_reset")
    1422                      .dwattr $C$DW$102, DW_AT_low_pc(_ADC_reset)
    1423                      .dwattr $C$DW$102, DW_AT_high_pc(0x00)
    1424                      .dwattr $C$DW$102, DW_AT_TI_symbol_name("_ADC_reset")
    1425                      .dwattr $C$DW$102, DW_AT_external
    1426                      .dwattr $C$DW$102, DW_AT_TI_begin_file("D:/ti/motorware/motorware_1_01_00_18/sw/drivers/adc/src/32b/f
    1427                      .dwattr $C$DW$102, DW_AT_TI_begin_line(0xf1)
    1428                      .dwattr $C$DW$102, DW_AT_TI_begin_column(0x06)
    1429                      .dwattr $C$DW$102, DW_AT_TI_max_frame_size(-2)
    1430                      .dwpsn  file "D:/ti/motorware/motorware_1_01_00_18/sw/drivers/adc/src/32b/f28x/f2802x/adc.c",line 242
    1431              
    1432                      .dwfde $C$DW$CIE, _ADC_reset
    1433              $C$DW$103       .dwtag  DW_TAG_formal_parameter
    1434                      .dwattr $C$DW$103, DW_AT_name("adcHandle")
    1435                      .dwattr $C$DW$103, DW_AT_TI_symbol_name("_adcHandle")
    1436                      .dwattr $C$DW$103, DW_AT_type(*$C$DW$T$71)
    1437                      .dwattr $C$DW$103, DW_AT_location[DW_OP_reg12]
    1438              
    1439              
    1440              ;***************************************************************
TMS320C2000 Assembler PC v18.1.2 Sun Jun 17 14:52:02 2018

Tools Copyright (c) 1996-2017 Texas Instruments Incorporated
C:\Users\haowp\AppData\Local\Temp\{90C17AA4-2C03-4A74-A215-B08F3B065D28} PAGE   28

    1441              ;* FNAME: _ADC_reset                    FR SIZE:   0           *
    1442              ;*                                                             *
    1443              ;* FUNCTION ENVIRONMENT                                        *
    1444              ;*                                                             *
    1445              ;* FUNCTION PROPERTIES                                         *
    1446              ;*                            0 Parameter,  0 Auto,  0 SOE     *
    1447              ;***************************************************************
    1448              
    1449              _ADC_reset:
    1450              ;* AR4   assigned to _adcHandle
    1451              $C$DW$104       .dwtag  DW_TAG_variable
    1452                      .dwattr $C$DW$104, DW_AT_name("adcHandle")
    1453                      .dwattr $C$DW$104, DW_AT_TI_symbol_name("_adcHandle")
    1454                      .dwattr $C$DW$104, DW_AT_type(*$C$DW$T$78)
    1455                      .dwattr $C$DW$104, DW_AT_location[DW_OP_reg12]
    1456              
    1457                      .dwcfi  cfa_offset, -2
    1458                      .dwcfi  save_reg_to_mem, 26, 0
    1459 0000012f 7622   EALLOW
    1460                      .dwpsn  file "D:/ti/motorware/motorware_1_01_00_18/sw/drivers/adc/src/32b/f28x/f2802x/adc.c",line 249
    1461 00000130 A8A9          MOVL      ACC,XAR4              ; [CPU_ALU] |249| 
    1462 00000131 FF19          ADD       ACC,#51 << 9          ; [CPU_ALU] |249| 
         00000132 0033 
    1463 00000133 8AA9          MOVL      XAR4,ACC              ; [CPU_ALU] |249| 
    1464 00000134 1AC4          OR        *+XAR4[0],#0x8000     ; [CPU_ALU] |249| 
         00000135 8000 
    1465 00000136 761A   EDIS
    1466 00000137 FF69          SPM       #0                    ; [CPU_ALU] 
    1467              $C$DW$105       .dwtag  DW_TAG_TI_branch
    1468                      .dwattr $C$DW$105, DW_AT_low_pc(0x00)
    1469                      .dwattr $C$DW$105, DW_AT_TI_return
    1470              
    1471 00000138 0006          LRETR     ; [CPU_ALU] 
    1472                      ; return occurs ; [] 
    1473                      .dwattr $C$DW$102, DW_AT_TI_end_file("D:/ti/motorware/motorware_1_01_00_18/sw/drivers/adc/src/32b/f28
    1474                      .dwattr $C$DW$102, DW_AT_TI_end_line(0xfe)
    1475                      .dwattr $C$DW$102, DW_AT_TI_end_column(0x01)
    1476                      .dwendentry
    1477                      .dwendtag $C$DW$102
    1478              
    1479 00000139               .sect   ".text"
    1480                      .clink
    1481                      .global _ADC_powerUp
    1482              
    1483              $C$DW$106       .dwtag  DW_TAG_subprogram
    1484                      .dwattr $C$DW$106, DW_AT_name("ADC_powerUp")
    1485                      .dwattr $C$DW$106, DW_AT_low_pc(_ADC_powerUp)
    1486                      .dwattr $C$DW$106, DW_AT_high_pc(0x00)
    1487                      .dwattr $C$DW$106, DW_AT_TI_symbol_name("_ADC_powerUp")
    1488                      .dwattr $C$DW$106, DW_AT_external
    1489                      .dwattr $C$DW$106, DW_AT_TI_begin_file("D:/ti/motorware/motorware_1_01_00_18/sw/drivers/adc/src/32b/f
    1490                      .dwattr $C$DW$106, DW_AT_TI_begin_line(0xe1)
    1491                      .dwattr $C$DW$106, DW_AT_TI_begin_column(0x06)
    1492                      .dwattr $C$DW$106, DW_AT_TI_max_frame_size(-2)
    1493                      .dwpsn  file "D:/ti/motorware/motorware_1_01_00_18/sw/drivers/adc/src/32b/f28x/f2802x/adc.c",line 226
TMS320C2000 Assembler PC v18.1.2 Sun Jun 17 14:52:02 2018

Tools Copyright (c) 1996-2017 Texas Instruments Incorporated
C:\Users\haowp\AppData\Local\Temp\{90C17AA4-2C03-4A74-A215-B08F3B065D28} PAGE   29

    1494              
    1495                      .dwfde $C$DW$CIE, _ADC_powerUp
    1496              $C$DW$107       .dwtag  DW_TAG_formal_parameter
    1497                      .dwattr $C$DW$107, DW_AT_name("adcHandle")
    1498                      .dwattr $C$DW$107, DW_AT_TI_symbol_name("_adcHandle")
    1499                      .dwattr $C$DW$107, DW_AT_type(*$C$DW$T$71)
    1500                      .dwattr $C$DW$107, DW_AT_location[DW_OP_reg12]
    1501              
    1502              
    1503              ;***************************************************************
    1504              ;* FNAME: _ADC_powerUp                  FR SIZE:   0           *
    1505              ;*                                                             *
    1506              ;* FUNCTION ENVIRONMENT                                        *
    1507              ;*                                                             *
    1508              ;* FUNCTION PROPERTIES                                         *
    1509              ;*                            0 Parameter,  0 Auto,  0 SOE     *
    1510              ;***************************************************************
    1511              
    1512              _ADC_powerUp:
    1513              ;* AR4   assigned to _adcHandle
    1514              $C$DW$108       .dwtag  DW_TAG_variable
    1515                      .dwattr $C$DW$108, DW_AT_name("adcHandle")
    1516                      .dwattr $C$DW$108, DW_AT_TI_symbol_name("_adcHandle")
    1517                      .dwattr $C$DW$108, DW_AT_type(*$C$DW$T$78)
    1518                      .dwattr $C$DW$108, DW_AT_location[DW_OP_reg12]
    1519              
    1520                      .dwcfi  cfa_offset, -2
    1521                      .dwcfi  save_reg_to_mem, 26, 0
    1522 00000139 7622   EALLOW
    1523                      .dwpsn  file "D:/ti/motorware/motorware_1_01_00_18/sw/drivers/adc/src/32b/f28x/f2802x/adc.c",line 233
    1524 0000013a A8A9          MOVL      ACC,XAR4              ; [CPU_ALU] |233| 
    1525 0000013b FF19          ADD       ACC,#51 << 9          ; [CPU_ALU] |233| 
         0000013c 0033 
    1526 0000013d 8AA9          MOVL      XAR4,ACC              ; [CPU_ALU] |233| 
    1527 0000013e 1AC4          OR        *+XAR4[0],#0x0080     ; [CPU_ALU] |233| 
         0000013f 0080 
    1528 00000140 761A   EDIS
    1529 00000141 FF69          SPM       #0                    ; [CPU_ALU] 
    1530              $C$DW$109       .dwtag  DW_TAG_TI_branch
    1531                      .dwattr $C$DW$109, DW_AT_low_pc(0x00)
    1532                      .dwattr $C$DW$109, DW_AT_TI_return
    1533              
    1534 00000142 0006          LRETR     ; [CPU_ALU] 
    1535                      ; return occurs ; [] 
    1536                      .dwattr $C$DW$106, DW_AT_TI_end_file("D:/ti/motorware/motorware_1_01_00_18/sw/drivers/adc/src/32b/f28
    1537                      .dwattr $C$DW$106, DW_AT_TI_end_line(0xee)
    1538                      .dwattr $C$DW$106, DW_AT_TI_end_column(0x01)
    1539                      .dwendentry
    1540                      .dwendtag $C$DW$106
    1541              
    1542 00000143               .sect   ".text"
    1543                      .clink
    1544                      .global _ADC_powerDown
    1545              
    1546              $C$DW$110       .dwtag  DW_TAG_subprogram
TMS320C2000 Assembler PC v18.1.2 Sun Jun 17 14:52:02 2018

Tools Copyright (c) 1996-2017 Texas Instruments Incorporated
C:\Users\haowp\AppData\Local\Temp\{90C17AA4-2C03-4A74-A215-B08F3B065D28} PAGE   30

    1547                      .dwattr $C$DW$110, DW_AT_name("ADC_powerDown")
    1548                      .dwattr $C$DW$110, DW_AT_low_pc(_ADC_powerDown)
    1549                      .dwattr $C$DW$110, DW_AT_high_pc(0x00)
    1550                      .dwattr $C$DW$110, DW_AT_TI_symbol_name("_ADC_powerDown")
    1551                      .dwattr $C$DW$110, DW_AT_external
    1552                      .dwattr $C$DW$110, DW_AT_TI_begin_file("D:/ti/motorware/motorware_1_01_00_18/sw/drivers/adc/src/32b/f
    1553                      .dwattr $C$DW$110, DW_AT_TI_begin_line(0xd1)
    1554                      .dwattr $C$DW$110, DW_AT_TI_begin_column(0x06)
    1555                      .dwattr $C$DW$110, DW_AT_TI_max_frame_size(-2)
    1556                      .dwpsn  file "D:/ti/motorware/motorware_1_01_00_18/sw/drivers/adc/src/32b/f28x/f2802x/adc.c",line 210
    1557              
    1558                      .dwfde $C$DW$CIE, _ADC_powerDown
    1559              $C$DW$111       .dwtag  DW_TAG_formal_parameter
    1560                      .dwattr $C$DW$111, DW_AT_name("adcHandle")
    1561                      .dwattr $C$DW$111, DW_AT_TI_symbol_name("_adcHandle")
    1562                      .dwattr $C$DW$111, DW_AT_type(*$C$DW$T$71)
    1563                      .dwattr $C$DW$111, DW_AT_location[DW_OP_reg12]
    1564              
    1565              
    1566              ;***************************************************************
    1567              ;* FNAME: _ADC_powerDown                FR SIZE:   0           *
    1568              ;*                                                             *
    1569              ;* FUNCTION ENVIRONMENT                                        *
    1570              ;*                                                             *
    1571              ;* FUNCTION PROPERTIES                                         *
    1572              ;*                            0 Parameter,  0 Auto,  0 SOE     *
    1573              ;***************************************************************
    1574              
    1575              _ADC_powerDown:
    1576              ;* AR4   assigned to _adcHandle
    1577              $C$DW$112       .dwtag  DW_TAG_variable
    1578                      .dwattr $C$DW$112, DW_AT_name("adcHandle")
    1579                      .dwattr $C$DW$112, DW_AT_TI_symbol_name("_adcHandle")
    1580                      .dwattr $C$DW$112, DW_AT_type(*$C$DW$T$78)
    1581                      .dwattr $C$DW$112, DW_AT_location[DW_OP_reg12]
    1582              
    1583                      .dwcfi  cfa_offset, -2
    1584                      .dwcfi  save_reg_to_mem, 26, 0
    1585 00000143 7622   EALLOW
    1586                      .dwpsn  file "D:/ti/motorware/motorware_1_01_00_18/sw/drivers/adc/src/32b/f28x/f2802x/adc.c",line 217
    1587 00000144 A8A9          MOVL      ACC,XAR4              ; [CPU_ALU] |217| 
    1588 00000145 FF19          ADD       ACC,#51 << 9          ; [CPU_ALU] |217| 
         00000146 0033 
    1589 00000147 8AA9          MOVL      XAR4,ACC              ; [CPU_ALU] |217| 
    1590 00000148 18C4          AND       *+XAR4[0],#0xff7f     ; [CPU_ALU] |217| 
         00000149 FF7F 
    1591 0000014a 761A   EDIS
    1592 0000014b FF69          SPM       #0                    ; [CPU_ALU] 
    1593              $C$DW$113       .dwtag  DW_TAG_TI_branch
    1594                      .dwattr $C$DW$113, DW_AT_low_pc(0x00)
    1595                      .dwattr $C$DW$113, DW_AT_TI_return
    1596              
    1597 0000014c 0006          LRETR     ; [CPU_ALU] 
    1598                      ; return occurs ; [] 
    1599                      .dwattr $C$DW$110, DW_AT_TI_end_file("D:/ti/motorware/motorware_1_01_00_18/sw/drivers/adc/src/32b/f28
TMS320C2000 Assembler PC v18.1.2 Sun Jun 17 14:52:02 2018

Tools Copyright (c) 1996-2017 Texas Instruments Incorporated
C:\Users\haowp\AppData\Local\Temp\{90C17AA4-2C03-4A74-A215-B08F3B065D28} PAGE   31

    1600                      .dwattr $C$DW$110, DW_AT_TI_end_line(0xde)
    1601                      .dwattr $C$DW$110, DW_AT_TI_end_column(0x01)
    1602                      .dwendentry
    1603                      .dwendtag $C$DW$110
    1604              
    1605 0000014d               .sect   ".text"
    1606                      .clink
    1607                      .global _ADC_init
    1608              
    1609              $C$DW$114       .dwtag  DW_TAG_subprogram
    1610                      .dwattr $C$DW$114, DW_AT_name("ADC_init")
    1611                      .dwattr $C$DW$114, DW_AT_low_pc(_ADC_init)
    1612                      .dwattr $C$DW$114, DW_AT_high_pc(0x00)
    1613                      .dwattr $C$DW$114, DW_AT_TI_symbol_name("_ADC_init")
    1614                      .dwattr $C$DW$114, DW_AT_external
    1615                      .dwattr $C$DW$114, DW_AT_type(*$C$DW$T$71)
    1616                      .dwattr $C$DW$114, DW_AT_TI_begin_file("D:/ti/motorware/motorware_1_01_00_18/sw/drivers/adc/src/32b/f
    1617                      .dwattr $C$DW$114, DW_AT_TI_begin_line(0xc1)
    1618                      .dwattr $C$DW$114, DW_AT_TI_begin_column(0x0c)
    1619                      .dwattr $C$DW$114, DW_AT_TI_max_frame_size(-2)
    1620                      .dwpsn  file "D:/ti/motorware/motorware_1_01_00_18/sw/drivers/adc/src/32b/f28x/f2802x/adc.c",line 194
    1621              
    1622                      .dwfde $C$DW$CIE, _ADC_init
    1623              $C$DW$115       .dwtag  DW_TAG_formal_parameter
    1624                      .dwattr $C$DW$115, DW_AT_name("pMemory")
    1625                      .dwattr $C$DW$115, DW_AT_TI_symbol_name("_pMemory")
    1626                      .dwattr $C$DW$115, DW_AT_type(*$C$DW$T$3)
    1627                      .dwattr $C$DW$115, DW_AT_location[DW_OP_reg12]
    1628              
    1629              $C$DW$116       .dwtag  DW_TAG_formal_parameter
    1630                      .dwattr $C$DW$116, DW_AT_name("numBytes")
    1631                      .dwattr $C$DW$116, DW_AT_TI_symbol_name("_numBytes")
    1632                      .dwattr $C$DW$116, DW_AT_type(*$C$DW$T$79)
    1633                      .dwattr $C$DW$116, DW_AT_location[DW_OP_reg0]
    1634              
    1635              
    1636              ;***************************************************************
    1637              ;* FNAME: _ADC_init                     FR SIZE:   0           *
    1638              ;*                                                             *
    1639              ;* FUNCTION ENVIRONMENT                                        *
    1640              ;*                                                             *
    1641              ;* FUNCTION PROPERTIES                                         *
    1642              ;*                            0 Parameter,  0 Auto,  0 SOE     *
    1643              ;***************************************************************
    1644              
    1645              _ADC_init:
    1646              ;* AR6   assigned to _numBytes
    1647              $C$DW$117       .dwtag  DW_TAG_variable
    1648                      .dwattr $C$DW$117, DW_AT_name("numBytes")
    1649                      .dwattr $C$DW$117, DW_AT_TI_symbol_name("_numBytes")
    1650                      .dwattr $C$DW$117, DW_AT_type(*$C$DW$T$80)
    1651                      .dwattr $C$DW$117, DW_AT_location[DW_OP_reg16]
    1652              
    1653                      .dwcfi  cfa_offset, -2
    1654                      .dwcfi  save_reg_to_mem, 26, 0
TMS320C2000 Assembler PC v18.1.2 Sun Jun 17 14:52:02 2018

Tools Copyright (c) 1996-2017 Texas Instruments Incorporated
C:\Users\haowp\AppData\Local\Temp\{90C17AA4-2C03-4A74-A215-B08F3B065D28} PAGE   32

    1655 0000014d 1EA6          MOVL      XAR6,ACC              ; [CPU_ALU] |194| 
    1656                      .dwpsn  file "D:/ti/motorware/motorware_1_01_00_18/sw/drivers/adc/src/32b/f28x/f2802x/adc.c",line 199
    1657 0000014e 8F40          MOVL      XAR5,#26192           ; [CPU_ARAU] |199| 
         0000014f 6650 
    1658 00000150 A0A9          MOVL      ACC,XAR5              ; [CPU_ALU] |199| 
    1659 00000151 0FA6          CMPL      ACC,XAR6              ; [CPU_ALU] |199| 
    1660 00000152 6902          B         $C$L7,LOS             ; [CPU_ALU] |199| 
    1661                      ; branchcc occurs ; [] |199| 
    1662 00000153 D400          MOVB      XAR4,#0               ; [CPU_ALU] |199| 
    1663              $C$L7:    
    1664              $C$DW$118       .dwtag  DW_TAG_TI_branch
    1665                      .dwattr $C$DW$118, DW_AT_low_pc(0x00)
    1666                      .dwattr $C$DW$118, DW_AT_TI_return
    1667              
    1668 00000154 0006          LRETR     ; [CPU_ALU] 
    1669                      ; return occurs ; [] 
    1670                      .dwattr $C$DW$114, DW_AT_TI_end_file("D:/ti/motorware/motorware_1_01_00_18/sw/drivers/adc/src/32b/f28
    1671                      .dwattr $C$DW$114, DW_AT_TI_end_line(0xce)
    1672                      .dwattr $C$DW$114, DW_AT_TI_end_column(0x01)
    1673                      .dwendentry
    1674                      .dwendtag $C$DW$114
    1675              
    1676 00000155               .sect   ".text"
    1677                      .clink
    1678                      .global _ADC_getDivideSelect
    1679              
    1680              $C$DW$119       .dwtag  DW_TAG_subprogram
    1681                      .dwattr $C$DW$119, DW_AT_name("ADC_getDivideSelect")
    1682                      .dwattr $C$DW$119, DW_AT_low_pc(_ADC_getDivideSelect)
    1683                      .dwattr $C$DW$119, DW_AT_high_pc(0x00)
    1684                      .dwattr $C$DW$119, DW_AT_TI_symbol_name("_ADC_getDivideSelect")
    1685                      .dwattr $C$DW$119, DW_AT_external
    1686                      .dwattr $C$DW$119, DW_AT_type(*$C$DW$T$68)
    1687                      .dwattr $C$DW$119, DW_AT_TI_begin_file("D:/ti/motorware/motorware_1_01_00_18/sw/drivers/adc/src/32b/f
    1688                      .dwattr $C$DW$119, DW_AT_TI_begin_line(0x1f4)
    1689                      .dwattr $C$DW$119, DW_AT_TI_begin_column(0x1b)
    1690                      .dwattr $C$DW$119, DW_AT_TI_max_frame_size(-2)
    1691                      .dwpsn  file "D:/ti/motorware/motorware_1_01_00_18/sw/drivers/adc/src/32b/f28x/f2802x/adc.c",line 501
    1692              
    1693                      .dwfde $C$DW$CIE, _ADC_getDivideSelect
    1694              $C$DW$120       .dwtag  DW_TAG_formal_parameter
    1695                      .dwattr $C$DW$120, DW_AT_name("adcHandle")
    1696                      .dwattr $C$DW$120, DW_AT_TI_symbol_name("_adcHandle")
    1697                      .dwattr $C$DW$120, DW_AT_type(*$C$DW$T$71)
    1698                      .dwattr $C$DW$120, DW_AT_location[DW_OP_reg12]
    1699              
    1700              
    1701              ;***************************************************************
    1702              ;* FNAME: _ADC_getDivideSelect          FR SIZE:   0           *
    1703              ;*                                                             *
    1704              ;* FUNCTION ENVIRONMENT                                        *
    1705              ;*                                                             *
    1706              ;* FUNCTION PROPERTIES                                         *
    1707              ;*                            0 Parameter,  0 Auto,  0 SOE     *
    1708              ;***************************************************************
TMS320C2000 Assembler PC v18.1.2 Sun Jun 17 14:52:02 2018

Tools Copyright (c) 1996-2017 Texas Instruments Incorporated
C:\Users\haowp\AppData\Local\Temp\{90C17AA4-2C03-4A74-A215-B08F3B065D28} PAGE   33

    1709              
    1710              _ADC_getDivideSelect:
    1711              ;* AR4   assigned to _adcHandle
    1712              $C$DW$121       .dwtag  DW_TAG_variable
    1713                      .dwattr $C$DW$121, DW_AT_name("adcHandle")
    1714                      .dwattr $C$DW$121, DW_AT_TI_symbol_name("_adcHandle")
    1715                      .dwattr $C$DW$121, DW_AT_type(*$C$DW$T$78)
    1716                      .dwattr $C$DW$121, DW_AT_location[DW_OP_reg12]
    1717              
    1718              ;* AL    assigned to _divSelect
    1719              $C$DW$122       .dwtag  DW_TAG_variable
    1720                      .dwattr $C$DW$122, DW_AT_name("divSelect")
    1721                      .dwattr $C$DW$122, DW_AT_TI_symbol_name("_divSelect")
    1722                      .dwattr $C$DW$122, DW_AT_type(*$C$DW$T$68)
    1723                      .dwattr $C$DW$122, DW_AT_location[DW_OP_reg0]
    1724              
    1725                      .dwcfi  cfa_offset, -2
    1726                      .dwcfi  save_reg_to_mem, 26, 0
    1727                      .dwpsn  file "D:/ti/motorware/motorware_1_01_00_18/sw/drivers/adc/src/32b/f28x/f2802x/adc.c",line 505
    1728 00000155 8D00          MOVL      XAR0,#26113           ; [CPU_ALU] |505| 
         00000156 6601 
    1729 00000157 CC94          AND       AL,*+XAR4[AR0],#0x0001 ; [CPU_ALU] |505| 
         00000158 0001 
    1730              $C$DW$123       .dwtag  DW_TAG_TI_branch
    1731                      .dwattr $C$DW$123, DW_AT_low_pc(0x00)
    1732                      .dwattr $C$DW$123, DW_AT_TI_return
    1733              
    1734 00000159 0006          LRETR     ; [CPU_ALU] 
    1735                      ; return occurs ; [] 
    1736                      .dwattr $C$DW$119, DW_AT_TI_end_file("D:/ti/motorware/motorware_1_01_00_18/sw/drivers/adc/src/32b/f28
    1737                      .dwattr $C$DW$119, DW_AT_TI_end_line(0x1ff)
    1738                      .dwattr $C$DW$119, DW_AT_TI_end_column(0x01)
    1739                      .dwendentry
    1740                      .dwendtag $C$DW$119
    1741              
    1742 0000015a               .sect   ".text"
    1743                      .clink
    1744                      .global _ADC_enableVoltRefLoConv
    1745              
    1746              $C$DW$124       .dwtag  DW_TAG_subprogram
    1747                      .dwattr $C$DW$124, DW_AT_name("ADC_enableVoltRefLoConv")
    1748                      .dwattr $C$DW$124, DW_AT_low_pc(_ADC_enableVoltRefLoConv)
    1749                      .dwattr $C$DW$124, DW_AT_high_pc(0x00)
    1750                      .dwattr $C$DW$124, DW_AT_TI_symbol_name("_ADC_enableVoltRefLoConv")
    1751                      .dwattr $C$DW$124, DW_AT_external
    1752                      .dwattr $C$DW$124, DW_AT_TI_begin_file("D:/ti/motorware/motorware_1_01_00_18/sw/drivers/adc/src/32b/f
    1753                      .dwattr $C$DW$124, DW_AT_TI_begin_line(0x26c)
    1754                      .dwattr $C$DW$124, DW_AT_TI_begin_column(0x06)
    1755                      .dwattr $C$DW$124, DW_AT_TI_max_frame_size(-2)
    1756                      .dwpsn  file "D:/ti/motorware/motorware_1_01_00_18/sw/drivers/adc/src/32b/f28x/f2802x/adc.c",line 621
    1757              
    1758                      .dwfde $C$DW$CIE, _ADC_enableVoltRefLoConv
    1759              $C$DW$125       .dwtag  DW_TAG_formal_parameter
    1760                      .dwattr $C$DW$125, DW_AT_name("adcHandle")
    1761                      .dwattr $C$DW$125, DW_AT_TI_symbol_name("_adcHandle")
TMS320C2000 Assembler PC v18.1.2 Sun Jun 17 14:52:02 2018

Tools Copyright (c) 1996-2017 Texas Instruments Incorporated
C:\Users\haowp\AppData\Local\Temp\{90C17AA4-2C03-4A74-A215-B08F3B065D28} PAGE   34

    1762                      .dwattr $C$DW$125, DW_AT_type(*$C$DW$T$71)
    1763                      .dwattr $C$DW$125, DW_AT_location[DW_OP_reg12]
    1764              
    1765              
    1766              ;***************************************************************
    1767              ;* FNAME: _ADC_enableVoltRefLoConv      FR SIZE:   0           *
    1768              ;*                                                             *
    1769              ;* FUNCTION ENVIRONMENT                                        *
    1770              ;*                                                             *
    1771              ;* FUNCTION PROPERTIES                                         *
    1772              ;*                            0 Parameter,  0 Auto,  0 SOE     *
    1773              ;***************************************************************
    1774              
    1775              _ADC_enableVoltRefLoConv:
    1776              ;* AR4   assigned to _adcHandle
    1777              $C$DW$126       .dwtag  DW_TAG_variable
    1778                      .dwattr $C$DW$126, DW_AT_name("adcHandle")
    1779                      .dwattr $C$DW$126, DW_AT_TI_symbol_name("_adcHandle")
    1780                      .dwattr $C$DW$126, DW_AT_type(*$C$DW$T$78)
    1781                      .dwattr $C$DW$126, DW_AT_location[DW_OP_reg12]
    1782              
    1783                      .dwcfi  cfa_offset, -2
    1784                      .dwcfi  save_reg_to_mem, 26, 0
    1785 0000015a 7622   EALLOW
    1786                      .dwpsn  file "D:/ti/motorware/motorware_1_01_00_18/sw/drivers/adc/src/32b/f28x/f2802x/adc.c",line 628
    1787 0000015b A8A9          MOVL      ACC,XAR4              ; [CPU_ALU] |628| 
    1788 0000015c FF19          ADD       ACC,#51 << 9          ; [CPU_ALU] |628| 
         0000015d 0033 
    1789 0000015e 8AA9          MOVL      XAR4,ACC              ; [CPU_ALU] |628| 
    1790 0000015f 1AC4          OR        *+XAR4[0],#0x0002     ; [CPU_ALU] |628| 
         00000160 0002 
    1791 00000161 761A   EDIS
    1792 00000162 FF69          SPM       #0                    ; [CPU_ALU] 
    1793              $C$DW$127       .dwtag  DW_TAG_TI_branch
    1794                      .dwattr $C$DW$127, DW_AT_low_pc(0x00)
    1795                      .dwattr $C$DW$127, DW_AT_TI_return
    1796              
    1797 00000163 0006          LRETR     ; [CPU_ALU] 
    1798                      ; return occurs ; [] 
    1799                      .dwattr $C$DW$124, DW_AT_TI_end_file("D:/ti/motorware/motorware_1_01_00_18/sw/drivers/adc/src/32b/f28
    1800                      .dwattr $C$DW$124, DW_AT_TI_end_line(0x279)
    1801                      .dwattr $C$DW$124, DW_AT_TI_end_column(0x01)
    1802                      .dwendentry
    1803                      .dwendtag $C$DW$124
    1804              
    1805 00000164               .sect   ".text"
    1806                      .clink
    1807                      .global _ADC_enableRefBuffers
    1808              
    1809              $C$DW$128       .dwtag  DW_TAG_subprogram
    1810                      .dwattr $C$DW$128, DW_AT_name("ADC_enableRefBuffers")
    1811                      .dwattr $C$DW$128, DW_AT_low_pc(_ADC_enableRefBuffers)
    1812                      .dwattr $C$DW$128, DW_AT_high_pc(0x00)
    1813                      .dwattr $C$DW$128, DW_AT_TI_symbol_name("_ADC_enableRefBuffers")
    1814                      .dwattr $C$DW$128, DW_AT_external
TMS320C2000 Assembler PC v18.1.2 Sun Jun 17 14:52:02 2018

Tools Copyright (c) 1996-2017 Texas Instruments Incorporated
C:\Users\haowp\AppData\Local\Temp\{90C17AA4-2C03-4A74-A215-B08F3B065D28} PAGE   35

    1815                      .dwattr $C$DW$128, DW_AT_TI_begin_file("D:/ti/motorware/motorware_1_01_00_18/sw/drivers/adc/src/32b/f
    1816                      .dwattr $C$DW$128, DW_AT_TI_begin_line(0xb0)
    1817                      .dwattr $C$DW$128, DW_AT_TI_begin_column(0x06)
    1818                      .dwattr $C$DW$128, DW_AT_TI_max_frame_size(-2)
    1819                      .dwpsn  file "D:/ti/motorware/motorware_1_01_00_18/sw/drivers/adc/src/32b/f28x/f2802x/adc.c",line 177
    1820              
    1821                      .dwfde $C$DW$CIE, _ADC_enableRefBuffers
    1822              $C$DW$129       .dwtag  DW_TAG_formal_parameter
    1823                      .dwattr $C$DW$129, DW_AT_name("adcHandle")
    1824                      .dwattr $C$DW$129, DW_AT_TI_symbol_name("_adcHandle")
    1825                      .dwattr $C$DW$129, DW_AT_type(*$C$DW$T$71)
    1826                      .dwattr $C$DW$129, DW_AT_location[DW_OP_reg12]
    1827              
    1828              
    1829              ;***************************************************************
    1830              ;* FNAME: _ADC_enableRefBuffers         FR SIZE:   0           *
    1831              ;*                                                             *
    1832              ;* FUNCTION ENVIRONMENT                                        *
    1833              ;*                                                             *
    1834              ;* FUNCTION PROPERTIES                                         *
    1835              ;*                            0 Parameter,  0 Auto,  0 SOE     *
    1836              ;***************************************************************
    1837              
    1838              _ADC_enableRefBuffers:
    1839              ;* AR4   assigned to _adcHandle
    1840              $C$DW$130       .dwtag  DW_TAG_variable
    1841                      .dwattr $C$DW$130, DW_AT_name("adcHandle")
    1842                      .dwattr $C$DW$130, DW_AT_TI_symbol_name("_adcHandle")
    1843                      .dwattr $C$DW$130, DW_AT_type(*$C$DW$T$78)
    1844                      .dwattr $C$DW$130, DW_AT_location[DW_OP_reg12]
    1845              
    1846                      .dwcfi  cfa_offset, -2
    1847                      .dwcfi  save_reg_to_mem, 26, 0
    1848 00000164 7622   EALLOW
    1849                      .dwpsn  file "D:/ti/motorware/motorware_1_01_00_18/sw/drivers/adc/src/32b/f28x/f2802x/adc.c",line 184
    1850 00000165 A8A9          MOVL      ACC,XAR4              ; [CPU_ALU] |184| 
    1851 00000166 FF19          ADD       ACC,#51 << 9          ; [CPU_ALU] |184| 
         00000167 0033 
    1852 00000168 8AA9          MOVL      XAR4,ACC              ; [CPU_ALU] |184| 
    1853 00000169 1AC4          OR        *+XAR4[0],#0x0020     ; [CPU_ALU] |184| 
         0000016a 0020 
    1854 0000016b 761A   EDIS
    1855 0000016c FF69          SPM       #0                    ; [CPU_ALU] 
    1856              $C$DW$131       .dwtag  DW_TAG_TI_branch
    1857                      .dwattr $C$DW$131, DW_AT_low_pc(0x00)
    1858                      .dwattr $C$DW$131, DW_AT_TI_return
    1859              
    1860 0000016d 0006          LRETR     ; [CPU_ALU] 
    1861                      ; return occurs ; [] 
    1862                      .dwattr $C$DW$128, DW_AT_TI_end_file("D:/ti/motorware/motorware_1_01_00_18/sw/drivers/adc/src/32b/f28
    1863                      .dwattr $C$DW$128, DW_AT_TI_end_line(0xbd)
    1864                      .dwattr $C$DW$128, DW_AT_TI_end_column(0x01)
    1865                      .dwendentry
    1866                      .dwendtag $C$DW$128
    1867              
TMS320C2000 Assembler PC v18.1.2 Sun Jun 17 14:52:02 2018

Tools Copyright (c) 1996-2017 Texas Instruments Incorporated
C:\Users\haowp\AppData\Local\Temp\{90C17AA4-2C03-4A74-A215-B08F3B065D28} PAGE   36

    1868 0000016e               .sect   ".text"
    1869                      .clink
    1870                      .global _ADC_enableNoOverlapMode
    1871              
    1872              $C$DW$132       .dwtag  DW_TAG_subprogram
    1873                      .dwattr $C$DW$132, DW_AT_name("ADC_enableNoOverlapMode")
    1874                      .dwattr $C$DW$132, DW_AT_low_pc(_ADC_enableNoOverlapMode)
    1875                      .dwattr $C$DW$132, DW_AT_high_pc(0x00)
    1876                      .dwattr $C$DW$132, DW_AT_TI_symbol_name("_ADC_enableNoOverlapMode")
    1877                      .dwattr $C$DW$132, DW_AT_external
    1878                      .dwattr $C$DW$132, DW_AT_TI_begin_file("D:/ti/motorware/motorware_1_01_00_18/sw/drivers/adc/src/32b/f
    1879                      .dwattr $C$DW$132, DW_AT_TI_begin_line(0x216)
    1880                      .dwattr $C$DW$132, DW_AT_TI_begin_column(0x06)
    1881                      .dwattr $C$DW$132, DW_AT_TI_max_frame_size(-2)
    1882                      .dwpsn  file "D:/ti/motorware/motorware_1_01_00_18/sw/drivers/adc/src/32b/f28x/f2802x/adc.c",line 535
    1883              
    1884                      .dwfde $C$DW$CIE, _ADC_enableNoOverlapMode
    1885              $C$DW$133       .dwtag  DW_TAG_formal_parameter
    1886                      .dwattr $C$DW$133, DW_AT_name("adcHandle")
    1887                      .dwattr $C$DW$133, DW_AT_TI_symbol_name("_adcHandle")
    1888                      .dwattr $C$DW$133, DW_AT_type(*$C$DW$T$71)
    1889                      .dwattr $C$DW$133, DW_AT_location[DW_OP_reg12]
    1890              
    1891              
    1892              ;***************************************************************
    1893              ;* FNAME: _ADC_enableNoOverlapMode      FR SIZE:   0           *
    1894              ;*                                                             *
    1895              ;* FUNCTION ENVIRONMENT                                        *
    1896              ;*                                                             *
    1897              ;* FUNCTION PROPERTIES                                         *
    1898              ;*                            0 Parameter,  0 Auto,  0 SOE     *
    1899              ;***************************************************************
    1900              
    1901              _ADC_enableNoOverlapMode:
    1902              ;* AR4   assigned to _adcHandle
    1903              $C$DW$134       .dwtag  DW_TAG_variable
    1904                      .dwattr $C$DW$134, DW_AT_name("adcHandle")
    1905                      .dwattr $C$DW$134, DW_AT_TI_symbol_name("_adcHandle")
    1906                      .dwattr $C$DW$134, DW_AT_type(*$C$DW$T$78)
    1907                      .dwattr $C$DW$134, DW_AT_location[DW_OP_reg12]
    1908              
    1909                      .dwcfi  cfa_offset, -2
    1910                      .dwcfi  save_reg_to_mem, 26, 0
    1911 0000016e 7622   EALLOW
    1912                      .dwpsn  file "D:/ti/motorware/motorware_1_01_00_18/sw/drivers/adc/src/32b/f28x/f2802x/adc.c",line 542
    1913 0000016f A8A9          MOVL      ACC,XAR4              ; [CPU_ALU] |542| 
    1914 00000170 FF10          ADD       ACC,#26113 << 0       ; [CPU_ALU] |542| 
         00000171 6601 
    1915 00000172 8AA9          MOVL      XAR4,ACC              ; [CPU_ALU] |542| 
    1916 00000173 1AC4          OR        *+XAR4[0],#0x0002     ; [CPU_ALU] |542| 
         00000174 0002 
    1917 00000175 761A   EDIS
    1918 00000176 FF69          SPM       #0                    ; [CPU_ALU] 
    1919              $C$DW$135       .dwtag  DW_TAG_TI_branch
    1920                      .dwattr $C$DW$135, DW_AT_low_pc(0x00)
TMS320C2000 Assembler PC v18.1.2 Sun Jun 17 14:52:02 2018

Tools Copyright (c) 1996-2017 Texas Instruments Incorporated
C:\Users\haowp\AppData\Local\Temp\{90C17AA4-2C03-4A74-A215-B08F3B065D28} PAGE   37

    1921                      .dwattr $C$DW$135, DW_AT_TI_return
    1922              
    1923 00000177 0006          LRETR     ; [CPU_ALU] 
    1924                      ; return occurs ; [] 
    1925                      .dwattr $C$DW$132, DW_AT_TI_end_file("D:/ti/motorware/motorware_1_01_00_18/sw/drivers/adc/src/32b/f28
    1926                      .dwattr $C$DW$132, DW_AT_TI_end_line(0x223)
    1927                      .dwattr $C$DW$132, DW_AT_TI_end_column(0x01)
    1928                      .dwendentry
    1929                      .dwendtag $C$DW$132
    1930              
    1931 00000178               .sect   ".text"
    1932                      .clink
    1933                      .global _ADC_enableInt
    1934              
    1935              $C$DW$136       .dwtag  DW_TAG_subprogram
    1936                      .dwattr $C$DW$136, DW_AT_name("ADC_enableInt")
    1937                      .dwattr $C$DW$136, DW_AT_low_pc(_ADC_enableInt)
    1938                      .dwattr $C$DW$136, DW_AT_high_pc(0x00)
    1939                      .dwattr $C$DW$136, DW_AT_TI_symbol_name("_ADC_enableInt")
    1940                      .dwattr $C$DW$136, DW_AT_external
    1941                      .dwattr $C$DW$136, DW_AT_TI_begin_file("D:/ti/motorware/motorware_1_01_00_18/sw/drivers/adc/src/32b/f
    1942                      .dwattr $C$DW$136, DW_AT_TI_begin_line(0x9d)
    1943                      .dwattr $C$DW$136, DW_AT_TI_begin_column(0x06)
    1944                      .dwattr $C$DW$136, DW_AT_TI_max_frame_size(-2)
    1945                      .dwpsn  file "D:/ti/motorware/motorware_1_01_00_18/sw/drivers/adc/src/32b/f28x/f2802x/adc.c",line 158
    1946              
    1947                      .dwfde $C$DW$CIE, _ADC_enableInt
    1948              $C$DW$137       .dwtag  DW_TAG_formal_parameter
    1949                      .dwattr $C$DW$137, DW_AT_name("adcHandle")
    1950                      .dwattr $C$DW$137, DW_AT_TI_symbol_name("_adcHandle")
    1951                      .dwattr $C$DW$137, DW_AT_type(*$C$DW$T$71)
    1952                      .dwattr $C$DW$137, DW_AT_location[DW_OP_reg12]
    1953              
    1954              $C$DW$138       .dwtag  DW_TAG_formal_parameter
    1955                      .dwattr $C$DW$138, DW_AT_name("intNumber")
    1956                      .dwattr $C$DW$138, DW_AT_TI_symbol_name("_intNumber")
    1957                      .dwattr $C$DW$138, DW_AT_type(*$C$DW$T$29)
    1958                      .dwattr $C$DW$138, DW_AT_location[DW_OP_reg0]
    1959              
    1960              
    1961              ;***************************************************************
    1962              ;* FNAME: _ADC_enableInt                FR SIZE:   0           *
    1963              ;*                                                             *
    1964              ;* FUNCTION ENVIRONMENT                                        *
    1965              ;*                                                             *
    1966              ;* FUNCTION PROPERTIES                                         *
    1967              ;*                            0 Parameter,  0 Auto,  0 SOE     *
    1968              ;***************************************************************
    1969              
    1970              _ADC_enableInt:
    1971              ;* AR6   assigned to _intNumber
    1972              $C$DW$139       .dwtag  DW_TAG_variable
    1973                      .dwattr $C$DW$139, DW_AT_name("intNumber")
    1974                      .dwattr $C$DW$139, DW_AT_TI_symbol_name("_intNumber")
    1975                      .dwattr $C$DW$139, DW_AT_type(*$C$DW$T$30)
TMS320C2000 Assembler PC v18.1.2 Sun Jun 17 14:52:02 2018

Tools Copyright (c) 1996-2017 Texas Instruments Incorporated
C:\Users\haowp\AppData\Local\Temp\{90C17AA4-2C03-4A74-A215-B08F3B065D28} PAGE   38

    1976                      .dwattr $C$DW$139, DW_AT_location[DW_OP_reg16]
    1977              
    1978                      .dwcfi  cfa_offset, -2
    1979                      .dwcfi  save_reg_to_mem, 26, 0
    1980 00000178 88A9          MOVZ      AR6,AL                ; [CPU_ALU] |158| 
    1981 00000179 7622   EALLOW
    1982                      .dwpsn  file "D:/ti/motorware/motorware_1_01_00_18/sw/drivers/adc/src/32b/f28x/f2802x/adc.c",line 168
    1983 0000017a FFC0          LSR       AL,1                  ; [CPU_ALU] |168| 
    1984 0000017b 80A9          MOVZ      AR7,AL                ; [CPU_ALU] |168| 
    1985 0000017c 28AC          MOV       T,#8                  ; [CPU_ALU] |168| 
         0000017d 0008 
    1986 0000017e A8A9          MOVL      ACC,XAR4              ; [CPU_ALU] |168| 
    1987 0000017f 0DA7          ADDU      ACC,AR7               ; [CPU_ALU] |168| 
    1988 00000180 FF13          ADD       ACC,#3265 << 3        ; [CPU_ALU] |168| 
         00000181 0CC1 
    1989 00000182 8AA9          MOVL      XAR4,ACC              ; [CPU_ALU] |168| 
    1990 00000183 5603          MOV       ACC,AR6 << #3         ; [CPU_ALU] |168| 
         00000184 03A6 
    1991 00000185 F00F          XORB      AL,#0x0f              ; [CPU_ALU] |168| 
    1992 00000186 9008          ANDB      AL,#0x08              ; [CPU_ALU] |168| 
    1993 00000187 74AC          SUB       T,AL                  ; [CPU_ALU] |168| 
    1994 00000188 9A20          MOVB      AL,#32                ; [CPU_ALU] |168| 
    1995 00000189 FF66          LSL       AL,T                  ; [CPU_ALU] |168| 
    1996 0000018a 98C4          OR        *+XAR4[0],AL          ; [CPU_ALU] |168| 
    1997 0000018b 761A   EDIS
    1998 0000018c FF69          SPM       #0                    ; [CPU_ALU] 
    1999              $C$DW$140       .dwtag  DW_TAG_TI_branch
    2000                      .dwattr $C$DW$140, DW_AT_low_pc(0x00)
    2001                      .dwattr $C$DW$140, DW_AT_TI_return
    2002              
    2003 0000018d 0006          LRETR     ; [CPU_ALU] 
    2004                      ; return occurs ; [] 
    2005                      .dwattr $C$DW$136, DW_AT_TI_end_file("D:/ti/motorware/motorware_1_01_00_18/sw/drivers/adc/src/32b/f28
    2006                      .dwattr $C$DW$136, DW_AT_TI_end_line(0xad)
    2007                      .dwattr $C$DW$136, DW_AT_TI_end_column(0x01)
    2008                      .dwendentry
    2009                      .dwendtag $C$DW$136
    2010              
    2011 0000018e               .sect   ".text"
    2012                      .clink
    2013                      .global _ADC_enableBandGap
    2014              
    2015              $C$DW$141       .dwtag  DW_TAG_subprogram
    2016                      .dwattr $C$DW$141, DW_AT_name("ADC_enableBandGap")
    2017                      .dwattr $C$DW$141, DW_AT_low_pc(_ADC_enableBandGap)
    2018                      .dwattr $C$DW$141, DW_AT_high_pc(0x00)
    2019                      .dwattr $C$DW$141, DW_AT_TI_symbol_name("_ADC_enableBandGap")
    2020                      .dwattr $C$DW$141, DW_AT_external
    2021                      .dwattr $C$DW$141, DW_AT_TI_begin_file("D:/ti/motorware/motorware_1_01_00_18/sw/drivers/adc/src/32b/f
    2022                      .dwattr $C$DW$141, DW_AT_TI_begin_line(0x8d)
    2023                      .dwattr $C$DW$141, DW_AT_TI_begin_column(0x06)
    2024                      .dwattr $C$DW$141, DW_AT_TI_max_frame_size(-2)
    2025                      .dwpsn  file "D:/ti/motorware/motorware_1_01_00_18/sw/drivers/adc/src/32b/f28x/f2802x/adc.c",line 142
    2026              
    2027                      .dwfde $C$DW$CIE, _ADC_enableBandGap
TMS320C2000 Assembler PC v18.1.2 Sun Jun 17 14:52:02 2018

Tools Copyright (c) 1996-2017 Texas Instruments Incorporated
C:\Users\haowp\AppData\Local\Temp\{90C17AA4-2C03-4A74-A215-B08F3B065D28} PAGE   39

    2028              $C$DW$142       .dwtag  DW_TAG_formal_parameter
    2029                      .dwattr $C$DW$142, DW_AT_name("adcHandle")
    2030                      .dwattr $C$DW$142, DW_AT_TI_symbol_name("_adcHandle")
    2031                      .dwattr $C$DW$142, DW_AT_type(*$C$DW$T$71)
    2032                      .dwattr $C$DW$142, DW_AT_location[DW_OP_reg12]
    2033              
    2034              
    2035              ;***************************************************************
    2036              ;* FNAME: _ADC_enableBandGap            FR SIZE:   0           *
    2037              ;*                                                             *
    2038              ;* FUNCTION ENVIRONMENT                                        *
    2039              ;*                                                             *
    2040              ;* FUNCTION PROPERTIES                                         *
    2041              ;*                            0 Parameter,  0 Auto,  0 SOE     *
    2042              ;***************************************************************
    2043              
    2044              _ADC_enableBandGap:
    2045              ;* AR4   assigned to _adcHandle
    2046              $C$DW$143       .dwtag  DW_TAG_variable
    2047                      .dwattr $C$DW$143, DW_AT_name("adcHandle")
    2048                      .dwattr $C$DW$143, DW_AT_TI_symbol_name("_adcHandle")
    2049                      .dwattr $C$DW$143, DW_AT_type(*$C$DW$T$78)
    2050                      .dwattr $C$DW$143, DW_AT_location[DW_OP_reg12]
    2051              
    2052                      .dwcfi  cfa_offset, -2
    2053                      .dwcfi  save_reg_to_mem, 26, 0
    2054 0000018e 7622   EALLOW
    2055                      .dwpsn  file "D:/ti/motorware/motorware_1_01_00_18/sw/drivers/adc/src/32b/f28x/f2802x/adc.c",line 149
    2056 0000018f A8A9          MOVL      ACC,XAR4              ; [CPU_ALU] |149| 
    2057 00000190 FF19          ADD       ACC,#51 << 9          ; [CPU_ALU] |149| 
         00000191 0033 
    2058 00000192 8AA9          MOVL      XAR4,ACC              ; [CPU_ALU] |149| 
    2059 00000193 1AC4          OR        *+XAR4[0],#0x0040     ; [CPU_ALU] |149| 
         00000194 0040 
    2060 00000195 761A   EDIS
    2061 00000196 FF69          SPM       #0                    ; [CPU_ALU] 
    2062              $C$DW$144       .dwtag  DW_TAG_TI_branch
    2063                      .dwattr $C$DW$144, DW_AT_low_pc(0x00)
    2064                      .dwattr $C$DW$144, DW_AT_TI_return
    2065              
    2066 00000197 0006          LRETR     ; [CPU_ALU] 
    2067                      ; return occurs ; [] 
    2068                      .dwattr $C$DW$141, DW_AT_TI_end_file("D:/ti/motorware/motorware_1_01_00_18/sw/drivers/adc/src/32b/f28
    2069                      .dwattr $C$DW$141, DW_AT_TI_end_line(0x9a)
    2070                      .dwattr $C$DW$141, DW_AT_TI_end_column(0x01)
    2071                      .dwendentry
    2072                      .dwendtag $C$DW$141
    2073              
    2074 00000198               .sect   ".text"
    2075                      .clink
    2076                      .global _ADC_enable
    2077              
    2078              $C$DW$145       .dwtag  DW_TAG_subprogram
    2079                      .dwattr $C$DW$145, DW_AT_name("ADC_enable")
    2080                      .dwattr $C$DW$145, DW_AT_low_pc(_ADC_enable)
TMS320C2000 Assembler PC v18.1.2 Sun Jun 17 14:52:02 2018

Tools Copyright (c) 1996-2017 Texas Instruments Incorporated
C:\Users\haowp\AppData\Local\Temp\{90C17AA4-2C03-4A74-A215-B08F3B065D28} PAGE   40

    2081                      .dwattr $C$DW$145, DW_AT_high_pc(0x00)
    2082                      .dwattr $C$DW$145, DW_AT_TI_symbol_name("_ADC_enable")
    2083                      .dwattr $C$DW$145, DW_AT_external
    2084                      .dwattr $C$DW$145, DW_AT_TI_begin_file("D:/ti/motorware/motorware_1_01_00_18/sw/drivers/adc/src/32b/f
    2085                      .dwattr $C$DW$145, DW_AT_TI_begin_line(0x7d)
    2086                      .dwattr $C$DW$145, DW_AT_TI_begin_column(0x06)
    2087                      .dwattr $C$DW$145, DW_AT_TI_max_frame_size(-2)
    2088                      .dwpsn  file "D:/ti/motorware/motorware_1_01_00_18/sw/drivers/adc/src/32b/f28x/f2802x/adc.c",line 126
    2089              
    2090                      .dwfde $C$DW$CIE, _ADC_enable
    2091              $C$DW$146       .dwtag  DW_TAG_formal_parameter
    2092                      .dwattr $C$DW$146, DW_AT_name("adcHandle")
    2093                      .dwattr $C$DW$146, DW_AT_TI_symbol_name("_adcHandle")
    2094                      .dwattr $C$DW$146, DW_AT_type(*$C$DW$T$71)
    2095                      .dwattr $C$DW$146, DW_AT_location[DW_OP_reg12]
    2096              
    2097              
    2098              ;***************************************************************
    2099              ;* FNAME: _ADC_enable                   FR SIZE:   0           *
    2100              ;*                                                             *
    2101              ;* FUNCTION ENVIRONMENT                                        *
    2102              ;*                                                             *
    2103              ;* FUNCTION PROPERTIES                                         *
    2104              ;*                            0 Parameter,  0 Auto,  0 SOE     *
    2105              ;***************************************************************
    2106              
    2107              _ADC_enable:
    2108              ;* AR4   assigned to _adcHandle
    2109              $C$DW$147       .dwtag  DW_TAG_variable
    2110                      .dwattr $C$DW$147, DW_AT_name("adcHandle")
    2111                      .dwattr $C$DW$147, DW_AT_TI_symbol_name("_adcHandle")
    2112                      .dwattr $C$DW$147, DW_AT_type(*$C$DW$T$78)
    2113                      .dwattr $C$DW$147, DW_AT_location[DW_OP_reg12]
    2114              
    2115                      .dwcfi  cfa_offset, -2
    2116                      .dwcfi  save_reg_to_mem, 26, 0
    2117 00000198 7622   EALLOW
    2118                      .dwpsn  file "D:/ti/motorware/motorware_1_01_00_18/sw/drivers/adc/src/32b/f28x/f2802x/adc.c",line 133
    2119 00000199 A8A9          MOVL      ACC,XAR4              ; [CPU_ALU] |133| 
    2120 0000019a FF19          ADD       ACC,#51 << 9          ; [CPU_ALU] |133| 
         0000019b 0033 
    2121 0000019c 8AA9          MOVL      XAR4,ACC              ; [CPU_ALU] |133| 
    2122 0000019d 1AC4          OR        *+XAR4[0],#0x4000     ; [CPU_ALU] |133| 
         0000019e 4000 
    2123 0000019f 761A   EDIS
    2124 000001a0 FF69          SPM       #0                    ; [CPU_ALU] 
    2125              $C$DW$148       .dwtag  DW_TAG_TI_branch
    2126                      .dwattr $C$DW$148, DW_AT_low_pc(0x00)
    2127                      .dwattr $C$DW$148, DW_AT_TI_return
    2128              
    2129 000001a1 0006          LRETR     ; [CPU_ALU] 
    2130                      ; return occurs ; [] 
    2131                      .dwattr $C$DW$145, DW_AT_TI_end_file("D:/ti/motorware/motorware_1_01_00_18/sw/drivers/adc/src/32b/f28
    2132                      .dwattr $C$DW$145, DW_AT_TI_end_line(0x8a)
    2133                      .dwattr $C$DW$145, DW_AT_TI_end_column(0x01)
TMS320C2000 Assembler PC v18.1.2 Sun Jun 17 14:52:02 2018

Tools Copyright (c) 1996-2017 Texas Instruments Incorporated
C:\Users\haowp\AppData\Local\Temp\{90C17AA4-2C03-4A74-A215-B08F3B065D28} PAGE   41

    2134                      .dwendentry
    2135                      .dwendtag $C$DW$145
    2136              
    2137 000001a2               .sect   ".text"
    2138                      .clink
    2139                      .global _ADC_disableVoltRefLoConv
    2140              
    2141              $C$DW$149       .dwtag  DW_TAG_subprogram
    2142                      .dwattr $C$DW$149, DW_AT_name("ADC_disableVoltRefLoConv")
    2143                      .dwattr $C$DW$149, DW_AT_low_pc(_ADC_disableVoltRefLoConv)
    2144                      .dwattr $C$DW$149, DW_AT_high_pc(0x00)
    2145                      .dwattr $C$DW$149, DW_AT_TI_symbol_name("_ADC_disableVoltRefLoConv")
    2146                      .dwattr $C$DW$149, DW_AT_external
    2147                      .dwattr $C$DW$149, DW_AT_TI_begin_file("D:/ti/motorware/motorware_1_01_00_18/sw/drivers/adc/src/32b/f
    2148                      .dwattr $C$DW$149, DW_AT_TI_begin_line(0x27b)
    2149                      .dwattr $C$DW$149, DW_AT_TI_begin_column(0x06)
    2150                      .dwattr $C$DW$149, DW_AT_TI_max_frame_size(-2)
    2151                      .dwpsn  file "D:/ti/motorware/motorware_1_01_00_18/sw/drivers/adc/src/32b/f28x/f2802x/adc.c",line 636
    2152              
    2153                      .dwfde $C$DW$CIE, _ADC_disableVoltRefLoConv
    2154              $C$DW$150       .dwtag  DW_TAG_formal_parameter
    2155                      .dwattr $C$DW$150, DW_AT_name("adcHandle")
    2156                      .dwattr $C$DW$150, DW_AT_TI_symbol_name("_adcHandle")
    2157                      .dwattr $C$DW$150, DW_AT_type(*$C$DW$T$71)
    2158                      .dwattr $C$DW$150, DW_AT_location[DW_OP_reg12]
    2159              
    2160              
    2161              ;***************************************************************
    2162              ;* FNAME: _ADC_disableVoltRefLoConv     FR SIZE:   0           *
    2163              ;*                                                             *
    2164              ;* FUNCTION ENVIRONMENT                                        *
    2165              ;*                                                             *
    2166              ;* FUNCTION PROPERTIES                                         *
    2167              ;*                            0 Parameter,  0 Auto,  0 SOE     *
    2168              ;***************************************************************
    2169              
    2170              _ADC_disableVoltRefLoConv:
    2171              ;* AR4   assigned to _adcHandle
    2172              $C$DW$151       .dwtag  DW_TAG_variable
    2173                      .dwattr $C$DW$151, DW_AT_name("adcHandle")
    2174                      .dwattr $C$DW$151, DW_AT_TI_symbol_name("_adcHandle")
    2175                      .dwattr $C$DW$151, DW_AT_type(*$C$DW$T$78)
    2176                      .dwattr $C$DW$151, DW_AT_location[DW_OP_reg12]
    2177              
    2178                      .dwcfi  cfa_offset, -2
    2179                      .dwcfi  save_reg_to_mem, 26, 0
    2180 000001a2 7622   EALLOW
    2181                      .dwpsn  file "D:/ti/motorware/motorware_1_01_00_18/sw/drivers/adc/src/32b/f28x/f2802x/adc.c",line 643
    2182 000001a3 A8A9          MOVL      ACC,XAR4              ; [CPU_ALU] |643| 
    2183 000001a4 FF19          ADD       ACC,#51 << 9          ; [CPU_ALU] |643| 
         000001a5 0033 
    2184 000001a6 8AA9          MOVL      XAR4,ACC              ; [CPU_ALU] |643| 
    2185 000001a7 18C4          AND       *+XAR4[0],#0xfffd     ; [CPU_ALU] |643| 
         000001a8 FFFD 
    2186 000001a9 761A   EDIS
TMS320C2000 Assembler PC v18.1.2 Sun Jun 17 14:52:02 2018

Tools Copyright (c) 1996-2017 Texas Instruments Incorporated
C:\Users\haowp\AppData\Local\Temp\{90C17AA4-2C03-4A74-A215-B08F3B065D28} PAGE   42

    2187 000001aa FF69          SPM       #0                    ; [CPU_ALU] 
    2188              $C$DW$152       .dwtag  DW_TAG_TI_branch
    2189                      .dwattr $C$DW$152, DW_AT_low_pc(0x00)
    2190                      .dwattr $C$DW$152, DW_AT_TI_return
    2191              
    2192 000001ab 0006          LRETR     ; [CPU_ALU] 
    2193                      ; return occurs ; [] 
    2194                      .dwattr $C$DW$149, DW_AT_TI_end_file("D:/ti/motorware/motorware_1_01_00_18/sw/drivers/adc/src/32b/f28
    2195                      .dwattr $C$DW$149, DW_AT_TI_end_line(0x288)
    2196                      .dwattr $C$DW$149, DW_AT_TI_end_column(0x01)
    2197                      .dwendentry
    2198                      .dwendtag $C$DW$149
    2199              
    2200 000001ac               .sect   ".text"
    2201                      .clink
    2202                      .global _ADC_disableRefBuffers
    2203              
    2204              $C$DW$153       .dwtag  DW_TAG_subprogram
    2205                      .dwattr $C$DW$153, DW_AT_name("ADC_disableRefBuffers")
    2206                      .dwattr $C$DW$153, DW_AT_low_pc(_ADC_disableRefBuffers)
    2207                      .dwattr $C$DW$153, DW_AT_high_pc(0x00)
    2208                      .dwattr $C$DW$153, DW_AT_TI_symbol_name("_ADC_disableRefBuffers")
    2209                      .dwattr $C$DW$153, DW_AT_external
    2210                      .dwattr $C$DW$153, DW_AT_TI_begin_file("D:/ti/motorware/motorware_1_01_00_18/sw/drivers/adc/src/32b/f
    2211                      .dwattr $C$DW$153, DW_AT_TI_begin_line(0x6d)
    2212                      .dwattr $C$DW$153, DW_AT_TI_begin_column(0x06)
    2213                      .dwattr $C$DW$153, DW_AT_TI_max_frame_size(-2)
    2214                      .dwpsn  file "D:/ti/motorware/motorware_1_01_00_18/sw/drivers/adc/src/32b/f28x/f2802x/adc.c",line 110
    2215              
    2216                      .dwfde $C$DW$CIE, _ADC_disableRefBuffers
    2217              $C$DW$154       .dwtag  DW_TAG_formal_parameter
    2218                      .dwattr $C$DW$154, DW_AT_name("adcHandle")
    2219                      .dwattr $C$DW$154, DW_AT_TI_symbol_name("_adcHandle")
    2220                      .dwattr $C$DW$154, DW_AT_type(*$C$DW$T$71)
    2221                      .dwattr $C$DW$154, DW_AT_location[DW_OP_reg12]
    2222              
    2223              
    2224              ;***************************************************************
    2225              ;* FNAME: _ADC_disableRefBuffers        FR SIZE:   0           *
    2226              ;*                                                             *
    2227              ;* FUNCTION ENVIRONMENT                                        *
    2228              ;*                                                             *
    2229              ;* FUNCTION PROPERTIES                                         *
    2230              ;*                            0 Parameter,  0 Auto,  0 SOE     *
    2231              ;***************************************************************
    2232              
    2233              _ADC_disableRefBuffers:
    2234              ;* AR4   assigned to _adcHandle
    2235              $C$DW$155       .dwtag  DW_TAG_variable
    2236                      .dwattr $C$DW$155, DW_AT_name("adcHandle")
    2237                      .dwattr $C$DW$155, DW_AT_TI_symbol_name("_adcHandle")
    2238                      .dwattr $C$DW$155, DW_AT_type(*$C$DW$T$78)
    2239                      .dwattr $C$DW$155, DW_AT_location[DW_OP_reg12]
    2240              
    2241                      .dwcfi  cfa_offset, -2
TMS320C2000 Assembler PC v18.1.2 Sun Jun 17 14:52:02 2018

Tools Copyright (c) 1996-2017 Texas Instruments Incorporated
C:\Users\haowp\AppData\Local\Temp\{90C17AA4-2C03-4A74-A215-B08F3B065D28} PAGE   43

    2242                      .dwcfi  save_reg_to_mem, 26, 0
    2243 000001ac 7622   EALLOW
    2244                      .dwpsn  file "D:/ti/motorware/motorware_1_01_00_18/sw/drivers/adc/src/32b/f28x/f2802x/adc.c",line 117
    2245 000001ad A8A9          MOVL      ACC,XAR4              ; [CPU_ALU] |117| 
    2246 000001ae FF19          ADD       ACC,#51 << 9          ; [CPU_ALU] |117| 
         000001af 0033 
    2247 000001b0 8AA9          MOVL      XAR4,ACC              ; [CPU_ALU] |117| 
    2248 000001b1 18C4          AND       *+XAR4[0],#0xffdf     ; [CPU_ALU] |117| 
         000001b2 FFDF 
    2249 000001b3 761A   EDIS
    2250 000001b4 FF69          SPM       #0                    ; [CPU_ALU] 
    2251              $C$DW$156       .dwtag  DW_TAG_TI_branch
    2252                      .dwattr $C$DW$156, DW_AT_low_pc(0x00)
    2253                      .dwattr $C$DW$156, DW_AT_TI_return
    2254              
    2255 000001b5 0006          LRETR     ; [CPU_ALU] 
    2256                      ; return occurs ; [] 
    2257                      .dwattr $C$DW$153, DW_AT_TI_end_file("D:/ti/motorware/motorware_1_01_00_18/sw/drivers/adc/src/32b/f28
    2258                      .dwattr $C$DW$153, DW_AT_TI_end_line(0x7a)
    2259                      .dwattr $C$DW$153, DW_AT_TI_end_column(0x01)
    2260                      .dwendentry
    2261                      .dwendtag $C$DW$153
    2262              
    2263 000001b6               .sect   ".text"
    2264                      .clink
    2265                      .global _ADC_disableNoOverlapMode
    2266              
    2267              $C$DW$157       .dwtag  DW_TAG_subprogram
    2268                      .dwattr $C$DW$157, DW_AT_name("ADC_disableNoOverlapMode")
    2269                      .dwattr $C$DW$157, DW_AT_low_pc(_ADC_disableNoOverlapMode)
    2270                      .dwattr $C$DW$157, DW_AT_high_pc(0x00)
    2271                      .dwattr $C$DW$157, DW_AT_TI_symbol_name("_ADC_disableNoOverlapMode")
    2272                      .dwattr $C$DW$157, DW_AT_external
    2273                      .dwattr $C$DW$157, DW_AT_TI_begin_file("D:/ti/motorware/motorware_1_01_00_18/sw/drivers/adc/src/32b/f
    2274                      .dwattr $C$DW$157, DW_AT_TI_begin_line(0x226)
    2275                      .dwattr $C$DW$157, DW_AT_TI_begin_column(0x06)
    2276                      .dwattr $C$DW$157, DW_AT_TI_max_frame_size(-2)
    2277                      .dwpsn  file "D:/ti/motorware/motorware_1_01_00_18/sw/drivers/adc/src/32b/f28x/f2802x/adc.c",line 551
    2278              
    2279                      .dwfde $C$DW$CIE, _ADC_disableNoOverlapMode
    2280              $C$DW$158       .dwtag  DW_TAG_formal_parameter
    2281                      .dwattr $C$DW$158, DW_AT_name("adcHandle")
    2282                      .dwattr $C$DW$158, DW_AT_TI_symbol_name("_adcHandle")
    2283                      .dwattr $C$DW$158, DW_AT_type(*$C$DW$T$71)
    2284                      .dwattr $C$DW$158, DW_AT_location[DW_OP_reg12]
    2285              
    2286              
    2287              ;***************************************************************
    2288              ;* FNAME: _ADC_disableNoOverlapMode     FR SIZE:   0           *
    2289              ;*                                                             *
    2290              ;* FUNCTION ENVIRONMENT                                        *
    2291              ;*                                                             *
    2292              ;* FUNCTION PROPERTIES                                         *
    2293              ;*                            0 Parameter,  0 Auto,  0 SOE     *
    2294              ;***************************************************************
TMS320C2000 Assembler PC v18.1.2 Sun Jun 17 14:52:02 2018

Tools Copyright (c) 1996-2017 Texas Instruments Incorporated
C:\Users\haowp\AppData\Local\Temp\{90C17AA4-2C03-4A74-A215-B08F3B065D28} PAGE   44

    2295              
    2296              _ADC_disableNoOverlapMode:
    2297              ;* AR4   assigned to _adcHandle
    2298              $C$DW$159       .dwtag  DW_TAG_variable
    2299                      .dwattr $C$DW$159, DW_AT_name("adcHandle")
    2300                      .dwattr $C$DW$159, DW_AT_TI_symbol_name("_adcHandle")
    2301                      .dwattr $C$DW$159, DW_AT_type(*$C$DW$T$78)
    2302                      .dwattr $C$DW$159, DW_AT_location[DW_OP_reg12]
    2303              
    2304                      .dwcfi  cfa_offset, -2
    2305                      .dwcfi  save_reg_to_mem, 26, 0
    2306 000001b6 7622   EALLOW
    2307                      .dwpsn  file "D:/ti/motorware/motorware_1_01_00_18/sw/drivers/adc/src/32b/f28x/f2802x/adc.c",line 558
    2308 000001b7 A8A9          MOVL      ACC,XAR4              ; [CPU_ALU] |558| 
    2309 000001b8 FF10          ADD       ACC,#26113 << 0       ; [CPU_ALU] |558| 
         000001b9 6601 
    2310 000001ba 8AA9          MOVL      XAR4,ACC              ; [CPU_ALU] |558| 
    2311 000001bb 18C4          AND       *+XAR4[0],#0xfffd     ; [CPU_ALU] |558| 
         000001bc FFFD 
    2312 000001bd 761A   EDIS
    2313 000001be FF69          SPM       #0                    ; [CPU_ALU] 
    2314              $C$DW$160       .dwtag  DW_TAG_TI_branch
    2315                      .dwattr $C$DW$160, DW_AT_low_pc(0x00)
    2316                      .dwattr $C$DW$160, DW_AT_TI_return
    2317              
    2318 000001bf 0006          LRETR     ; [CPU_ALU] 
    2319                      ; return occurs ; [] 
    2320                      .dwattr $C$DW$157, DW_AT_TI_end_file("D:/ti/motorware/motorware_1_01_00_18/sw/drivers/adc/src/32b/f28
    2321                      .dwattr $C$DW$157, DW_AT_TI_end_line(0x233)
    2322                      .dwattr $C$DW$157, DW_AT_TI_end_column(0x01)
    2323                      .dwendentry
    2324                      .dwendtag $C$DW$157
    2325              
    2326 000001c0               .sect   ".text"
    2327                      .clink
    2328                      .global _ADC_disableInt
    2329              
    2330              $C$DW$161       .dwtag  DW_TAG_subprogram
    2331                      .dwattr $C$DW$161, DW_AT_name("ADC_disableInt")
    2332                      .dwattr $C$DW$161, DW_AT_low_pc(_ADC_disableInt)
    2333                      .dwattr $C$DW$161, DW_AT_high_pc(0x00)
    2334                      .dwattr $C$DW$161, DW_AT_TI_symbol_name("_ADC_disableInt")
    2335                      .dwattr $C$DW$161, DW_AT_external
    2336                      .dwattr $C$DW$161, DW_AT_TI_begin_file("D:/ti/motorware/motorware_1_01_00_18/sw/drivers/adc/src/32b/f
    2337                      .dwattr $C$DW$161, DW_AT_TI_begin_line(0x5a)
    2338                      .dwattr $C$DW$161, DW_AT_TI_begin_column(0x06)
    2339                      .dwattr $C$DW$161, DW_AT_TI_max_frame_size(-2)
    2340                      .dwpsn  file "D:/ti/motorware/motorware_1_01_00_18/sw/drivers/adc/src/32b/f28x/f2802x/adc.c",line 91,
    2341              
    2342                      .dwfde $C$DW$CIE, _ADC_disableInt
    2343              $C$DW$162       .dwtag  DW_TAG_formal_parameter
    2344                      .dwattr $C$DW$162, DW_AT_name("adcHandle")
    2345                      .dwattr $C$DW$162, DW_AT_TI_symbol_name("_adcHandle")
    2346                      .dwattr $C$DW$162, DW_AT_type(*$C$DW$T$71)
    2347                      .dwattr $C$DW$162, DW_AT_location[DW_OP_reg12]
TMS320C2000 Assembler PC v18.1.2 Sun Jun 17 14:52:02 2018

Tools Copyright (c) 1996-2017 Texas Instruments Incorporated
C:\Users\haowp\AppData\Local\Temp\{90C17AA4-2C03-4A74-A215-B08F3B065D28} PAGE   45

    2348              
    2349              $C$DW$163       .dwtag  DW_TAG_formal_parameter
    2350                      .dwattr $C$DW$163, DW_AT_name("intNumber")
    2351                      .dwattr $C$DW$163, DW_AT_TI_symbol_name("_intNumber")
    2352                      .dwattr $C$DW$163, DW_AT_type(*$C$DW$T$29)
    2353                      .dwattr $C$DW$163, DW_AT_location[DW_OP_reg0]
    2354              
    2355              
    2356              ;***************************************************************
    2357              ;* FNAME: _ADC_disableInt               FR SIZE:   0           *
    2358              ;*                                                             *
    2359              ;* FUNCTION ENVIRONMENT                                        *
    2360              ;*                                                             *
    2361              ;* FUNCTION PROPERTIES                                         *
    2362              ;*                            0 Parameter,  0 Auto,  0 SOE     *
    2363              ;***************************************************************
    2364              
    2365              _ADC_disableInt:
    2366              ;* AR6   assigned to _intNumber
    2367              $C$DW$164       .dwtag  DW_TAG_variable
    2368                      .dwattr $C$DW$164, DW_AT_name("intNumber")
    2369                      .dwattr $C$DW$164, DW_AT_TI_symbol_name("_intNumber")
    2370                      .dwattr $C$DW$164, DW_AT_type(*$C$DW$T$30)
    2371                      .dwattr $C$DW$164, DW_AT_location[DW_OP_reg16]
    2372              
    2373                      .dwcfi  cfa_offset, -2
    2374                      .dwcfi  save_reg_to_mem, 26, 0
    2375 000001c0 88A9          MOVZ      AR6,AL                ; [CPU_ALU] |91| 
    2376 000001c1 7622   EALLOW
    2377                      .dwpsn  file "D:/ti/motorware/motorware_1_01_00_18/sw/drivers/adc/src/32b/f28x/f2802x/adc.c",line 101
    2378 000001c2 FFC0          LSR       AL,1                  ; [CPU_ALU] |101| 
    2379 000001c3 80A9          MOVZ      AR7,AL                ; [CPU_ALU] |101| 
    2380 000001c4 28AC          MOV       T,#8                  ; [CPU_ALU] |101| 
         000001c5 0008 
    2381 000001c6 A8A9          MOVL      ACC,XAR4              ; [CPU_ALU] |101| 
    2382 000001c7 0DA7          ADDU      ACC,AR7               ; [CPU_ALU] |101| 
    2383 000001c8 FF13          ADD       ACC,#3265 << 3        ; [CPU_ALU] |101| 
         000001c9 0CC1 
    2384 000001ca 8AA9          MOVL      XAR4,ACC              ; [CPU_ALU] |101| 
    2385 000001cb 5603          MOV       ACC,AR6 << #3         ; [CPU_ALU] |101| 
         000001cc 03A6 
    2386 000001cd F00F          XORB      AL,#0x0f              ; [CPU_ALU] |101| 
    2387 000001ce 9008          ANDB      AL,#0x08              ; [CPU_ALU] |101| 
    2388 000001cf 74AC          SUB       T,AL                  ; [CPU_ALU] |101| 
    2389 000001d0 9A20          MOVB      AL,#32                ; [CPU_ALU] |101| 
    2390 000001d1 FF66          LSL       AL,T                  ; [CPU_ALU] |101| 
    2391 000001d2 FF5E          NOT       AL                    ; [CPU_ALU] |101| 
    2392 000001d3 C0C4          AND       *+XAR4[0],AL          ; [CPU_ALU] |101| 
    2393 000001d4 761A   EDIS
    2394 000001d5 FF69          SPM       #0                    ; [CPU_ALU] 
    2395              $C$DW$165       .dwtag  DW_TAG_TI_branch
    2396                      .dwattr $C$DW$165, DW_AT_low_pc(0x00)
    2397                      .dwattr $C$DW$165, DW_AT_TI_return
    2398              
    2399 000001d6 0006          LRETR     ; [CPU_ALU] 
TMS320C2000 Assembler PC v18.1.2 Sun Jun 17 14:52:02 2018

Tools Copyright (c) 1996-2017 Texas Instruments Incorporated
C:\Users\haowp\AppData\Local\Temp\{90C17AA4-2C03-4A74-A215-B08F3B065D28} PAGE   46

    2400                      ; return occurs ; [] 
    2401                      .dwattr $C$DW$161, DW_AT_TI_end_file("D:/ti/motorware/motorware_1_01_00_18/sw/drivers/adc/src/32b/f28
    2402                      .dwattr $C$DW$161, DW_AT_TI_end_line(0x6a)
    2403                      .dwattr $C$DW$161, DW_AT_TI_end_column(0x01)
    2404                      .dwendentry
    2405                      .dwendtag $C$DW$161
    2406              
    2407 000001d7               .sect   ".text"
    2408                      .clink
    2409                      .global _ADC_disableBandGap
    2410              
    2411              $C$DW$166       .dwtag  DW_TAG_subprogram
    2412                      .dwattr $C$DW$166, DW_AT_name("ADC_disableBandGap")
    2413                      .dwattr $C$DW$166, DW_AT_low_pc(_ADC_disableBandGap)
    2414                      .dwattr $C$DW$166, DW_AT_high_pc(0x00)
    2415                      .dwattr $C$DW$166, DW_AT_TI_symbol_name("_ADC_disableBandGap")
    2416                      .dwattr $C$DW$166, DW_AT_external
    2417                      .dwattr $C$DW$166, DW_AT_TI_begin_file("D:/ti/motorware/motorware_1_01_00_18/sw/drivers/adc/src/32b/f
    2418                      .dwattr $C$DW$166, DW_AT_TI_begin_line(0x4a)
    2419                      .dwattr $C$DW$166, DW_AT_TI_begin_column(0x06)
    2420                      .dwattr $C$DW$166, DW_AT_TI_max_frame_size(-2)
    2421                      .dwpsn  file "D:/ti/motorware/motorware_1_01_00_18/sw/drivers/adc/src/32b/f28x/f2802x/adc.c",line 75,
    2422              
    2423                      .dwfde $C$DW$CIE, _ADC_disableBandGap
    2424              $C$DW$167       .dwtag  DW_TAG_formal_parameter
    2425                      .dwattr $C$DW$167, DW_AT_name("adcHandle")
    2426                      .dwattr $C$DW$167, DW_AT_TI_symbol_name("_adcHandle")
    2427                      .dwattr $C$DW$167, DW_AT_type(*$C$DW$T$71)
    2428                      .dwattr $C$DW$167, DW_AT_location[DW_OP_reg12]
    2429              
    2430              
    2431              ;***************************************************************
    2432              ;* FNAME: _ADC_disableBandGap           FR SIZE:   0           *
    2433              ;*                                                             *
    2434              ;* FUNCTION ENVIRONMENT                                        *
    2435              ;*                                                             *
    2436              ;* FUNCTION PROPERTIES                                         *
    2437              ;*                            0 Parameter,  0 Auto,  0 SOE     *
    2438              ;***************************************************************
    2439              
    2440              _ADC_disableBandGap:
    2441              ;* AR4   assigned to _adcHandle
    2442              $C$DW$168       .dwtag  DW_TAG_variable
    2443                      .dwattr $C$DW$168, DW_AT_name("adcHandle")
    2444                      .dwattr $C$DW$168, DW_AT_TI_symbol_name("_adcHandle")
    2445                      .dwattr $C$DW$168, DW_AT_type(*$C$DW$T$78)
    2446                      .dwattr $C$DW$168, DW_AT_location[DW_OP_reg12]
    2447              
    2448                      .dwcfi  cfa_offset, -2
    2449                      .dwcfi  save_reg_to_mem, 26, 0
    2450 000001d7 7622   EALLOW
    2451                      .dwpsn  file "D:/ti/motorware/motorware_1_01_00_18/sw/drivers/adc/src/32b/f28x/f2802x/adc.c",line 82,
    2452 000001d8 A8A9          MOVL      ACC,XAR4              ; [CPU_ALU] |82| 
    2453 000001d9 FF19          ADD       ACC,#51 << 9          ; [CPU_ALU] |82| 
         000001da 0033 
TMS320C2000 Assembler PC v18.1.2 Sun Jun 17 14:52:02 2018

Tools Copyright (c) 1996-2017 Texas Instruments Incorporated
C:\Users\haowp\AppData\Local\Temp\{90C17AA4-2C03-4A74-A215-B08F3B065D28} PAGE   47

    2454 000001db 8AA9          MOVL      XAR4,ACC              ; [CPU_ALU] |82| 
    2455 000001dc 18C4          AND       *+XAR4[0],#0xffbf     ; [CPU_ALU] |82| 
         000001dd FFBF 
    2456 000001de 761A   EDIS
    2457 000001df FF69          SPM       #0                    ; [CPU_ALU] 
    2458              $C$DW$169       .dwtag  DW_TAG_TI_branch
    2459                      .dwattr $C$DW$169, DW_AT_low_pc(0x00)
    2460                      .dwattr $C$DW$169, DW_AT_TI_return
    2461              
    2462 000001e0 0006          LRETR     ; [CPU_ALU] 
    2463                      ; return occurs ; [] 
    2464                      .dwattr $C$DW$166, DW_AT_TI_end_file("D:/ti/motorware/motorware_1_01_00_18/sw/drivers/adc/src/32b/f28
    2465                      .dwattr $C$DW$166, DW_AT_TI_end_line(0x57)
    2466                      .dwattr $C$DW$166, DW_AT_TI_end_column(0x01)
    2467                      .dwendentry
    2468                      .dwendtag $C$DW$166
    2469              
    2470 000001e1               .sect   ".text"
    2471                      .clink
    2472                      .global _ADC_disable
    2473              
    2474              $C$DW$170       .dwtag  DW_TAG_subprogram
    2475                      .dwattr $C$DW$170, DW_AT_name("ADC_disable")
    2476                      .dwattr $C$DW$170, DW_AT_low_pc(_ADC_disable)
    2477                      .dwattr $C$DW$170, DW_AT_high_pc(0x00)
    2478                      .dwattr $C$DW$170, DW_AT_TI_symbol_name("_ADC_disable")
    2479                      .dwattr $C$DW$170, DW_AT_external
    2480                      .dwattr $C$DW$170, DW_AT_TI_begin_file("D:/ti/motorware/motorware_1_01_00_18/sw/drivers/adc/src/32b/f
    2481                      .dwattr $C$DW$170, DW_AT_TI_begin_line(0x3b)
    2482                      .dwattr $C$DW$170, DW_AT_TI_begin_column(0x06)
    2483                      .dwattr $C$DW$170, DW_AT_TI_max_frame_size(-2)
    2484                      .dwpsn  file "D:/ti/motorware/motorware_1_01_00_18/sw/drivers/adc/src/32b/f28x/f2802x/adc.c",line 60,
    2485              
    2486                      .dwfde $C$DW$CIE, _ADC_disable
    2487              $C$DW$171       .dwtag  DW_TAG_formal_parameter
    2488                      .dwattr $C$DW$171, DW_AT_name("adcHandle")
    2489                      .dwattr $C$DW$171, DW_AT_TI_symbol_name("_adcHandle")
    2490                      .dwattr $C$DW$171, DW_AT_type(*$C$DW$T$71)
    2491                      .dwattr $C$DW$171, DW_AT_location[DW_OP_reg12]
    2492              
    2493              
    2494              ;***************************************************************
    2495              ;* FNAME: _ADC_disable                  FR SIZE:   0           *
    2496              ;*                                                             *
    2497              ;* FUNCTION ENVIRONMENT                                        *
    2498              ;*                                                             *
    2499              ;* FUNCTION PROPERTIES                                         *
    2500              ;*                            0 Parameter,  0 Auto,  0 SOE     *
    2501              ;***************************************************************
    2502              
    2503              _ADC_disable:
    2504              ;* AR4   assigned to _adcHandle
    2505              $C$DW$172       .dwtag  DW_TAG_variable
    2506                      .dwattr $C$DW$172, DW_AT_name("adcHandle")
    2507                      .dwattr $C$DW$172, DW_AT_TI_symbol_name("_adcHandle")
TMS320C2000 Assembler PC v18.1.2 Sun Jun 17 14:52:02 2018

Tools Copyright (c) 1996-2017 Texas Instruments Incorporated
C:\Users\haowp\AppData\Local\Temp\{90C17AA4-2C03-4A74-A215-B08F3B065D28} PAGE   48

    2508                      .dwattr $C$DW$172, DW_AT_type(*$C$DW$T$78)
    2509                      .dwattr $C$DW$172, DW_AT_location[DW_OP_reg12]
    2510              
    2511                      .dwcfi  cfa_offset, -2
    2512                      .dwcfi  save_reg_to_mem, 26, 0
    2513 000001e1 7622   EALLOW
    2514                      .dwpsn  file "D:/ti/motorware/motorware_1_01_00_18/sw/drivers/adc/src/32b/f28x/f2802x/adc.c",line 66,
    2515 000001e2 A8A9          MOVL      ACC,XAR4              ; [CPU_ALU] |66| 
    2516 000001e3 FF19          ADD       ACC,#51 << 9          ; [CPU_ALU] |66| 
         000001e4 0033 
    2517 000001e5 8AA9          MOVL      XAR4,ACC              ; [CPU_ALU] |66| 
    2518 000001e6 18C4          AND       *+XAR4[0],#0xbfff     ; [CPU_ALU] |66| 
         000001e7 BFFF 
    2519 000001e8 761A   EDIS
    2520 000001e9 FF69          SPM       #0                    ; [CPU_ALU] 
    2521              $C$DW$173       .dwtag  DW_TAG_TI_branch
    2522                      .dwattr $C$DW$173, DW_AT_low_pc(0x00)
    2523                      .dwattr $C$DW$173, DW_AT_TI_return
    2524              
    2525 000001ea 0006          LRETR     ; [CPU_ALU] 
    2526                      ; return occurs ; [] 
    2527                      .dwattr $C$DW$170, DW_AT_TI_end_file("D:/ti/motorware/motorware_1_01_00_18/sw/drivers/adc/src/32b/f28
    2528                      .dwattr $C$DW$170, DW_AT_TI_end_line(0x47)
    2529                      .dwattr $C$DW$170, DW_AT_TI_end_column(0x01)
    2530                      .dwendentry
    2531                      .dwendtag $C$DW$170
    2532              
    2533              
    2534              ;***************************************************************
    2535              ;* TYPE INFORMATION                                            *
    2536              ;***************************************************************
    2537              
    2538              $C$DW$T$28      .dwtag  DW_TAG_enumeration_type
    2539                      .dwattr $C$DW$T$28, DW_AT_byte_size(0x01)
    2540              $C$DW$174       .dwtag  DW_TAG_enumerator
    2541                      .dwattr $C$DW$174, DW_AT_name("ADC_IntNumber_1")
    2542                      .dwattr $C$DW$174, DW_AT_const_value(0x00)
    2543              
    2544              $C$DW$175       .dwtag  DW_TAG_enumerator
    2545                      .dwattr $C$DW$175, DW_AT_name("ADC_IntNumber_2")
    2546                      .dwattr $C$DW$175, DW_AT_const_value(0x01)
    2547              
    2548              $C$DW$176       .dwtag  DW_TAG_enumerator
    2549                      .dwattr $C$DW$176, DW_AT_name("ADC_IntNumber_3")
    2550                      .dwattr $C$DW$176, DW_AT_const_value(0x02)
    2551              
    2552              $C$DW$177       .dwtag  DW_TAG_enumerator
    2553                      .dwattr $C$DW$177, DW_AT_name("ADC_IntNumber_4")
    2554                      .dwattr $C$DW$177, DW_AT_const_value(0x03)
    2555              
    2556              $C$DW$178       .dwtag  DW_TAG_enumerator
    2557                      .dwattr $C$DW$178, DW_AT_name("ADC_IntNumber_5")
    2558                      .dwattr $C$DW$178, DW_AT_const_value(0x04)
    2559              
    2560              $C$DW$179       .dwtag  DW_TAG_enumerator
TMS320C2000 Assembler PC v18.1.2 Sun Jun 17 14:52:02 2018

Tools Copyright (c) 1996-2017 Texas Instruments Incorporated
C:\Users\haowp\AppData\Local\Temp\{90C17AA4-2C03-4A74-A215-B08F3B065D28} PAGE   49

    2561                      .dwattr $C$DW$179, DW_AT_name("ADC_IntNumber_6")
    2562                      .dwattr $C$DW$179, DW_AT_const_value(0x05)
    2563              
    2564              $C$DW$180       .dwtag  DW_TAG_enumerator
    2565                      .dwattr $C$DW$180, DW_AT_name("ADC_IntNumber_7")
    2566                      .dwattr $C$DW$180, DW_AT_const_value(0x06)
    2567              
    2568              $C$DW$181       .dwtag  DW_TAG_enumerator
    2569                      .dwattr $C$DW$181, DW_AT_name("ADC_IntNumber_8")
    2570                      .dwattr $C$DW$181, DW_AT_const_value(0x07)
    2571              
    2572              $C$DW$182       .dwtag  DW_TAG_enumerator
    2573                      .dwattr $C$DW$182, DW_AT_name("ADC_IntNumber_9")
    2574                      .dwattr $C$DW$182, DW_AT_const_value(0x08)
    2575              
    2576              $C$DW$183       .dwtag  DW_TAG_enumerator
    2577                      .dwattr $C$DW$183, DW_AT_name("ADC_IntNumber_1HP")
    2578                      .dwattr $C$DW$183, DW_AT_const_value(0x09)
    2579              
    2580              $C$DW$184       .dwtag  DW_TAG_enumerator
    2581                      .dwattr $C$DW$184, DW_AT_name("ADC_IntNumber_2HP")
    2582                      .dwattr $C$DW$184, DW_AT_const_value(0x0a)
    2583              
    2584              $C$DW$185       .dwtag  DW_TAG_enumerator
    2585                      .dwattr $C$DW$185, DW_AT_name("ADC_IntNumber_9HP")
    2586                      .dwattr $C$DW$185, DW_AT_const_value(0x0e)
    2587              
    2588                      .dwendtag $C$DW$T$28
    2589              
    2590              $C$DW$T$29      .dwtag  DW_TAG_typedef
    2591                      .dwattr $C$DW$T$29, DW_AT_name("ADC_IntNumber_e")
    2592                      .dwattr $C$DW$T$29, DW_AT_type(*$C$DW$T$28)
    2593                      .dwattr $C$DW$T$29, DW_AT_language(DW_LANG_C)
    2594              
    2595              $C$DW$186       .dwtag  DW_TAG_TI_far_type
    2596                      .dwattr $C$DW$186, DW_AT_type(*$C$DW$T$29)
    2597              
    2598              $C$DW$T$30      .dwtag  DW_TAG_const_type
    2599                      .dwattr $C$DW$T$30, DW_AT_type(*$C$DW$186)
    2600              
    2601              
    2602              $C$DW$T$31      .dwtag  DW_TAG_enumeration_type
    2603                      .dwattr $C$DW$T$31, DW_AT_byte_size(0x01)
    2604              $C$DW$187       .dwtag  DW_TAG_enumerator
    2605                      .dwattr $C$DW$187, DW_AT_name("ADC_ADCCTL2_Overlap")
    2606                      .dwattr $C$DW$187, DW_AT_const_value(0x00)
    2607              
    2608              $C$DW$188       .dwtag  DW_TAG_enumerator
    2609                      .dwattr $C$DW$188, DW_AT_name("ADC_ADCCTL2_NoOverlap")
    2610                      .dwattr $C$DW$188, DW_AT_const_value(0x01)
    2611              
    2612                      .dwendtag $C$DW$T$31
    2613              
    2614              $C$DW$T$32      .dwtag  DW_TAG_typedef
    2615                      .dwattr $C$DW$T$32, DW_AT_name("ADC_ADCCTL2_ADCNONOVERLAP_e")
TMS320C2000 Assembler PC v18.1.2 Sun Jun 17 14:52:02 2018

Tools Copyright (c) 1996-2017 Texas Instruments Incorporated
C:\Users\haowp\AppData\Local\Temp\{90C17AA4-2C03-4A74-A215-B08F3B065D28} PAGE   50

    2616                      .dwattr $C$DW$T$32, DW_AT_type(*$C$DW$T$31)
    2617                      .dwattr $C$DW$T$32, DW_AT_language(DW_LANG_C)
    2618              
    2619              $C$DW$189       .dwtag  DW_TAG_TI_far_type
    2620                      .dwattr $C$DW$189, DW_AT_type(*$C$DW$T$32)
    2621              
    2622              $C$DW$T$33      .dwtag  DW_TAG_const_type
    2623                      .dwattr $C$DW$T$33, DW_AT_type(*$C$DW$189)
    2624              
    2625              
    2626              $C$DW$T$34      .dwtag  DW_TAG_enumeration_type
    2627                      .dwattr $C$DW$T$34, DW_AT_byte_size(0x01)
    2628              $C$DW$190       .dwtag  DW_TAG_enumerator
    2629                      .dwattr $C$DW$190, DW_AT_name("ADC_IntMode_ClearFlag")
    2630                      .dwattr $C$DW$190, DW_AT_const_value(0x00)
    2631              
    2632              $C$DW$191       .dwtag  DW_TAG_enumerator
    2633                      .dwattr $C$DW$191, DW_AT_name("ADC_IntMode_EOC")
    2634                      .dwattr $C$DW$191, DW_AT_const_value(0x40)
    2635              
    2636                      .dwendtag $C$DW$T$34
    2637              
    2638              $C$DW$T$35      .dwtag  DW_TAG_typedef
    2639                      .dwattr $C$DW$T$35, DW_AT_name("ADC_IntMode_e")
    2640                      .dwattr $C$DW$T$35, DW_AT_type(*$C$DW$T$34)
    2641                      .dwattr $C$DW$T$35, DW_AT_language(DW_LANG_C)
    2642              
    2643              $C$DW$192       .dwtag  DW_TAG_TI_far_type
    2644                      .dwattr $C$DW$192, DW_AT_type(*$C$DW$T$35)
    2645              
    2646              $C$DW$T$36      .dwtag  DW_TAG_const_type
    2647                      .dwattr $C$DW$T$36, DW_AT_type(*$C$DW$192)
    2648              
    2649              
    2650              $C$DW$T$37      .dwtag  DW_TAG_enumeration_type
    2651                      .dwattr $C$DW$T$37, DW_AT_byte_size(0x01)
    2652              $C$DW$193       .dwtag  DW_TAG_enumerator
    2653                      .dwattr $C$DW$193, DW_AT_name("ADC_IntPulseGenMode_During")
    2654                      .dwattr $C$DW$193, DW_AT_const_value(0x00)
    2655              
    2656              $C$DW$194       .dwtag  DW_TAG_enumerator
    2657                      .dwattr $C$DW$194, DW_AT_name("ADC_IntPulseGenMode_Prior")
    2658                      .dwattr $C$DW$194, DW_AT_const_value(0x04)
    2659              
    2660                      .dwendtag $C$DW$T$37
    2661              
    2662              $C$DW$T$38      .dwtag  DW_TAG_typedef
    2663                      .dwattr $C$DW$T$38, DW_AT_name("ADC_IntPulseGenMode_e")
    2664                      .dwattr $C$DW$T$38, DW_AT_type(*$C$DW$T$37)
    2665                      .dwattr $C$DW$T$38, DW_AT_language(DW_LANG_C)
    2666              
    2667              $C$DW$195       .dwtag  DW_TAG_TI_far_type
    2668                      .dwattr $C$DW$195, DW_AT_type(*$C$DW$T$38)
    2669              
    2670              $C$DW$T$39      .dwtag  DW_TAG_const_type
TMS320C2000 Assembler PC v18.1.2 Sun Jun 17 14:52:02 2018

Tools Copyright (c) 1996-2017 Texas Instruments Incorporated
C:\Users\haowp\AppData\Local\Temp\{90C17AA4-2C03-4A74-A215-B08F3B065D28} PAGE   51

    2671                      .dwattr $C$DW$T$39, DW_AT_type(*$C$DW$195)
    2672              
    2673              
    2674              $C$DW$T$40      .dwtag  DW_TAG_enumeration_type
    2675                      .dwattr $C$DW$T$40, DW_AT_byte_size(0x01)
    2676              $C$DW$196       .dwtag  DW_TAG_enumerator
    2677                      .dwattr $C$DW$196, DW_AT_name("ADC_IntSrc_EOC0")
    2678                      .dwattr $C$DW$196, DW_AT_const_value(0x00)
    2679              
    2680              $C$DW$197       .dwtag  DW_TAG_enumerator
    2681                      .dwattr $C$DW$197, DW_AT_name("ADC_IntSrc_EOC1")
    2682                      .dwattr $C$DW$197, DW_AT_const_value(0x01)
    2683              
    2684              $C$DW$198       .dwtag  DW_TAG_enumerator
    2685                      .dwattr $C$DW$198, DW_AT_name("ADC_IntSrc_EOC2")
    2686                      .dwattr $C$DW$198, DW_AT_const_value(0x02)
    2687              
    2688              $C$DW$199       .dwtag  DW_TAG_enumerator
    2689                      .dwattr $C$DW$199, DW_AT_name("ADC_IntSrc_EOC3")
    2690                      .dwattr $C$DW$199, DW_AT_const_value(0x03)
    2691              
    2692              $C$DW$200       .dwtag  DW_TAG_enumerator
    2693                      .dwattr $C$DW$200, DW_AT_name("ADC_IntSrc_EOC4")
    2694                      .dwattr $C$DW$200, DW_AT_const_value(0x04)
    2695              
    2696              $C$DW$201       .dwtag  DW_TAG_enumerator
    2697                      .dwattr $C$DW$201, DW_AT_name("ADC_IntSrc_EOC5")
    2698                      .dwattr $C$DW$201, DW_AT_const_value(0x05)
    2699              
    2700              $C$DW$202       .dwtag  DW_TAG_enumerator
    2701                      .dwattr $C$DW$202, DW_AT_name("ADC_IntSrc_EOC6")
    2702                      .dwattr $C$DW$202, DW_AT_const_value(0x06)
    2703              
    2704              $C$DW$203       .dwtag  DW_TAG_enumerator
    2705                      .dwattr $C$DW$203, DW_AT_name("ADC_IntSrc_EOC7")
    2706                      .dwattr $C$DW$203, DW_AT_const_value(0x07)
    2707              
    2708              $C$DW$204       .dwtag  DW_TAG_enumerator
    2709                      .dwattr $C$DW$204, DW_AT_name("ADC_IntSrc_EOC8")
    2710                      .dwattr $C$DW$204, DW_AT_const_value(0x08)
    2711              
    2712              $C$DW$205       .dwtag  DW_TAG_enumerator
    2713                      .dwattr $C$DW$205, DW_AT_name("ADC_IntSrc_EOC9")
    2714                      .dwattr $C$DW$205, DW_AT_const_value(0x09)
    2715              
    2716              $C$DW$206       .dwtag  DW_TAG_enumerator
    2717                      .dwattr $C$DW$206, DW_AT_name("ADC_IntSrc_EOC10")
    2718                      .dwattr $C$DW$206, DW_AT_const_value(0x0a)
    2719              
    2720              $C$DW$207       .dwtag  DW_TAG_enumerator
    2721                      .dwattr $C$DW$207, DW_AT_name("ADC_IntSrc_EOC11")
    2722                      .dwattr $C$DW$207, DW_AT_const_value(0x0b)
    2723              
    2724              $C$DW$208       .dwtag  DW_TAG_enumerator
    2725                      .dwattr $C$DW$208, DW_AT_name("ADC_IntSrc_EOC12")
TMS320C2000 Assembler PC v18.1.2 Sun Jun 17 14:52:02 2018

Tools Copyright (c) 1996-2017 Texas Instruments Incorporated
C:\Users\haowp\AppData\Local\Temp\{90C17AA4-2C03-4A74-A215-B08F3B065D28} PAGE   52

    2726                      .dwattr $C$DW$208, DW_AT_const_value(0x0c)
    2727              
    2728              $C$DW$209       .dwtag  DW_TAG_enumerator
    2729                      .dwattr $C$DW$209, DW_AT_name("ADC_IntSrc_EOC13")
    2730                      .dwattr $C$DW$209, DW_AT_const_value(0x0d)
    2731              
    2732              $C$DW$210       .dwtag  DW_TAG_enumerator
    2733                      .dwattr $C$DW$210, DW_AT_name("ADC_IntSrc_EOC14")
    2734                      .dwattr $C$DW$210, DW_AT_const_value(0x0e)
    2735              
    2736              $C$DW$211       .dwtag  DW_TAG_enumerator
    2737                      .dwattr $C$DW$211, DW_AT_name("ADC_IntSrc_EOC15")
    2738                      .dwattr $C$DW$211, DW_AT_const_value(0x0f)
    2739              
    2740                      .dwendtag $C$DW$T$40
    2741              
    2742              $C$DW$T$41      .dwtag  DW_TAG_typedef
    2743                      .dwattr $C$DW$T$41, DW_AT_name("ADC_IntSrc_e")
    2744                      .dwattr $C$DW$T$41, DW_AT_type(*$C$DW$T$40)
    2745                      .dwattr $C$DW$T$41, DW_AT_language(DW_LANG_C)
    2746              
    2747              $C$DW$212       .dwtag  DW_TAG_TI_far_type
    2748                      .dwattr $C$DW$212, DW_AT_type(*$C$DW$T$41)
    2749              
    2750              $C$DW$T$42      .dwtag  DW_TAG_const_type
    2751                      .dwattr $C$DW$T$42, DW_AT_type(*$C$DW$212)
    2752              
    2753              
    2754              $C$DW$T$43      .dwtag  DW_TAG_enumeration_type
    2755                      .dwattr $C$DW$T$43, DW_AT_byte_size(0x01)
    2756              $C$DW$213       .dwtag  DW_TAG_enumerator
    2757                      .dwattr $C$DW$213, DW_AT_name("ADC_SampleMode_SOC0_and_SOC1_Separate")
    2758                      .dwattr $C$DW$213, DW_AT_const_value(0x101)
    2759              
    2760              $C$DW$214       .dwtag  DW_TAG_enumerator
    2761                      .dwattr $C$DW$214, DW_AT_name("ADC_SampleMode_SOC2_and_SOC3_Separate")
    2762                      .dwattr $C$DW$214, DW_AT_const_value(0x102)
    2763              
    2764              $C$DW$215       .dwtag  DW_TAG_enumerator
    2765                      .dwattr $C$DW$215, DW_AT_name("ADC_SampleMode_SOC4_and_SOC5_Separate")
    2766                      .dwattr $C$DW$215, DW_AT_const_value(0x104)
    2767              
    2768              $C$DW$216       .dwtag  DW_TAG_enumerator
    2769                      .dwattr $C$DW$216, DW_AT_name("ADC_SampleMode_SOC6_and_SOC7_Separate")
    2770                      .dwattr $C$DW$216, DW_AT_const_value(0x108)
    2771              
    2772              $C$DW$217       .dwtag  DW_TAG_enumerator
    2773                      .dwattr $C$DW$217, DW_AT_name("ADC_SampleMode_SOC8_and_SOC9_Separate")
    2774                      .dwattr $C$DW$217, DW_AT_const_value(0x110)
    2775              
    2776              $C$DW$218       .dwtag  DW_TAG_enumerator
    2777                      .dwattr $C$DW$218, DW_AT_name("ADC_SampleMode_SOC10_and_SOC11_Separate")
    2778                      .dwattr $C$DW$218, DW_AT_const_value(0x120)
    2779              
    2780              $C$DW$219       .dwtag  DW_TAG_enumerator
TMS320C2000 Assembler PC v18.1.2 Sun Jun 17 14:52:02 2018

Tools Copyright (c) 1996-2017 Texas Instruments Incorporated
C:\Users\haowp\AppData\Local\Temp\{90C17AA4-2C03-4A74-A215-B08F3B065D28} PAGE   53

    2781                      .dwattr $C$DW$219, DW_AT_name("ADC_SampleMode_SOC12_and_SOC13_Separate")
    2782                      .dwattr $C$DW$219, DW_AT_const_value(0x140)
    2783              
    2784              $C$DW$220       .dwtag  DW_TAG_enumerator
    2785                      .dwattr $C$DW$220, DW_AT_name("ADC_SampleMode_SOC14_and_SOC15_Separate")
    2786                      .dwattr $C$DW$220, DW_AT_const_value(0x180)
    2787              
    2788              $C$DW$221       .dwtag  DW_TAG_enumerator
    2789                      .dwattr $C$DW$221, DW_AT_name("ADC_SampleMode_SOC0_and_SOC1_Together")
    2790                      .dwattr $C$DW$221, DW_AT_const_value(0x01)
    2791              
    2792              $C$DW$222       .dwtag  DW_TAG_enumerator
    2793                      .dwattr $C$DW$222, DW_AT_name("ADC_SampleMode_SOC2_and_SOC3_Together")
    2794                      .dwattr $C$DW$222, DW_AT_const_value(0x02)
    2795              
    2796              $C$DW$223       .dwtag  DW_TAG_enumerator
    2797                      .dwattr $C$DW$223, DW_AT_name("ADC_SampleMode_SOC4_and_SOC5_Together")
    2798                      .dwattr $C$DW$223, DW_AT_const_value(0x04)
    2799              
    2800              $C$DW$224       .dwtag  DW_TAG_enumerator
    2801                      .dwattr $C$DW$224, DW_AT_name("ADC_SampleMode_SOC6_and_SOC7_Together")
    2802                      .dwattr $C$DW$224, DW_AT_const_value(0x08)
    2803              
    2804              $C$DW$225       .dwtag  DW_TAG_enumerator
    2805                      .dwattr $C$DW$225, DW_AT_name("ADC_SampleMode_SOC8_and_SOC9_Together")
    2806                      .dwattr $C$DW$225, DW_AT_const_value(0x10)
    2807              
    2808              $C$DW$226       .dwtag  DW_TAG_enumerator
    2809                      .dwattr $C$DW$226, DW_AT_name("ADC_SampleMode_SOC10_and_SOC11_Together")
    2810                      .dwattr $C$DW$226, DW_AT_const_value(0x20)
    2811              
    2812              $C$DW$227       .dwtag  DW_TAG_enumerator
    2813                      .dwattr $C$DW$227, DW_AT_name("ADC_SampleMode_SOC12_and_SOC13_Together")
    2814                      .dwattr $C$DW$227, DW_AT_const_value(0x40)
    2815              
    2816              $C$DW$228       .dwtag  DW_TAG_enumerator
    2817                      .dwattr $C$DW$228, DW_AT_name("ADC_SampleMode_SOC14_and_SOC15_Together")
    2818                      .dwattr $C$DW$228, DW_AT_const_value(0x80)
    2819              
    2820                      .dwendtag $C$DW$T$43
    2821              
    2822              $C$DW$T$44      .dwtag  DW_TAG_typedef
    2823                      .dwattr $C$DW$T$44, DW_AT_name("ADC_SampleMode_e")
    2824                      .dwattr $C$DW$T$44, DW_AT_type(*$C$DW$T$43)
    2825                      .dwattr $C$DW$T$44, DW_AT_language(DW_LANG_C)
    2826              
    2827              $C$DW$229       .dwtag  DW_TAG_TI_far_type
    2828                      .dwattr $C$DW$229, DW_AT_type(*$C$DW$T$44)
    2829              
    2830              $C$DW$T$45      .dwtag  DW_TAG_const_type
    2831                      .dwattr $C$DW$T$45, DW_AT_type(*$C$DW$229)
    2832              
    2833              
    2834              $C$DW$T$46      .dwtag  DW_TAG_enumeration_type
    2835                      .dwattr $C$DW$T$46, DW_AT_byte_size(0x01)
TMS320C2000 Assembler PC v18.1.2 Sun Jun 17 14:52:02 2018

Tools Copyright (c) 1996-2017 Texas Instruments Incorporated
C:\Users\haowp\AppData\Local\Temp\{90C17AA4-2C03-4A74-A215-B08F3B065D28} PAGE   54

    2836              $C$DW$230       .dwtag  DW_TAG_enumerator
    2837                      .dwattr $C$DW$230, DW_AT_name("ADC_SocNumber_0")
    2838                      .dwattr $C$DW$230, DW_AT_const_value(0x00)
    2839              
    2840              $C$DW$231       .dwtag  DW_TAG_enumerator
    2841                      .dwattr $C$DW$231, DW_AT_name("ADC_SocNumber_1")
    2842                      .dwattr $C$DW$231, DW_AT_const_value(0x01)
    2843              
    2844              $C$DW$232       .dwtag  DW_TAG_enumerator
    2845                      .dwattr $C$DW$232, DW_AT_name("ADC_SocNumber_2")
    2846                      .dwattr $C$DW$232, DW_AT_const_value(0x02)
    2847              
    2848              $C$DW$233       .dwtag  DW_TAG_enumerator
    2849                      .dwattr $C$DW$233, DW_AT_name("ADC_SocNumber_3")
    2850                      .dwattr $C$DW$233, DW_AT_const_value(0x03)
    2851              
    2852              $C$DW$234       .dwtag  DW_TAG_enumerator
    2853                      .dwattr $C$DW$234, DW_AT_name("ADC_SocNumber_4")
    2854                      .dwattr $C$DW$234, DW_AT_const_value(0x04)
    2855              
    2856              $C$DW$235       .dwtag  DW_TAG_enumerator
    2857                      .dwattr $C$DW$235, DW_AT_name("ADC_SocNumber_5")
    2858                      .dwattr $C$DW$235, DW_AT_const_value(0x05)
    2859              
    2860              $C$DW$236       .dwtag  DW_TAG_enumerator
    2861                      .dwattr $C$DW$236, DW_AT_name("ADC_SocNumber_6")
    2862                      .dwattr $C$DW$236, DW_AT_const_value(0x06)
    2863              
    2864              $C$DW$237       .dwtag  DW_TAG_enumerator
    2865                      .dwattr $C$DW$237, DW_AT_name("ADC_SocNumber_7")
    2866                      .dwattr $C$DW$237, DW_AT_const_value(0x07)
    2867              
    2868              $C$DW$238       .dwtag  DW_TAG_enumerator
    2869                      .dwattr $C$DW$238, DW_AT_name("ADC_SocNumber_8")
    2870                      .dwattr $C$DW$238, DW_AT_const_value(0x08)
    2871              
    2872              $C$DW$239       .dwtag  DW_TAG_enumerator
    2873                      .dwattr $C$DW$239, DW_AT_name("ADC_SocNumber_9")
    2874                      .dwattr $C$DW$239, DW_AT_const_value(0x09)
    2875              
    2876              $C$DW$240       .dwtag  DW_TAG_enumerator
    2877                      .dwattr $C$DW$240, DW_AT_name("ADC_SocNumber_10")
    2878                      .dwattr $C$DW$240, DW_AT_const_value(0x0a)
    2879              
    2880              $C$DW$241       .dwtag  DW_TAG_enumerator
    2881                      .dwattr $C$DW$241, DW_AT_name("ADC_SocNumber_11")
    2882                      .dwattr $C$DW$241, DW_AT_const_value(0x0b)
    2883              
    2884              $C$DW$242       .dwtag  DW_TAG_enumerator
    2885                      .dwattr $C$DW$242, DW_AT_name("ADC_SocNumber_12")
    2886                      .dwattr $C$DW$242, DW_AT_const_value(0x0c)
    2887              
    2888              $C$DW$243       .dwtag  DW_TAG_enumerator
    2889                      .dwattr $C$DW$243, DW_AT_name("ADC_SocNumber_13")
    2890                      .dwattr $C$DW$243, DW_AT_const_value(0x0d)
TMS320C2000 Assembler PC v18.1.2 Sun Jun 17 14:52:02 2018

Tools Copyright (c) 1996-2017 Texas Instruments Incorporated
C:\Users\haowp\AppData\Local\Temp\{90C17AA4-2C03-4A74-A215-B08F3B065D28} PAGE   55

    2891              
    2892              $C$DW$244       .dwtag  DW_TAG_enumerator
    2893                      .dwattr $C$DW$244, DW_AT_name("ADC_SocNumber_14")
    2894                      .dwattr $C$DW$244, DW_AT_const_value(0x0e)
    2895              
    2896              $C$DW$245       .dwtag  DW_TAG_enumerator
    2897                      .dwattr $C$DW$245, DW_AT_name("ADC_SocNumber_15")
    2898                      .dwattr $C$DW$245, DW_AT_const_value(0x0f)
    2899              
    2900                      .dwendtag $C$DW$T$46
    2901              
    2902              $C$DW$T$47      .dwtag  DW_TAG_typedef
    2903                      .dwattr $C$DW$T$47, DW_AT_name("ADC_SocNumber_e")
    2904                      .dwattr $C$DW$T$47, DW_AT_type(*$C$DW$T$46)
    2905                      .dwattr $C$DW$T$47, DW_AT_language(DW_LANG_C)
    2906              
    2907              $C$DW$246       .dwtag  DW_TAG_TI_far_type
    2908                      .dwattr $C$DW$246, DW_AT_type(*$C$DW$T$47)
    2909              
    2910              $C$DW$T$48      .dwtag  DW_TAG_const_type
    2911                      .dwattr $C$DW$T$48, DW_AT_type(*$C$DW$246)
    2912              
    2913              
    2914              $C$DW$T$49      .dwtag  DW_TAG_enumeration_type
    2915                      .dwattr $C$DW$T$49, DW_AT_byte_size(0x01)
    2916              $C$DW$247       .dwtag  DW_TAG_enumerator
    2917                      .dwattr $C$DW$247, DW_AT_name("ADC_SocChanNumber_A0")
    2918                      .dwattr $C$DW$247, DW_AT_const_value(0x00)
    2919              
    2920              $C$DW$248       .dwtag  DW_TAG_enumerator
    2921                      .dwattr $C$DW$248, DW_AT_name("ADC_SocChanNumber_A1")
    2922                      .dwattr $C$DW$248, DW_AT_const_value(0x40)
    2923              
    2924              $C$DW$249       .dwtag  DW_TAG_enumerator
    2925                      .dwattr $C$DW$249, DW_AT_name("ADC_SocChanNumber_A2")
    2926                      .dwattr $C$DW$249, DW_AT_const_value(0x80)
    2927              
    2928              $C$DW$250       .dwtag  DW_TAG_enumerator
    2929                      .dwattr $C$DW$250, DW_AT_name("ADC_SocChanNumber_A3")
    2930                      .dwattr $C$DW$250, DW_AT_const_value(0xc0)
    2931              
    2932              $C$DW$251       .dwtag  DW_TAG_enumerator
    2933                      .dwattr $C$DW$251, DW_AT_name("ADC_SocChanNumber_A4")
    2934                      .dwattr $C$DW$251, DW_AT_const_value(0x100)
    2935              
    2936              $C$DW$252       .dwtag  DW_TAG_enumerator
    2937                      .dwattr $C$DW$252, DW_AT_name("ADC_SocChanNumber_A5")
    2938                      .dwattr $C$DW$252, DW_AT_const_value(0x140)
    2939              
    2940              $C$DW$253       .dwtag  DW_TAG_enumerator
    2941                      .dwattr $C$DW$253, DW_AT_name("ADC_SocChanNumber_A6")
    2942                      .dwattr $C$DW$253, DW_AT_const_value(0x180)
    2943              
    2944              $C$DW$254       .dwtag  DW_TAG_enumerator
    2945                      .dwattr $C$DW$254, DW_AT_name("ADC_SocChanNumber_A7")
TMS320C2000 Assembler PC v18.1.2 Sun Jun 17 14:52:02 2018

Tools Copyright (c) 1996-2017 Texas Instruments Incorporated
C:\Users\haowp\AppData\Local\Temp\{90C17AA4-2C03-4A74-A215-B08F3B065D28} PAGE   56

    2946                      .dwattr $C$DW$254, DW_AT_const_value(0x1c0)
    2947              
    2948              $C$DW$255       .dwtag  DW_TAG_enumerator
    2949                      .dwattr $C$DW$255, DW_AT_name("ADC_SocChanNumber_B0")
    2950                      .dwattr $C$DW$255, DW_AT_const_value(0x200)
    2951              
    2952              $C$DW$256       .dwtag  DW_TAG_enumerator
    2953                      .dwattr $C$DW$256, DW_AT_name("ADC_SocChanNumber_B1")
    2954                      .dwattr $C$DW$256, DW_AT_const_value(0x240)
    2955              
    2956              $C$DW$257       .dwtag  DW_TAG_enumerator
    2957                      .dwattr $C$DW$257, DW_AT_name("ADC_SocChanNumber_B2")
    2958                      .dwattr $C$DW$257, DW_AT_const_value(0x280)
    2959              
    2960              $C$DW$258       .dwtag  DW_TAG_enumerator
    2961                      .dwattr $C$DW$258, DW_AT_name("ADC_SocChanNumber_B3")
    2962                      .dwattr $C$DW$258, DW_AT_const_value(0x2c0)
    2963              
    2964              $C$DW$259       .dwtag  DW_TAG_enumerator
    2965                      .dwattr $C$DW$259, DW_AT_name("ADC_SocChanNumber_B4")
    2966                      .dwattr $C$DW$259, DW_AT_const_value(0x300)
    2967              
    2968              $C$DW$260       .dwtag  DW_TAG_enumerator
    2969                      .dwattr $C$DW$260, DW_AT_name("ADC_SocChanNumber_B5")
    2970                      .dwattr $C$DW$260, DW_AT_const_value(0x340)
    2971              
    2972              $C$DW$261       .dwtag  DW_TAG_enumerator
    2973                      .dwattr $C$DW$261, DW_AT_name("ADC_SocChanNumber_B6")
    2974                      .dwattr $C$DW$261, DW_AT_const_value(0x380)
    2975              
    2976              $C$DW$262       .dwtag  DW_TAG_enumerator
    2977                      .dwattr $C$DW$262, DW_AT_name("ADC_SocChanNumber_B7")
    2978                      .dwattr $C$DW$262, DW_AT_const_value(0x3c0)
    2979              
    2980              $C$DW$263       .dwtag  DW_TAG_enumerator
    2981                      .dwattr $C$DW$263, DW_AT_name("ADC_SocChanNumber_A0_and_B0_Together")
    2982                      .dwattr $C$DW$263, DW_AT_const_value(0x00)
    2983              
    2984              $C$DW$264       .dwtag  DW_TAG_enumerator
    2985                      .dwattr $C$DW$264, DW_AT_name("ADC_SocChanNumber_A1_and_B1_Together")
    2986                      .dwattr $C$DW$264, DW_AT_const_value(0x40)
    2987              
    2988              $C$DW$265       .dwtag  DW_TAG_enumerator
    2989                      .dwattr $C$DW$265, DW_AT_name("ADC_SocChanNumber_A2_and_B2_Together")
    2990                      .dwattr $C$DW$265, DW_AT_const_value(0x80)
    2991              
    2992              $C$DW$266       .dwtag  DW_TAG_enumerator
    2993                      .dwattr $C$DW$266, DW_AT_name("ADC_SocChanNumber_A3_and_B3_Together")
    2994                      .dwattr $C$DW$266, DW_AT_const_value(0xc0)
    2995              
    2996              $C$DW$267       .dwtag  DW_TAG_enumerator
    2997                      .dwattr $C$DW$267, DW_AT_name("ADC_SocChanNumber_A4_and_B4_Together")
    2998                      .dwattr $C$DW$267, DW_AT_const_value(0x100)
    2999              
    3000              $C$DW$268       .dwtag  DW_TAG_enumerator
TMS320C2000 Assembler PC v18.1.2 Sun Jun 17 14:52:02 2018

Tools Copyright (c) 1996-2017 Texas Instruments Incorporated
C:\Users\haowp\AppData\Local\Temp\{90C17AA4-2C03-4A74-A215-B08F3B065D28} PAGE   57

    3001                      .dwattr $C$DW$268, DW_AT_name("ADC_SocChanNumber_A5_and_B5_Together")
    3002                      .dwattr $C$DW$268, DW_AT_const_value(0x140)
    3003              
    3004              $C$DW$269       .dwtag  DW_TAG_enumerator
    3005                      .dwattr $C$DW$269, DW_AT_name("ADC_SocChanNumber_A6_and_B6_Together")
    3006                      .dwattr $C$DW$269, DW_AT_const_value(0x180)
    3007              
    3008              $C$DW$270       .dwtag  DW_TAG_enumerator
    3009                      .dwattr $C$DW$270, DW_AT_name("ADC_SocChanNumber_A7_and_B7_Together")
    3010                      .dwattr $C$DW$270, DW_AT_const_value(0x1c0)
    3011              
    3012                      .dwendtag $C$DW$T$49
    3013              
    3014              $C$DW$T$50      .dwtag  DW_TAG_typedef
    3015                      .dwattr $C$DW$T$50, DW_AT_name("ADC_SocChanNumber_e")
    3016                      .dwattr $C$DW$T$50, DW_AT_type(*$C$DW$T$49)
    3017                      .dwattr $C$DW$T$50, DW_AT_language(DW_LANG_C)
    3018              
    3019              $C$DW$271       .dwtag  DW_TAG_TI_far_type
    3020                      .dwattr $C$DW$271, DW_AT_type(*$C$DW$T$50)
    3021              
    3022              $C$DW$T$51      .dwtag  DW_TAG_const_type
    3023                      .dwattr $C$DW$T$51, DW_AT_type(*$C$DW$271)
    3024              
    3025              
    3026              $C$DW$T$52      .dwtag  DW_TAG_enumeration_type
    3027                      .dwattr $C$DW$T$52, DW_AT_byte_size(0x01)
    3028              $C$DW$272       .dwtag  DW_TAG_enumerator
    3029                      .dwattr $C$DW$272, DW_AT_name("ADC_SocSampleDelay_7_cycles")
    3030                      .dwattr $C$DW$272, DW_AT_const_value(0x06)
    3031              
    3032              $C$DW$273       .dwtag  DW_TAG_enumerator
    3033                      .dwattr $C$DW$273, DW_AT_name("ADC_SocSampleDelay_8_cycles")
    3034                      .dwattr $C$DW$273, DW_AT_const_value(0x07)
    3035              
    3036              $C$DW$274       .dwtag  DW_TAG_enumerator
    3037                      .dwattr $C$DW$274, DW_AT_name("ADC_SocSampleDelay_9_cycles")
    3038                      .dwattr $C$DW$274, DW_AT_const_value(0x08)
    3039              
    3040              $C$DW$275       .dwtag  DW_TAG_enumerator
    3041                      .dwattr $C$DW$275, DW_AT_name("ADC_SocSampleDelay_10_cycles")
    3042                      .dwattr $C$DW$275, DW_AT_const_value(0x09)
    3043              
    3044              $C$DW$276       .dwtag  DW_TAG_enumerator
    3045                      .dwattr $C$DW$276, DW_AT_name("ADC_SocSampleDelay_11_cycles")
    3046                      .dwattr $C$DW$276, DW_AT_const_value(0x0a)
    3047              
    3048              $C$DW$277       .dwtag  DW_TAG_enumerator
    3049                      .dwattr $C$DW$277, DW_AT_name("ADC_SocSampleDelay_12_cycles")
    3050                      .dwattr $C$DW$277, DW_AT_const_value(0x0b)
    3051              
    3052              $C$DW$278       .dwtag  DW_TAG_enumerator
    3053                      .dwattr $C$DW$278, DW_AT_name("ADC_SocSampleDelay_13_cycles")
    3054                      .dwattr $C$DW$278, DW_AT_const_value(0x0c)
    3055              
TMS320C2000 Assembler PC v18.1.2 Sun Jun 17 14:52:02 2018

Tools Copyright (c) 1996-2017 Texas Instruments Incorporated
C:\Users\haowp\AppData\Local\Temp\{90C17AA4-2C03-4A74-A215-B08F3B065D28} PAGE   58

    3056              $C$DW$279       .dwtag  DW_TAG_enumerator
    3057                      .dwattr $C$DW$279, DW_AT_name("ADC_SocSampleDelay_14_cycles")
    3058                      .dwattr $C$DW$279, DW_AT_const_value(0x0d)
    3059              
    3060              $C$DW$280       .dwtag  DW_TAG_enumerator
    3061                      .dwattr $C$DW$280, DW_AT_name("ADC_SocSampleDelay_15_cycles")
    3062                      .dwattr $C$DW$280, DW_AT_const_value(0x0e)
    3063              
    3064              $C$DW$281       .dwtag  DW_TAG_enumerator
    3065                      .dwattr $C$DW$281, DW_AT_name("ADC_SocSampleDelay_16_cycles")
    3066                      .dwattr $C$DW$281, DW_AT_const_value(0x0f)
    3067              
    3068              $C$DW$282       .dwtag  DW_TAG_enumerator
    3069                      .dwattr $C$DW$282, DW_AT_name("ADC_SocSampleDelay_22_cycles")
    3070                      .dwattr $C$DW$282, DW_AT_const_value(0x15)
    3071              
    3072              $C$DW$283       .dwtag  DW_TAG_enumerator
    3073                      .dwattr $C$DW$283, DW_AT_name("ADC_SocSampleDelay_23_cycles")
    3074                      .dwattr $C$DW$283, DW_AT_const_value(0x16)
    3075              
    3076              $C$DW$284       .dwtag  DW_TAG_enumerator
    3077                      .dwattr $C$DW$284, DW_AT_name("ADC_SocSampleDelay_24_cycles")
    3078                      .dwattr $C$DW$284, DW_AT_const_value(0x17)
    3079              
    3080              $C$DW$285       .dwtag  DW_TAG_enumerator
    3081                      .dwattr $C$DW$285, DW_AT_name("ADC_SocSampleDelay_25_cycles")
    3082                      .dwattr $C$DW$285, DW_AT_const_value(0x18)
    3083              
    3084              $C$DW$286       .dwtag  DW_TAG_enumerator
    3085                      .dwattr $C$DW$286, DW_AT_name("ADC_SocSampleDelay_26_cycles")
    3086                      .dwattr $C$DW$286, DW_AT_const_value(0x19)
    3087              
    3088              $C$DW$287       .dwtag  DW_TAG_enumerator
    3089                      .dwattr $C$DW$287, DW_AT_name("ADC_SocSampleDelay_27_cycles")
    3090                      .dwattr $C$DW$287, DW_AT_const_value(0x1a)
    3091              
    3092              $C$DW$288       .dwtag  DW_TAG_enumerator
    3093                      .dwattr $C$DW$288, DW_AT_name("ADC_SocSampleDelay_28_cycles")
    3094                      .dwattr $C$DW$288, DW_AT_const_value(0x1b)
    3095              
    3096              $C$DW$289       .dwtag  DW_TAG_enumerator
    3097                      .dwattr $C$DW$289, DW_AT_name("ADC_SocSampleDelay_29_cycles")
    3098                      .dwattr $C$DW$289, DW_AT_const_value(0x1c)
    3099              
    3100              $C$DW$290       .dwtag  DW_TAG_enumerator
    3101                      .dwattr $C$DW$290, DW_AT_name("ADC_SocSampleDelay_35_cycles")
    3102                      .dwattr $C$DW$290, DW_AT_const_value(0x22)
    3103              
    3104              $C$DW$291       .dwtag  DW_TAG_enumerator
    3105                      .dwattr $C$DW$291, DW_AT_name("ADC_SocSampleDelay_36_cycles")
    3106                      .dwattr $C$DW$291, DW_AT_const_value(0x23)
    3107              
    3108              $C$DW$292       .dwtag  DW_TAG_enumerator
    3109                      .dwattr $C$DW$292, DW_AT_name("ADC_SocSampleDelay_37_cycles")
    3110                      .dwattr $C$DW$292, DW_AT_const_value(0x24)
TMS320C2000 Assembler PC v18.1.2 Sun Jun 17 14:52:02 2018

Tools Copyright (c) 1996-2017 Texas Instruments Incorporated
C:\Users\haowp\AppData\Local\Temp\{90C17AA4-2C03-4A74-A215-B08F3B065D28} PAGE   59

    3111              
    3112              $C$DW$293       .dwtag  DW_TAG_enumerator
    3113                      .dwattr $C$DW$293, DW_AT_name("ADC_SocSampleDelay_38_cycles")
    3114                      .dwattr $C$DW$293, DW_AT_const_value(0x25)
    3115              
    3116              $C$DW$294       .dwtag  DW_TAG_enumerator
    3117                      .dwattr $C$DW$294, DW_AT_name("ADC_SocSampleDelay_39_cycles")
    3118                      .dwattr $C$DW$294, DW_AT_const_value(0x26)
    3119              
    3120              $C$DW$295       .dwtag  DW_TAG_enumerator
    3121                      .dwattr $C$DW$295, DW_AT_name("ADC_SocSampleDelay_40_cycles")
    3122                      .dwattr $C$DW$295, DW_AT_const_value(0x27)
    3123              
    3124              $C$DW$296       .dwtag  DW_TAG_enumerator
    3125                      .dwattr $C$DW$296, DW_AT_name("ADC_SocSampleDelay_41_cycles")
    3126                      .dwattr $C$DW$296, DW_AT_const_value(0x28)
    3127              
    3128              $C$DW$297       .dwtag  DW_TAG_enumerator
    3129                      .dwattr $C$DW$297, DW_AT_name("ADC_SocSampleDelay_42_cycles")
    3130                      .dwattr $C$DW$297, DW_AT_const_value(0x29)
    3131              
    3132              $C$DW$298       .dwtag  DW_TAG_enumerator
    3133                      .dwattr $C$DW$298, DW_AT_name("ADC_SocSampleDelay_48_cycles")
    3134                      .dwattr $C$DW$298, DW_AT_const_value(0x2f)
    3135              
    3136              $C$DW$299       .dwtag  DW_TAG_enumerator
    3137                      .dwattr $C$DW$299, DW_AT_name("ADC_SocSampleDelay_49_cycles")
    3138                      .dwattr $C$DW$299, DW_AT_const_value(0x30)
    3139              
    3140              $C$DW$300       .dwtag  DW_TAG_enumerator
    3141                      .dwattr $C$DW$300, DW_AT_name("ADC_SocSampleDelay_50_cycles")
    3142                      .dwattr $C$DW$300, DW_AT_const_value(0x31)
    3143              
    3144              $C$DW$301       .dwtag  DW_TAG_enumerator
    3145                      .dwattr $C$DW$301, DW_AT_name("ADC_SocSampleDelay_51_cycles")
    3146                      .dwattr $C$DW$301, DW_AT_const_value(0x32)
    3147              
    3148              $C$DW$302       .dwtag  DW_TAG_enumerator
    3149                      .dwattr $C$DW$302, DW_AT_name("ADC_SocSampleDelay_52_cycles")
    3150                      .dwattr $C$DW$302, DW_AT_const_value(0x33)
    3151              
    3152              $C$DW$303       .dwtag  DW_TAG_enumerator
    3153                      .dwattr $C$DW$303, DW_AT_name("ADC_SocSampleDelay_53_cycles")
    3154                      .dwattr $C$DW$303, DW_AT_const_value(0x34)
    3155              
    3156              $C$DW$304       .dwtag  DW_TAG_enumerator
    3157                      .dwattr $C$DW$304, DW_AT_name("ADC_SocSampleDelay_54_cycles")
    3158                      .dwattr $C$DW$304, DW_AT_const_value(0x35)
    3159              
    3160              $C$DW$305       .dwtag  DW_TAG_enumerator
    3161                      .dwattr $C$DW$305, DW_AT_name("ADC_SocSampleDelay_55_cycles")
    3162                      .dwattr $C$DW$305, DW_AT_const_value(0x36)
    3163              
    3164              $C$DW$306       .dwtag  DW_TAG_enumerator
    3165                      .dwattr $C$DW$306, DW_AT_name("ADC_SocSampleDelay_61_cycles")
TMS320C2000 Assembler PC v18.1.2 Sun Jun 17 14:52:02 2018

Tools Copyright (c) 1996-2017 Texas Instruments Incorporated
C:\Users\haowp\AppData\Local\Temp\{90C17AA4-2C03-4A74-A215-B08F3B065D28} PAGE   60

    3166                      .dwattr $C$DW$306, DW_AT_const_value(0x3c)
    3167              
    3168              $C$DW$307       .dwtag  DW_TAG_enumerator
    3169                      .dwattr $C$DW$307, DW_AT_name("ADC_SocSampleDelay_62_cycles")
    3170                      .dwattr $C$DW$307, DW_AT_const_value(0x3d)
    3171              
    3172              $C$DW$308       .dwtag  DW_TAG_enumerator
    3173                      .dwattr $C$DW$308, DW_AT_name("ADC_SocSampleDelay_63_cycles")
    3174                      .dwattr $C$DW$308, DW_AT_const_value(0x3e)
    3175              
    3176              $C$DW$309       .dwtag  DW_TAG_enumerator
    3177                      .dwattr $C$DW$309, DW_AT_name("ADC_SocSampleDelay_64_cycles")
    3178                      .dwattr $C$DW$309, DW_AT_const_value(0x3f)
    3179              
    3180                      .dwendtag $C$DW$T$52
    3181              
    3182              $C$DW$T$53      .dwtag  DW_TAG_typedef
    3183                      .dwattr $C$DW$T$53, DW_AT_name("ADC_SocSampleDelay_e")
    3184                      .dwattr $C$DW$T$53, DW_AT_type(*$C$DW$T$52)
    3185                      .dwattr $C$DW$T$53, DW_AT_language(DW_LANG_C)
    3186              
    3187              $C$DW$310       .dwtag  DW_TAG_TI_far_type
    3188                      .dwattr $C$DW$310, DW_AT_type(*$C$DW$T$53)
    3189              
    3190              $C$DW$T$54      .dwtag  DW_TAG_const_type
    3191                      .dwattr $C$DW$T$54, DW_AT_type(*$C$DW$310)
    3192              
    3193              
    3194              $C$DW$T$55      .dwtag  DW_TAG_enumeration_type
    3195                      .dwattr $C$DW$T$55, DW_AT_byte_size(0x01)
    3196              $C$DW$311       .dwtag  DW_TAG_enumerator
    3197                      .dwattr $C$DW$311, DW_AT_name("ADC_SocTrigSrc_Sw")
    3198                      .dwattr $C$DW$311, DW_AT_const_value(0x00)
    3199              
    3200              $C$DW$312       .dwtag  DW_TAG_enumerator
    3201                      .dwattr $C$DW$312, DW_AT_name("ADC_SocTrigSrc_CpuTimer_0")
    3202                      .dwattr $C$DW$312, DW_AT_const_value(0x800)
    3203              
    3204              $C$DW$313       .dwtag  DW_TAG_enumerator
    3205                      .dwattr $C$DW$313, DW_AT_name("ADC_SocTrigSrc_CpuTimer_1")
    3206                      .dwattr $C$DW$313, DW_AT_const_value(0x1000)
    3207              
    3208              $C$DW$314       .dwtag  DW_TAG_enumerator
    3209                      .dwattr $C$DW$314, DW_AT_name("ADC_SocTrigSrc_CpuTimer_2")
    3210                      .dwattr $C$DW$314, DW_AT_const_value(0x1800)
    3211              
    3212              $C$DW$315       .dwtag  DW_TAG_enumerator
    3213                      .dwattr $C$DW$315, DW_AT_name("ADC_SocTrigSrc_XINT2_XINT2SOC")
    3214                      .dwattr $C$DW$315, DW_AT_const_value(0x2000)
    3215              
    3216              $C$DW$316       .dwtag  DW_TAG_enumerator
    3217                      .dwattr $C$DW$316, DW_AT_name("ADC_SocTrigSrc_EPWM1_ADCSOCA")
    3218                      .dwattr $C$DW$316, DW_AT_const_value(0x2800)
    3219              
    3220              $C$DW$317       .dwtag  DW_TAG_enumerator
TMS320C2000 Assembler PC v18.1.2 Sun Jun 17 14:52:02 2018

Tools Copyright (c) 1996-2017 Texas Instruments Incorporated
C:\Users\haowp\AppData\Local\Temp\{90C17AA4-2C03-4A74-A215-B08F3B065D28} PAGE   61

    3221                      .dwattr $C$DW$317, DW_AT_name("ADC_SocTrigSrc_EPWM1_ADCSOCB")
    3222                      .dwattr $C$DW$317, DW_AT_const_value(0x3000)
    3223              
    3224              $C$DW$318       .dwtag  DW_TAG_enumerator
    3225                      .dwattr $C$DW$318, DW_AT_name("ADC_SocTrigSrc_EPWM2_ADCSOCA")
    3226                      .dwattr $C$DW$318, DW_AT_const_value(0x3800)
    3227              
    3228              $C$DW$319       .dwtag  DW_TAG_enumerator
    3229                      .dwattr $C$DW$319, DW_AT_name("ADC_SocTrigSrc_EPWM2_ADCSOCB")
    3230                      .dwattr $C$DW$319, DW_AT_const_value(0x4000)
    3231              
    3232              $C$DW$320       .dwtag  DW_TAG_enumerator
    3233                      .dwattr $C$DW$320, DW_AT_name("ADC_SocTrigSrc_EPWM3_ADCSOCA")
    3234                      .dwattr $C$DW$320, DW_AT_const_value(0x4800)
    3235              
    3236              $C$DW$321       .dwtag  DW_TAG_enumerator
    3237                      .dwattr $C$DW$321, DW_AT_name("ADC_SocTrigSrc_EPWM3_ADCSOCB")
    3238                      .dwattr $C$DW$321, DW_AT_const_value(0x5000)
    3239              
    3240              $C$DW$322       .dwtag  DW_TAG_enumerator
    3241                      .dwattr $C$DW$322, DW_AT_name("ADC_SocTrigSrc_EPWM4_ADCSOCA")
    3242                      .dwattr $C$DW$322, DW_AT_const_value(0x5800)
    3243              
    3244              $C$DW$323       .dwtag  DW_TAG_enumerator
    3245                      .dwattr $C$DW$323, DW_AT_name("ADC_SocTrigSrc_EPWM4_ADCSOCB")
    3246                      .dwattr $C$DW$323, DW_AT_const_value(0x6000)
    3247              
    3248                      .dwendtag $C$DW$T$55
    3249              
    3250              $C$DW$T$56      .dwtag  DW_TAG_typedef
    3251                      .dwattr $C$DW$T$56, DW_AT_name("ADC_SocTrigSrc_e")
    3252                      .dwattr $C$DW$T$56, DW_AT_type(*$C$DW$T$55)
    3253                      .dwattr $C$DW$T$56, DW_AT_language(DW_LANG_C)
    3254              
    3255              $C$DW$324       .dwtag  DW_TAG_TI_far_type
    3256                      .dwattr $C$DW$324, DW_AT_type(*$C$DW$T$56)
    3257              
    3258              $C$DW$T$57      .dwtag  DW_TAG_const_type
    3259                      .dwattr $C$DW$T$57, DW_AT_type(*$C$DW$324)
    3260              
    3261              
    3262              $C$DW$T$58      .dwtag  DW_TAG_enumeration_type
    3263                      .dwattr $C$DW$T$58, DW_AT_byte_size(0x01)
    3264              $C$DW$325       .dwtag  DW_TAG_enumerator
    3265                      .dwattr $C$DW$325, DW_AT_name("ADC_SocFrc_0")
    3266                      .dwattr $C$DW$325, DW_AT_const_value(0x00)
    3267              
    3268              $C$DW$326       .dwtag  DW_TAG_enumerator
    3269                      .dwattr $C$DW$326, DW_AT_name("ADC_SocFrc_1")
    3270                      .dwattr $C$DW$326, DW_AT_const_value(0x01)
    3271              
    3272              $C$DW$327       .dwtag  DW_TAG_enumerator
    3273                      .dwattr $C$DW$327, DW_AT_name("ADC_SocFrc_2")
    3274                      .dwattr $C$DW$327, DW_AT_const_value(0x02)
    3275              
TMS320C2000 Assembler PC v18.1.2 Sun Jun 17 14:52:02 2018

Tools Copyright (c) 1996-2017 Texas Instruments Incorporated
C:\Users\haowp\AppData\Local\Temp\{90C17AA4-2C03-4A74-A215-B08F3B065D28} PAGE   62

    3276              $C$DW$328       .dwtag  DW_TAG_enumerator
    3277                      .dwattr $C$DW$328, DW_AT_name("ADC_SocFrc_3")
    3278                      .dwattr $C$DW$328, DW_AT_const_value(0x03)
    3279              
    3280              $C$DW$329       .dwtag  DW_TAG_enumerator
    3281                      .dwattr $C$DW$329, DW_AT_name("ADC_SocFrc_4")
    3282                      .dwattr $C$DW$329, DW_AT_const_value(0x04)
    3283              
    3284              $C$DW$330       .dwtag  DW_TAG_enumerator
    3285                      .dwattr $C$DW$330, DW_AT_name("ADC_SocFrc_5")
    3286                      .dwattr $C$DW$330, DW_AT_const_value(0x05)
    3287              
    3288              $C$DW$331       .dwtag  DW_TAG_enumerator
    3289                      .dwattr $C$DW$331, DW_AT_name("ADC_SocFrc_6")
    3290                      .dwattr $C$DW$331, DW_AT_const_value(0x06)
    3291              
    3292              $C$DW$332       .dwtag  DW_TAG_enumerator
    3293                      .dwattr $C$DW$332, DW_AT_name("ADC_SocFrc_7")
    3294                      .dwattr $C$DW$332, DW_AT_const_value(0x07)
    3295              
    3296              $C$DW$333       .dwtag  DW_TAG_enumerator
    3297                      .dwattr $C$DW$333, DW_AT_name("ADC_SocFrc_8")
    3298                      .dwattr $C$DW$333, DW_AT_const_value(0x08)
    3299              
    3300              $C$DW$334       .dwtag  DW_TAG_enumerator
    3301                      .dwattr $C$DW$334, DW_AT_name("ADC_SocFrc_9")
    3302                      .dwattr $C$DW$334, DW_AT_const_value(0x09)
    3303              
    3304              $C$DW$335       .dwtag  DW_TAG_enumerator
    3305                      .dwattr $C$DW$335, DW_AT_name("ADC_SocFrc_10")
    3306                      .dwattr $C$DW$335, DW_AT_const_value(0x0a)
    3307              
    3308              $C$DW$336       .dwtag  DW_TAG_enumerator
    3309                      .dwattr $C$DW$336, DW_AT_name("ADC_SocFrc_11")
    3310                      .dwattr $C$DW$336, DW_AT_const_value(0x0b)
    3311              
    3312              $C$DW$337       .dwtag  DW_TAG_enumerator
    3313                      .dwattr $C$DW$337, DW_AT_name("ADC_SocFrc_12")
    3314                      .dwattr $C$DW$337, DW_AT_const_value(0x0c)
    3315              
    3316              $C$DW$338       .dwtag  DW_TAG_enumerator
    3317                      .dwattr $C$DW$338, DW_AT_name("ADC_SocFrc_13")
    3318                      .dwattr $C$DW$338, DW_AT_const_value(0x0d)
    3319              
    3320              $C$DW$339       .dwtag  DW_TAG_enumerator
    3321                      .dwattr $C$DW$339, DW_AT_name("ADC_SocFrc_14")
    3322                      .dwattr $C$DW$339, DW_AT_const_value(0x0e)
    3323              
    3324              $C$DW$340       .dwtag  DW_TAG_enumerator
    3325                      .dwattr $C$DW$340, DW_AT_name("ADC_SocFrc_15")
    3326                      .dwattr $C$DW$340, DW_AT_const_value(0x0f)
    3327              
    3328                      .dwendtag $C$DW$T$58
    3329              
    3330              $C$DW$T$59      .dwtag  DW_TAG_typedef
TMS320C2000 Assembler PC v18.1.2 Sun Jun 17 14:52:02 2018

Tools Copyright (c) 1996-2017 Texas Instruments Incorporated
C:\Users\haowp\AppData\Local\Temp\{90C17AA4-2C03-4A74-A215-B08F3B065D28} PAGE   63

    3331                      .dwattr $C$DW$T$59, DW_AT_name("ADC_SocFrc_e")
    3332                      .dwattr $C$DW$T$59, DW_AT_type(*$C$DW$T$58)
    3333                      .dwattr $C$DW$T$59, DW_AT_language(DW_LANG_C)
    3334              
    3335              $C$DW$341       .dwtag  DW_TAG_TI_far_type
    3336                      .dwattr $C$DW$341, DW_AT_type(*$C$DW$T$59)
    3337              
    3338              $C$DW$T$60      .dwtag  DW_TAG_const_type
    3339                      .dwattr $C$DW$T$60, DW_AT_type(*$C$DW$341)
    3340              
    3341              
    3342              $C$DW$T$61      .dwtag  DW_TAG_enumeration_type
    3343                      .dwattr $C$DW$T$61, DW_AT_byte_size(0x01)
    3344              $C$DW$342       .dwtag  DW_TAG_enumerator
    3345                      .dwattr $C$DW$342, DW_AT_name("ADC_TempSensorSrc_Ext")
    3346                      .dwattr $C$DW$342, DW_AT_const_value(0x00)
    3347              
    3348              $C$DW$343       .dwtag  DW_TAG_enumerator
    3349                      .dwattr $C$DW$343, DW_AT_name("ADC_TempSensorSrc_Int")
    3350                      .dwattr $C$DW$343, DW_AT_const_value(0x01)
    3351              
    3352                      .dwendtag $C$DW$T$61
    3353              
    3354              $C$DW$T$62      .dwtag  DW_TAG_typedef
    3355                      .dwattr $C$DW$T$62, DW_AT_name("ADC_TempSensorSrc_e")
    3356                      .dwattr $C$DW$T$62, DW_AT_type(*$C$DW$T$61)
    3357                      .dwattr $C$DW$T$62, DW_AT_language(DW_LANG_C)
    3358              
    3359              $C$DW$344       .dwtag  DW_TAG_TI_far_type
    3360                      .dwattr $C$DW$344, DW_AT_type(*$C$DW$T$62)
    3361              
    3362              $C$DW$T$63      .dwtag  DW_TAG_const_type
    3363                      .dwattr $C$DW$T$63, DW_AT_type(*$C$DW$344)
    3364              
    3365              
    3366              $C$DW$T$64      .dwtag  DW_TAG_enumeration_type
    3367                      .dwattr $C$DW$T$64, DW_AT_byte_size(0x01)
    3368              $C$DW$345       .dwtag  DW_TAG_enumerator
    3369                      .dwattr $C$DW$345, DW_AT_name("ADC_VoltageRefSrc_Int")
    3370                      .dwattr $C$DW$345, DW_AT_const_value(0x00)
    3371              
    3372              $C$DW$346       .dwtag  DW_TAG_enumerator
    3373                      .dwattr $C$DW$346, DW_AT_name("ADC_VoltageRefSrc_Ext")
    3374                      .dwattr $C$DW$346, DW_AT_const_value(0x08)
    3375              
    3376                      .dwendtag $C$DW$T$64
    3377              
    3378              $C$DW$T$65      .dwtag  DW_TAG_typedef
    3379                      .dwattr $C$DW$T$65, DW_AT_name("ADC_VoltageRefSrc_e")
    3380                      .dwattr $C$DW$T$65, DW_AT_type(*$C$DW$T$64)
    3381                      .dwattr $C$DW$T$65, DW_AT_language(DW_LANG_C)
    3382              
    3383              $C$DW$347       .dwtag  DW_TAG_TI_far_type
    3384                      .dwattr $C$DW$347, DW_AT_type(*$C$DW$T$65)
    3385              
TMS320C2000 Assembler PC v18.1.2 Sun Jun 17 14:52:02 2018

Tools Copyright (c) 1996-2017 Texas Instruments Incorporated
C:\Users\haowp\AppData\Local\Temp\{90C17AA4-2C03-4A74-A215-B08F3B065D28} PAGE   64

    3386              $C$DW$T$66      .dwtag  DW_TAG_const_type
    3387                      .dwattr $C$DW$T$66, DW_AT_type(*$C$DW$347)
    3388              
    3389              
    3390              $C$DW$T$67      .dwtag  DW_TAG_enumeration_type
    3391                      .dwattr $C$DW$T$67, DW_AT_byte_size(0x01)
    3392              $C$DW$348       .dwtag  DW_TAG_enumerator
    3393                      .dwattr $C$DW$348, DW_AT_name("ADC_DivideSelect_ClkIn_by_1")
    3394                      .dwattr $C$DW$348, DW_AT_const_value(0x00)
    3395              
    3396              $C$DW$349       .dwtag  DW_TAG_enumerator
    3397                      .dwattr $C$DW$349, DW_AT_name("ADC_DivideSelect_ClkIn_by_2")
    3398                      .dwattr $C$DW$349, DW_AT_const_value(0x01)
    3399              
    3400                      .dwendtag $C$DW$T$67
    3401              
    3402              $C$DW$T$68      .dwtag  DW_TAG_typedef
    3403                      .dwattr $C$DW$T$68, DW_AT_name("ADC_DivideSelect_e")
    3404                      .dwattr $C$DW$T$68, DW_AT_type(*$C$DW$T$67)
    3405                      .dwattr $C$DW$T$68, DW_AT_language(DW_LANG_C)
    3406              
    3407              $C$DW$350       .dwtag  DW_TAG_TI_far_type
    3408                      .dwattr $C$DW$350, DW_AT_type(*$C$DW$T$68)
    3409              
    3410              $C$DW$T$69      .dwtag  DW_TAG_const_type
    3411                      .dwattr $C$DW$T$69, DW_AT_type(*$C$DW$350)
    3412              
    3413              
    3414              $C$DW$T$74      .dwtag  DW_TAG_enumeration_type
    3415                      .dwattr $C$DW$T$74, DW_AT_byte_size(0x01)
    3416              $C$DW$351       .dwtag  DW_TAG_enumerator
    3417                      .dwattr $C$DW$351, DW_AT_name("ADC_NoIntTriggersSOC")
    3418                      .dwattr $C$DW$351, DW_AT_const_value(0x00)
    3419              
    3420              $C$DW$352       .dwtag  DW_TAG_enumerator
    3421                      .dwattr $C$DW$352, DW_AT_name("ADC_Int1TriggersSOC")
    3422                      .dwattr $C$DW$352, DW_AT_const_value(0x01)
    3423              
    3424              $C$DW$353       .dwtag  DW_TAG_enumerator
    3425                      .dwattr $C$DW$353, DW_AT_name("ADC_Int2TriggersSOC")
    3426                      .dwattr $C$DW$353, DW_AT_const_value(0x02)
    3427              
    3428                      .dwendtag $C$DW$T$74
    3429              
    3430              $C$DW$T$75      .dwtag  DW_TAG_typedef
    3431                      .dwattr $C$DW$T$75, DW_AT_name("ADC_IntTriggerSOC_e")
    3432                      .dwattr $C$DW$T$75, DW_AT_type(*$C$DW$T$74)
    3433                      .dwattr $C$DW$T$75, DW_AT_language(DW_LANG_C)
    3434              
    3435              $C$DW$354       .dwtag  DW_TAG_TI_far_type
    3436                      .dwattr $C$DW$354, DW_AT_type(*$C$DW$T$75)
    3437              
    3438              $C$DW$T$76      .dwtag  DW_TAG_const_type
    3439                      .dwattr $C$DW$T$76, DW_AT_type(*$C$DW$354)
    3440              
TMS320C2000 Assembler PC v18.1.2 Sun Jun 17 14:52:02 2018

Tools Copyright (c) 1996-2017 Texas Instruments Incorporated
C:\Users\haowp\AppData\Local\Temp\{90C17AA4-2C03-4A74-A215-B08F3B065D28} PAGE   65

    3441              
    3442              $C$DW$T$27      .dwtag  DW_TAG_structure_type
    3443                      .dwattr $C$DW$T$27, DW_AT_name("_ADC_Obj_")
    3444                      .dwattr $C$DW$T$27, DW_AT_byte_size(0x6650)
    3445              $C$DW$355       .dwtag  DW_TAG_member
    3446                      .dwattr $C$DW$355, DW_AT_type(*$C$DW$T$21)
    3447                      .dwattr $C$DW$355, DW_AT_name("ADCRESULT")
    3448                      .dwattr $C$DW$355, DW_AT_TI_symbol_name("_ADCRESULT")
    3449                      .dwattr $C$DW$355, DW_AT_data_member_location[DW_OP_plus_uconst 0x0]
    3450                      .dwattr $C$DW$355, DW_AT_accessibility(DW_ACCESS_public)
    3451              
    3452              $C$DW$356       .dwtag  DW_TAG_member
    3453                      .dwattr $C$DW$356, DW_AT_type(*$C$DW$T$22)
    3454                      .dwattr $C$DW$356, DW_AT_name("resvd_1")
    3455                      .dwattr $C$DW$356, DW_AT_TI_symbol_name("_resvd_1")
    3456                      .dwattr $C$DW$356, DW_AT_data_member_location[DW_OP_plus_uconst 0x10]
    3457                      .dwattr $C$DW$356, DW_AT_accessibility(DW_ACCESS_public)
    3458              
    3459              $C$DW$357       .dwtag  DW_TAG_member
    3460                      .dwattr $C$DW$357, DW_AT_type(*$C$DW$T$20)
    3461                      .dwattr $C$DW$357, DW_AT_name("ADCCTL1")
    3462                      .dwattr $C$DW$357, DW_AT_TI_symbol_name("_ADCCTL1")
    3463                      .dwattr $C$DW$357, DW_AT_data_member_location[DW_OP_plus_uconst 0x6600]
    3464                      .dwattr $C$DW$357, DW_AT_accessibility(DW_ACCESS_public)
    3465              
    3466              $C$DW$358       .dwtag  DW_TAG_member
    3467                      .dwattr $C$DW$358, DW_AT_type(*$C$DW$T$20)
    3468                      .dwattr $C$DW$358, DW_AT_name("ADCCTL2")
    3469                      .dwattr $C$DW$358, DW_AT_TI_symbol_name("_ADCCTL2")
    3470                      .dwattr $C$DW$358, DW_AT_data_member_location[DW_OP_plus_uconst 0x6601]
    3471                      .dwattr $C$DW$358, DW_AT_accessibility(DW_ACCESS_public)
    3472              
    3473              $C$DW$359       .dwtag  DW_TAG_member
    3474                      .dwattr $C$DW$359, DW_AT_type(*$C$DW$T$23)
    3475                      .dwattr $C$DW$359, DW_AT_name("rsvd_2")
    3476                      .dwattr $C$DW$359, DW_AT_TI_symbol_name("_rsvd_2")
    3477                      .dwattr $C$DW$359, DW_AT_data_member_location[DW_OP_plus_uconst 0x6602]
    3478                      .dwattr $C$DW$359, DW_AT_accessibility(DW_ACCESS_public)
    3479              
    3480              $C$DW$360       .dwtag  DW_TAG_member
    3481                      .dwattr $C$DW$360, DW_AT_type(*$C$DW$T$20)
    3482                      .dwattr $C$DW$360, DW_AT_name("ADCINTFLG")
    3483                      .dwattr $C$DW$360, DW_AT_TI_symbol_name("_ADCINTFLG")
    3484                      .dwattr $C$DW$360, DW_AT_data_member_location[DW_OP_plus_uconst 0x6604]
    3485                      .dwattr $C$DW$360, DW_AT_accessibility(DW_ACCESS_public)
    3486              
    3487              $C$DW$361       .dwtag  DW_TAG_member
    3488                      .dwattr $C$DW$361, DW_AT_type(*$C$DW$T$20)
    3489                      .dwattr $C$DW$361, DW_AT_name("ADCINTFLGCLR")
    3490                      .dwattr $C$DW$361, DW_AT_TI_symbol_name("_ADCINTFLGCLR")
    3491                      .dwattr $C$DW$361, DW_AT_data_member_location[DW_OP_plus_uconst 0x6605]
    3492                      .dwattr $C$DW$361, DW_AT_accessibility(DW_ACCESS_public)
    3493              
    3494              $C$DW$362       .dwtag  DW_TAG_member
    3495                      .dwattr $C$DW$362, DW_AT_type(*$C$DW$T$20)
TMS320C2000 Assembler PC v18.1.2 Sun Jun 17 14:52:02 2018

Tools Copyright (c) 1996-2017 Texas Instruments Incorporated
C:\Users\haowp\AppData\Local\Temp\{90C17AA4-2C03-4A74-A215-B08F3B065D28} PAGE   66

    3496                      .dwattr $C$DW$362, DW_AT_name("ADCINTOVF")
    3497                      .dwattr $C$DW$362, DW_AT_TI_symbol_name("_ADCINTOVF")
    3498                      .dwattr $C$DW$362, DW_AT_data_member_location[DW_OP_plus_uconst 0x6606]
    3499                      .dwattr $C$DW$362, DW_AT_accessibility(DW_ACCESS_public)
    3500              
    3501              $C$DW$363       .dwtag  DW_TAG_member
    3502                      .dwattr $C$DW$363, DW_AT_type(*$C$DW$T$20)
    3503                      .dwattr $C$DW$363, DW_AT_name("ADCINTOVFCLR")
    3504                      .dwattr $C$DW$363, DW_AT_TI_symbol_name("_ADCINTOVFCLR")
    3505                      .dwattr $C$DW$363, DW_AT_data_member_location[DW_OP_plus_uconst 0x6607]
    3506                      .dwattr $C$DW$363, DW_AT_accessibility(DW_ACCESS_public)
    3507              
    3508              $C$DW$364       .dwtag  DW_TAG_member
    3509                      .dwattr $C$DW$364, DW_AT_type(*$C$DW$T$24)
    3510                      .dwattr $C$DW$364, DW_AT_name("INTSELxNy")
    3511                      .dwattr $C$DW$364, DW_AT_TI_symbol_name("_INTSELxNy")
    3512                      .dwattr $C$DW$364, DW_AT_data_member_location[DW_OP_plus_uconst 0x6608]
    3513                      .dwattr $C$DW$364, DW_AT_accessibility(DW_ACCESS_public)
    3514              
    3515              $C$DW$365       .dwtag  DW_TAG_member
