TMS320C2000 Assembler PC v18.1.2 Sun Jun 17 14:52:32 2018

Tools Copyright (c) 1996-2017 Texas Instruments Incorporated
C:\Users\haowp\AppData\Local\Temp\{81472915-7FA4-430D-8ACB-BFB8F401620C} PAGE    1

       1              ;***************************************************************
       2              ;* TMS320C2000 C/C++ Codegen                    PC v18.1.2.LTS *
       3              ;* Date/Time created: Sun Jun 17 14:52:31 2018                 *
       4              ;***************************************************************
       5                      .compiler_opts --abi=coffabi --float_support=softlib --hll_source=on --mem_model:code=flat --mem_mode
       6                      .asg    XAR2, FP
       7              
       8              $C$DW$CU        .dwtag  DW_TAG_compile_unit
       9                      .dwattr $C$DW$CU, DW_AT_name("D:/ti/motorware/motorware_1_01_00_18/sw/solutions/instaspin_foc/src/pro
      10                      .dwattr $C$DW$CU, DW_AT_producer("TI TMS320C2000 C/C++ Codegen PC v18.1.2.LTS Copyright (c) 1996-2017
      11                      .dwattr $C$DW$CU, DW_AT_TI_version(0x01)
      12                      .dwattr $C$DW$CU, DW_AT_comp_dir("D:\ti\motorware\motorware_1_01_00_18\sw\solutions\instaspin_foc\boa
      13              ;**************************************************************
      14              ;* CINIT RECORDS                                              *
      15              ;**************************************************************
      16 00000000               .sect   ".cinit"
      17                      .align  1
      18 00000000 FFFF          .field          -1,16
      19 00000001 0000-         .field          _gLEDcnt+0,32
         00000002 0000 
      20 00000003 0000          .bits   0,16                    ; _gLEDcnt @ 0
      21              
      22 00000004               .sect   ".cinit"
      23                      .align  1
      24 00000004 FFFF          .field          -1,16
      25 00000005 0001-         .field          _gCounter_updateGlobals+0,32
         00000006 0000 
      26 00000007 0000          .bits   0,16                    ; _gCounter_updateGlobals @ 0
      27              
      28 00000008               .sect   ".cinit"
      29                      .align  1
      30 00000008 FFFF          .field          -1,16
      31 00000009 0002-         .field          _Flag_Latch_softwareUpdate+0,32
         0000000a 0000 
      32 0000000b 0001          .bits   1,16                    ; _Flag_Latch_softwareUpdate @ 0
      33              
      34 0000000c               .sect   ".cinit"
      35                      .align  1
      36 0000000c FFFE          .field          -2,16
      37 0000000d 0008-         .field          _gMaxCurrentSlope+0,32
         0000000e 0000 
      38 0000000f 0000          .bits   0,32                    ; _gMaxCurrentSlope @ 0
         00000010 0000 
      39              
      40 00000011               .sect   ".cinit"
      41                      .align  1
      42 00000011 FFFA          .field          -$C$IR_1,16
      43 00000012 0012-         .field          _gPwmData+0,32
         00000013 0000 
      44 00000014 0000          .bits   0,32                    ; _gPwmData._Tabc._value[0] @ 0
         00000015 0000 
      45 00000016 0000          .bits   0,32                    ; _gPwmData._Tabc._value[1] @ 32
         00000017 0000 
      46 00000018 0000          .bits   0,32                    ; _gPwmData._Tabc._value[2] @ 64
         00000019 0000 
TMS320C2000 Assembler PC v18.1.2 Sun Jun 17 14:52:32 2018

Tools Copyright (c) 1996-2017 Texas Instruments Incorporated
C:\Users\haowp\AppData\Local\Temp\{81472915-7FA4-430D-8ACB-BFB8F401620C} PAGE    2

      47        0006  $C$IR_1:        .set    6
      48              
      49 0000001a               .sect   ".cinit"
      50                      .align  1
      51 0000001a FF80          .field          -$C$IR_2,16
      52 0000001b 00C0-         .field          _gMotorVars+0,32
         0000001c 0000 
      53 0000001d 0000          .bits   0,16                    ; _gMotorVars._Flag_enableSys @ 0
      54 0000001e 0000          .bits   0,16                    ; _gMotorVars._Flag_Run_Identify @ 16
      55 0000001f 0000          .bits   0,16                    ; _gMotorVars._Flag_MotorIdentified @ 32
      56 00000020 0001          .bits   1,16                    ; _gMotorVars._Flag_enableForceAngle @ 48
      57 00000021 0000          .bits   0,16                    ; _gMotorVars._Flag_enableFieldWeakening @ 64
      58 00000022 0000          .bits   0,16                    ; _gMotorVars._Flag_enableRsRecalc @ 80
      59 00000023 0001          .bits   1,16                    ; _gMotorVars._Flag_enableUserParams @ 96
      60 00000024 0001          .bits   1,16                    ; _gMotorVars._Flag_enableOffsetcalc @ 112
      61 00000025 0000          .bits   0,16                    ; _gMotorVars._Flag_enablePowerWarp @ 128
      62 00000026 0000          .bits   0,16                    ; _gMotorVars._Flag_enableSpeedCtrl @ 144
      63 00000027 0000          .bits   0,16                    ; _gMotorVars._Flag_enableRun @ 160
      64 00000028 0000          .bits   0,16                    ; _gMotorVars._Flag_RunState @ 176
      65 00000029 0000          .bits   0,16                    ; _gMotorVars._Flag_enableFlyingStart @ 192
      66 0000002a 0001          .bits   1,16                    ; _gMotorVars._CtrlState @ 208
      67 0000002b 0001          .bits   1,16                    ; _gMotorVars._EstState @ 224
      68 0000002c 0000          .bits   0,16                    ; _gMotorVars._UserErrorCode @ 240
      69 0000002d 0000          .bits   0,16                    ; _gMotorVars._CtrlVersion._rsvd @ 256
      70 0000002e 0004          .bits   4,16                    ; _gMotorVars._CtrlVersion._targetProc @ 272
      71 0000002f 0000          .bits   0,16                    ; _gMotorVars._CtrlVersion._major @ 288
      72 00000030 0000          .bits   0,16                    ; _gMotorVars._CtrlVersion._minor @ 304
      73 00000031 0000          .bits   0,32                    ; _gMotorVars._IdRef_A @ 320
         00000032 0000 
      74 00000033 0000          .bits   0,32                    ; _gMotorVars._IqRef_A @ 352
         00000034 0000 
      75 00000035 0000          .bits   0,32                    ; _gMotorVars._SpeedRef_pu @ 384
         00000036 0000 
      76 00000037 9999          .bits   1677721,32                      ; _gMotorVars._SpeedRef_krpm @ 416
         00000038 0019 
      77 00000039 0000          .bits   0,32                    ; _gMotorVars._SpeedTraj_krpm @ 448
         0000003a 0000 
      78 0000003b 3333          .bits   3355443,32                      ; _gMotorVars._MaxAccel_krpmps @ 480
         0000003c 0033 
      79 0000003d 0000          .bits   0,32                    ; _gMotorVars._Speed_krpm @ 512
         0000003e 0000 
      80 0000003f 0000          .bits   8388608,32                      ; _gMotorVars._OverModulation @ 544
         00000040 0080 
      81 00000041 0000          .bits   8388608,32                      ; _gMotorVars._RsOnLineCurrent_A @ 576
         00000042 0080 
      82 00000043 0190          .bits   400,32                  ; _gMotorVars._SvgenMaxModulation_ticks @ 608
         00000044 0000 
      83 00000045 0000          .bits   0,32                    ; _gMotorVars._Flux_Wb @ 640
         00000046 0000 
      84 00000047 0000          .bits   0,32                    ; _gMotorVars._Torque_Nm @ 672
         00000048 0000 
      85 00000049 0000          .xfloat $strtod("0x0p+0")               ; _gMotorVars._MagnCurr_A @ 704
         0000004a 0000 
      86 0000004b 0000          .xfloat $strtod("0x0p+0")               ; _gMotorVars._Rr_Ohm @ 736
         0000004c 0000 
TMS320C2000 Assembler PC v18.1.2 Sun Jun 17 14:52:32 2018

Tools Copyright (c) 1996-2017 Texas Instruments Incorporated
C:\Users\haowp\AppData\Local\Temp\{81472915-7FA4-430D-8ACB-BFB8F401620C} PAGE    3

      87 0000004d 0000          .xfloat $strtod("0x0p+0")               ; _gMotorVars._Rs_Ohm @ 768
         0000004e 0000 
      88 0000004f 0000          .xfloat $strtod("0x0p+0")               ; _gMotorVars._RsOnLine_Ohm @ 800
         00000050 0000 
      89 00000051 0000          .xfloat $strtod("0x0p+0")               ; _gMotorVars._Lsd_H @ 832
         00000052 0000 
      90 00000053 0000          .xfloat $strtod("0x0p+0")               ; _gMotorVars._Lsq_H @ 864
         00000054 0000 
      91 00000055 0000          .xfloat $strtod("0x0p+0")               ; _gMotorVars._Flux_VpHz @ 896
         00000056 0000 
      92 00000057 0000          .xfloat $strtod("0x0p+0")               ; _gMotorVars._ipd_excFreq_Hz @ 928
         00000058 0000 
      93 00000059 0000          .bits   0,32                    ; _gMotorVars._ipd_Kspd @ 960
         0000005a 0000 
      94 0000005b 0000          .bits   0,32                    ; _gMotorVars._ipd_excMag_coarse_pu @ 992
         0000005c 0000 
      95 0000005d 0000          .bits   0,32                    ; _gMotorVars._ipd_excMag_fine_pu @ 1024
         0000005e 0000 
      96 0000005f 0000          .xfloat $strtod("0x0p+0")               ; _gMotorVars._ipd_waitTime_coarse_sec @ 1056
         00000060 0000 
      97 00000061 0000          .xfloat $strtod("0x0p+0")               ; _gMotorVars._ipd_waitTime_fine_sec @ 1088
         00000062 0000 
      98 00000063 0000          .bits   0,32                    ; _gMotorVars._Kp_spd @ 1120
         00000064 0000 
      99 00000065 0000          .bits   0,32                    ; _gMotorVars._Ki_spd @ 1152
         00000066 0000 
     100 00000067 0000          .bits   0,32                    ; _gMotorVars._Kp_Idq @ 1184
         00000068 0000 
     101 00000069 0000          .bits   0,32                    ; _gMotorVars._Ki_Idq @ 1216
         0000006a 0000 
     102 0000006b 0000          .bits   0,32                    ; _gMotorVars._Vd @ 1248
         0000006c 0000 
     103 0000006d 0000          .bits   0,32                    ; _gMotorVars._Vq @ 1280
         0000006e 0000 
     104 0000006f 0000          .bits   0,32                    ; _gMotorVars._Vs @ 1312
         00000070 0000 
     105 00000071 6666          .bits   6710886,32                      ; _gMotorVars._VsRef @ 1344
         00000072 0066 
     106 00000073 0000          .bits   0,32                    ; _gMotorVars._VdcBus_kV @ 1376
         00000074 0000 
     107 00000075 0000          .bits   0,32                    ; _gMotorVars._Id_A @ 1408
         00000076 0000 
     108 00000077 0000          .bits   0,32                    ; _gMotorVars._Iq_A @ 1440
         00000078 0000 
     109 00000079 0000          .bits   0,32                    ; _gMotorVars._Is_A @ 1472
         0000007a 0000 
     110 0000007b 0000          .bits   0,32                    ; _gMotorVars._I_bias._value[0] @ 1504
         0000007c 0000 
     111 0000007d 0000          .bits   0,32                    ; _gMotorVars._I_bias._value[1] @ 1536
         0000007e 0000 
     112 0000007f 0000          .bits   0,32                    ; _gMotorVars._I_bias._value[2] @ 1568
         00000080 0000 
     113 00000081 0000          .bits   0,32                    ; _gMotorVars._V_bias._value[0] @ 1600
         00000082 0000 
     114 00000083 0000          .bits   0,32                    ; _gMotorVars._V_bias._value[1] @ 1632
TMS320C2000 Assembler PC v18.1.2 Sun Jun 17 14:52:32 2018

Tools Copyright (c) 1996-2017 Texas Instruments Incorporated
C:\Users\haowp\AppData\Local\Temp\{81472915-7FA4-430D-8ACB-BFB8F401620C} PAGE    4

         00000084 0000 
     115 00000085 0000          .bits   0,32                    ; _gMotorVars._V_bias._value[2] @ 1664
         00000086 0000 
     116 00000087 999A          .bits   10066330,32                     ; _gMotorVars._SpeedSet_krpm @ 1696
         00000088 0099 
     117 00000089 0000          .bits   0,32                    ; _gMotorVars._angle_sen_pu @ 1728
         0000008a 0000 
     118 0000008b 0000          .bits   0,32                    ; _gMotorVars._angle_est_pu @ 1760
         0000008c 0000 
     119 0000008d 0000          .bits   0,32                    ; _gMotorVars._speed_sen_pu @ 1792
         0000008e 0000 
     120 0000008f 0000          .bits   0,32                    ; _gMotorVars._speed_est_pu @ 1824
         00000090 0000 
     121 00000091 0000          .bits   0,32                    ; _gMotorVars._speedHigh_hall2fast_pu @ 1856
         00000092 0000 
     122 00000093 0000          .bits   0,32                    ; _gMotorVars._speedLow_hall2fast_pu @ 1888
         00000094 0000 
     123 00000095 0000          .bits   0,32                    ; _gMotorVars._IdSet_A @ 1920
         00000096 0000 
     124 00000097 0000          .bits   0,32                    ; _gMotorVars._IqSet_A @ 1952
         00000098 0000 
     125 00000099 0000          .bits   0,32                    ; _gMotorVars._IdRef_pu @ 1984
         0000009a 0000 
     126 0000009b 0000          .bits   0,32                    ; _gMotorVars._IqRef_pu @ 2016
         0000009c 0000 
     127        0080  $C$IR_2:        .set    128
     128              
     129              
     130              $C$DW$1 .dwtag  DW_TAG_subprogram
     131                      .dwattr $C$DW$1, DW_AT_name("CTRL_run")
     132                      .dwattr $C$DW$1, DW_AT_TI_symbol_name("_CTRL_run")
     133                      .dwattr $C$DW$1, DW_AT_declaration
     134                      .dwattr $C$DW$1, DW_AT_external
     135              $C$DW$2 .dwtag  DW_TAG_formal_parameter
     136                      .dwattr $C$DW$2, DW_AT_type(*$C$DW$T$237)
     137              
     138              $C$DW$3 .dwtag  DW_TAG_formal_parameter
     139                      .dwattr $C$DW$3, DW_AT_type(*$C$DW$T$286)
     140              
     141              $C$DW$4 .dwtag  DW_TAG_formal_parameter
     142                      .dwattr $C$DW$4, DW_AT_type(*$C$DW$T$281)
     143              
     144              $C$DW$5 .dwtag  DW_TAG_formal_parameter
     145                      .dwattr $C$DW$5, DW_AT_type(*$C$DW$T$291)
     146              
     147                      .dwendtag $C$DW$1
     148              
     149              
     150              $C$DW$6 .dwtag  DW_TAG_subprogram
     151                      .dwattr $C$DW$6, DW_AT_name("HAL_readDrvData")
     152                      .dwattr $C$DW$6, DW_AT_TI_symbol_name("_HAL_readDrvData")
     153                      .dwattr $C$DW$6, DW_AT_declaration
     154                      .dwattr $C$DW$6, DW_AT_external
     155              $C$DW$7 .dwtag  DW_TAG_formal_parameter
     156                      .dwattr $C$DW$7, DW_AT_type(*$C$DW$T$286)
TMS320C2000 Assembler PC v18.1.2 Sun Jun 17 14:52:32 2018

Tools Copyright (c) 1996-2017 Texas Instruments Incorporated
C:\Users\haowp\AppData\Local\Temp\{81472915-7FA4-430D-8ACB-BFB8F401620C} PAGE    5

     157              
     158              $C$DW$8 .dwtag  DW_TAG_formal_parameter
     159                      .dwattr $C$DW$8, DW_AT_type(*$C$DW$T$278)
     160              
     161                      .dwendtag $C$DW$6
     162              
     163              
     164              $C$DW$9 .dwtag  DW_TAG_subprogram
     165                      .dwattr $C$DW$9, DW_AT_name("USER_calcPIgains")
     166                      .dwattr $C$DW$9, DW_AT_TI_symbol_name("_USER_calcPIgains")
     167                      .dwattr $C$DW$9, DW_AT_declaration
     168                      .dwattr $C$DW$9, DW_AT_external
     169              $C$DW$10        .dwtag  DW_TAG_formal_parameter
     170                      .dwattr $C$DW$10, DW_AT_type(*$C$DW$T$237)
     171              
     172                      .dwendtag $C$DW$9
     173              
     174              
     175              $C$DW$11        .dwtag  DW_TAG_subprogram
     176                      .dwattr $C$DW$11, DW_AT_name("CTRL_setSpd_ref_krpm")
     177                      .dwattr $C$DW$11, DW_AT_TI_symbol_name("_CTRL_setSpd_ref_krpm")
     178                      .dwattr $C$DW$11, DW_AT_declaration
     179                      .dwattr $C$DW$11, DW_AT_external
     180              $C$DW$12        .dwtag  DW_TAG_formal_parameter
     181                      .dwattr $C$DW$12, DW_AT_type(*$C$DW$T$237)
     182              
     183              $C$DW$13        .dwtag  DW_TAG_formal_parameter
     184                      .dwattr $C$DW$13, DW_AT_type(*$C$DW$T$312)
     185              
     186                      .dwendtag $C$DW$11
     187              
     188              
     189              $C$DW$14        .dwtag  DW_TAG_subprogram
     190                      .dwattr $C$DW$14, DW_AT_name("HAL_writeDrvData")
     191                      .dwattr $C$DW$14, DW_AT_TI_symbol_name("_HAL_writeDrvData")
     192                      .dwattr $C$DW$14, DW_AT_declaration
     193                      .dwattr $C$DW$14, DW_AT_external
     194              $C$DW$15        .dwtag  DW_TAG_formal_parameter
     195                      .dwattr $C$DW$15, DW_AT_type(*$C$DW$T$286)
     196              
     197              $C$DW$16        .dwtag  DW_TAG_formal_parameter
     198                      .dwattr $C$DW$16, DW_AT_type(*$C$DW$T$278)
     199              
     200                      .dwendtag $C$DW$14
     201              
     202              
     203              $C$DW$17        .dwtag  DW_TAG_subprogram
     204                      .dwattr $C$DW$17, DW_AT_name("EST_setFlag_enableForceAngle")
     205                      .dwattr $C$DW$17, DW_AT_TI_symbol_name("_EST_setFlag_enableForceAngle")
     206                      .dwattr $C$DW$17, DW_AT_declaration
     207                      .dwattr $C$DW$17, DW_AT_external
     208              $C$DW$18        .dwtag  DW_TAG_formal_parameter
     209                      .dwattr $C$DW$18, DW_AT_type(*$C$DW$T$46)
     210              
     211              $C$DW$19        .dwtag  DW_TAG_formal_parameter
TMS320C2000 Assembler PC v18.1.2 Sun Jun 17 14:52:32 2018

Tools Copyright (c) 1996-2017 Texas Instruments Incorporated
C:\Users\haowp\AppData\Local\Temp\{81472915-7FA4-430D-8ACB-BFB8F401620C} PAGE    6

     212                      .dwattr $C$DW$19, DW_AT_type(*$C$DW$T$309)
     213              
     214                      .dwendtag $C$DW$17
     215              
     216              
     217              $C$DW$20        .dwtag  DW_TAG_subprogram
     218                      .dwattr $C$DW$20, DW_AT_name("HAL_setBias")
     219                      .dwattr $C$DW$20, DW_AT_TI_symbol_name("_HAL_setBias")
     220                      .dwattr $C$DW$20, DW_AT_declaration
     221                      .dwattr $C$DW$20, DW_AT_external
     222              $C$DW$21        .dwtag  DW_TAG_formal_parameter
     223                      .dwattr $C$DW$21, DW_AT_type(*$C$DW$T$286)
     224              
     225              $C$DW$22        .dwtag  DW_TAG_formal_parameter
     226                      .dwattr $C$DW$22, DW_AT_type(*$C$DW$T$262)
     227              
     228              $C$DW$23        .dwtag  DW_TAG_formal_parameter
     229                      .dwattr $C$DW$23, DW_AT_type(*$C$DW$T$32)
     230              
     231              $C$DW$24        .dwtag  DW_TAG_formal_parameter
     232                      .dwattr $C$DW$24, DW_AT_type(*$C$DW$T$312)
     233              
     234                      .dwendtag $C$DW$20
     235              
     236              
     237              $C$DW$25        .dwtag  DW_TAG_subprogram
     238                      .dwattr $C$DW$25, DW_AT_name("HAL_toggleGpio")
     239                      .dwattr $C$DW$25, DW_AT_TI_symbol_name("_HAL_toggleGpio")
     240                      .dwattr $C$DW$25, DW_AT_declaration
     241                      .dwattr $C$DW$25, DW_AT_external
     242              $C$DW$26        .dwtag  DW_TAG_formal_parameter
     243                      .dwattr $C$DW$26, DW_AT_type(*$C$DW$T$286)
     244              
     245              $C$DW$27        .dwtag  DW_TAG_formal_parameter
     246                      .dwattr $C$DW$27, DW_AT_type(*$C$DW$T$239)
     247              
     248                      .dwendtag $C$DW$25
     249              
     250              
     251              $C$DW$28        .dwtag  DW_TAG_subprogram
     252                      .dwattr $C$DW$28, DW_AT_name("HAL_initIntVectorTable")
     253                      .dwattr $C$DW$28, DW_AT_TI_symbol_name("_HAL_initIntVectorTable")
     254                      .dwattr $C$DW$28, DW_AT_declaration
     255                      .dwattr $C$DW$28, DW_AT_external
     256              $C$DW$29        .dwtag  DW_TAG_formal_parameter
     257                      .dwattr $C$DW$29, DW_AT_type(*$C$DW$T$286)
     258              
     259                      .dwendtag $C$DW$28
     260              
     261              
     262              $C$DW$30        .dwtag  DW_TAG_subprogram
     263                      .dwattr $C$DW$30, DW_AT_name("HAL_readAdcData")
     264                      .dwattr $C$DW$30, DW_AT_TI_symbol_name("_HAL_readAdcData")
     265                      .dwattr $C$DW$30, DW_AT_declaration
     266                      .dwattr $C$DW$30, DW_AT_external
TMS320C2000 Assembler PC v18.1.2 Sun Jun 17 14:52:32 2018

Tools Copyright (c) 1996-2017 Texas Instruments Incorporated
C:\Users\haowp\AppData\Local\Temp\{81472915-7FA4-430D-8ACB-BFB8F401620C} PAGE    7

     267              $C$DW$31        .dwtag  DW_TAG_formal_parameter
     268                      .dwattr $C$DW$31, DW_AT_type(*$C$DW$T$286)
     269              
     270              $C$DW$32        .dwtag  DW_TAG_formal_parameter
     271                      .dwattr $C$DW$32, DW_AT_type(*$C$DW$T$282)
     272              
     273                      .dwendtag $C$DW$30
     274              
     275              
     276              $C$DW$33        .dwtag  DW_TAG_subprogram
     277                      .dwattr $C$DW$33, DW_AT_name("HAL_updateAdcBias")
     278                      .dwattr $C$DW$33, DW_AT_TI_symbol_name("_HAL_updateAdcBias")
     279                      .dwattr $C$DW$33, DW_AT_declaration
     280                      .dwattr $C$DW$33, DW_AT_external
     281              $C$DW$34        .dwtag  DW_TAG_formal_parameter
     282                      .dwattr $C$DW$34, DW_AT_type(*$C$DW$T$286)
     283              
     284                      .dwendtag $C$DW$33
     285              
     286              
     287              $C$DW$35        .dwtag  DW_TAG_subprogram
     288                      .dwattr $C$DW$35, DW_AT_name("HAL_writePwmData")
     289                      .dwattr $C$DW$35, DW_AT_TI_symbol_name("_HAL_writePwmData")
     290                      .dwattr $C$DW$35, DW_AT_declaration
     291                      .dwattr $C$DW$35, DW_AT_external
     292              $C$DW$36        .dwtag  DW_TAG_formal_parameter
     293                      .dwattr $C$DW$36, DW_AT_type(*$C$DW$T$286)
     294              
     295              $C$DW$37        .dwtag  DW_TAG_formal_parameter
     296                      .dwattr $C$DW$37, DW_AT_type(*$C$DW$T$291)
     297              
     298                      .dwendtag $C$DW$35
     299              
     300              
     301              $C$DW$38        .dwtag  DW_TAG_subprogram
     302                      .dwattr $C$DW$38, DW_AT_name("CTRL_getVersion")
     303                      .dwattr $C$DW$38, DW_AT_TI_symbol_name("_CTRL_getVersion")
     304                      .dwattr $C$DW$38, DW_AT_declaration
     305                      .dwattr $C$DW$38, DW_AT_external
     306              $C$DW$39        .dwtag  DW_TAG_formal_parameter
     307                      .dwattr $C$DW$39, DW_AT_type(*$C$DW$T$237)
     308              
     309              $C$DW$40        .dwtag  DW_TAG_formal_parameter
     310                      .dwattr $C$DW$40, DW_AT_type(*$C$DW$T$274)
     311              
     312                      .dwendtag $C$DW$38
     313              
     314              
     315              $C$DW$41        .dwtag  DW_TAG_subprogram
     316                      .dwattr $C$DW$41, DW_AT_name("CTRL_setParams")
     317                      .dwattr $C$DW$41, DW_AT_TI_symbol_name("_CTRL_setParams")
     318                      .dwattr $C$DW$41, DW_AT_declaration
     319                      .dwattr $C$DW$41, DW_AT_external
     320              $C$DW$42        .dwtag  DW_TAG_formal_parameter
     321                      .dwattr $C$DW$42, DW_AT_type(*$C$DW$T$237)
TMS320C2000 Assembler PC v18.1.2 Sun Jun 17 14:52:32 2018

Tools Copyright (c) 1996-2017 Texas Instruments Incorporated
C:\Users\haowp\AppData\Local\Temp\{81472915-7FA4-430D-8ACB-BFB8F401620C} PAGE    8

     322              
     323              $C$DW$43        .dwtag  DW_TAG_formal_parameter
     324                      .dwattr $C$DW$43, DW_AT_type(*$C$DW$T$244)
     325              
     326                      .dwendtag $C$DW$41
     327              
     328              
     329              $C$DW$44        .dwtag  DW_TAG_subprogram
     330                      .dwattr $C$DW$44, DW_AT_name("HAL_setParams")
     331                      .dwattr $C$DW$44, DW_AT_TI_symbol_name("_HAL_setParams")
     332                      .dwattr $C$DW$44, DW_AT_declaration
     333                      .dwattr $C$DW$44, DW_AT_external
     334              $C$DW$45        .dwtag  DW_TAG_formal_parameter
     335                      .dwattr $C$DW$45, DW_AT_type(*$C$DW$T$286)
     336              
     337              $C$DW$46        .dwtag  DW_TAG_formal_parameter
     338                      .dwattr $C$DW$46, DW_AT_type(*$C$DW$T$303)
     339              
     340                      .dwendtag $C$DW$44
     341              
     342              
     343              $C$DW$47        .dwtag  DW_TAG_subprogram
     344                      .dwattr $C$DW$47, DW_AT_name("HAL_enableDrv")
     345                      .dwattr $C$DW$47, DW_AT_TI_symbol_name("_HAL_enableDrv")
     346                      .dwattr $C$DW$47, DW_AT_declaration
     347                      .dwattr $C$DW$47, DW_AT_external
     348              $C$DW$48        .dwtag  DW_TAG_formal_parameter
     349                      .dwattr $C$DW$48, DW_AT_type(*$C$DW$T$286)
     350              
     351                      .dwendtag $C$DW$47
     352              
     353              
     354              $C$DW$49        .dwtag  DW_TAG_subprogram
     355                      .dwattr $C$DW$49, DW_AT_name("HAL_enableGlobalInts")
     356                      .dwattr $C$DW$49, DW_AT_TI_symbol_name("_HAL_enableGlobalInts")
     357                      .dwattr $C$DW$49, DW_AT_declaration
     358                      .dwattr $C$DW$49, DW_AT_external
     359              $C$DW$50        .dwtag  DW_TAG_formal_parameter
     360                      .dwattr $C$DW$50, DW_AT_type(*$C$DW$T$286)
     361              
     362                      .dwendtag $C$DW$49
     363              
     364              
     365              $C$DW$51        .dwtag  DW_TAG_subprogram
     366                      .dwattr $C$DW$51, DW_AT_name("HAL_enableDebugInt")
     367                      .dwattr $C$DW$51, DW_AT_TI_symbol_name("_HAL_enableDebugInt")
     368                      .dwattr $C$DW$51, DW_AT_declaration
     369                      .dwattr $C$DW$51, DW_AT_external
     370              $C$DW$52        .dwtag  DW_TAG_formal_parameter
     371                      .dwattr $C$DW$52, DW_AT_type(*$C$DW$T$286)
     372              
     373                      .dwendtag $C$DW$51
     374              
     375              
     376              $C$DW$53        .dwtag  DW_TAG_subprogram
TMS320C2000 Assembler PC v18.1.2 Sun Jun 17 14:52:32 2018

Tools Copyright (c) 1996-2017 Texas Instruments Incorporated
C:\Users\haowp\AppData\Local\Temp\{81472915-7FA4-430D-8ACB-BFB8F401620C} PAGE    9

     377                      .dwattr $C$DW$53, DW_AT_name("HAL_setupFaults")
     378                      .dwattr $C$DW$53, DW_AT_TI_symbol_name("_HAL_setupFaults")
     379                      .dwattr $C$DW$53, DW_AT_declaration
     380                      .dwattr $C$DW$53, DW_AT_external
     381              $C$DW$54        .dwtag  DW_TAG_formal_parameter
     382                      .dwattr $C$DW$54, DW_AT_type(*$C$DW$T$286)
     383              
     384                      .dwendtag $C$DW$53
     385              
     386              
     387              $C$DW$55        .dwtag  DW_TAG_subprogram
     388                      .dwattr $C$DW$55, DW_AT_name("HAL_enableAdcInts")
     389                      .dwattr $C$DW$55, DW_AT_TI_symbol_name("_HAL_enableAdcInts")
     390                      .dwattr $C$DW$55, DW_AT_declaration
     391                      .dwattr $C$DW$55, DW_AT_external
     392              $C$DW$56        .dwtag  DW_TAG_formal_parameter
     393                      .dwattr $C$DW$56, DW_AT_type(*$C$DW$T$286)
     394              
     395                      .dwendtag $C$DW$55
     396              
     397              
     398              $C$DW$57        .dwtag  DW_TAG_subprogram
     399                      .dwattr $C$DW$57, DW_AT_name("EST_setFlag_enableRsRecalc")
     400                      .dwattr $C$DW$57, DW_AT_TI_symbol_name("_EST_setFlag_enableRsRecalc")
     401                      .dwattr $C$DW$57, DW_AT_declaration
     402                      .dwattr $C$DW$57, DW_AT_external
     403              $C$DW$58        .dwtag  DW_TAG_formal_parameter
     404                      .dwattr $C$DW$58, DW_AT_type(*$C$DW$T$46)
     405              
     406              $C$DW$59        .dwtag  DW_TAG_formal_parameter
     407                      .dwattr $C$DW$59, DW_AT_type(*$C$DW$T$309)
     408              
     409                      .dwendtag $C$DW$57
     410              
     411              
     412              $C$DW$60        .dwtag  DW_TAG_subprogram
     413                      .dwattr $C$DW$60, DW_AT_name("GPIO_toggle")
     414                      .dwattr $C$DW$60, DW_AT_TI_symbol_name("_GPIO_toggle")
     415                      .dwattr $C$DW$60, DW_AT_declaration
     416                      .dwattr $C$DW$60, DW_AT_external
     417              $C$DW$61        .dwtag  DW_TAG_formal_parameter
     418                      .dwattr $C$DW$61, DW_AT_type(*$C$DW$T$77)
     419              
     420              $C$DW$62        .dwtag  DW_TAG_formal_parameter
     421                      .dwattr $C$DW$62, DW_AT_type(*$C$DW$T$239)
     422              
     423                      .dwendtag $C$DW$60
     424              
     425              
     426              $C$DW$63        .dwtag  DW_TAG_subprogram
     427                      .dwattr $C$DW$63, DW_AT_name("EST_setMaxCurrentSlope_pu")
     428                      .dwattr $C$DW$63, DW_AT_TI_symbol_name("_EST_setMaxCurrentSlope_pu")
     429                      .dwattr $C$DW$63, DW_AT_declaration
     430                      .dwattr $C$DW$63, DW_AT_external
     431              $C$DW$64        .dwtag  DW_TAG_formal_parameter
TMS320C2000 Assembler PC v18.1.2 Sun Jun 17 14:52:32 2018

Tools Copyright (c) 1996-2017 Texas Instruments Incorporated
C:\Users\haowp\AppData\Local\Temp\{81472915-7FA4-430D-8ACB-BFB8F401620C} PAGE   10

     432                      .dwattr $C$DW$64, DW_AT_type(*$C$DW$T$46)
     433              
     434              $C$DW$65        .dwtag  DW_TAG_formal_parameter
     435                      .dwattr $C$DW$65, DW_AT_type(*$C$DW$T$312)
     436              
     437                      .dwendtag $C$DW$63
     438              
     439              
     440              $C$DW$66        .dwtag  DW_TAG_subprogram
     441                      .dwattr $C$DW$66, DW_AT_name("USER_softwareUpdate1p6")
     442                      .dwattr $C$DW$66, DW_AT_TI_symbol_name("_USER_softwareUpdate1p6")
     443                      .dwattr $C$DW$66, DW_AT_declaration
     444                      .dwattr $C$DW$66, DW_AT_external
     445              $C$DW$67        .dwtag  DW_TAG_formal_parameter
     446                      .dwattr $C$DW$67, DW_AT_type(*$C$DW$T$237)
     447              
     448                      .dwendtag $C$DW$66
     449              
     450              
     451              $C$DW$68        .dwtag  DW_TAG_subprogram
     452                      .dwattr $C$DW$68, DW_AT_name("USER_checkForErrors")
     453                      .dwattr $C$DW$68, DW_AT_TI_symbol_name("_USER_checkForErrors")
     454                      .dwattr $C$DW$68, DW_AT_declaration
     455                      .dwattr $C$DW$68, DW_AT_external
     456              $C$DW$69        .dwtag  DW_TAG_formal_parameter
     457                      .dwattr $C$DW$69, DW_AT_type(*$C$DW$T$244)
     458              
     459                      .dwendtag $C$DW$68
     460              
     461              
     462              $C$DW$70        .dwtag  DW_TAG_subprogram
     463                      .dwattr $C$DW$70, DW_AT_name("USER_setParams")
     464                      .dwattr $C$DW$70, DW_AT_TI_symbol_name("_USER_setParams")
     465                      .dwattr $C$DW$70, DW_AT_declaration
     466                      .dwattr $C$DW$70, DW_AT_external
     467              $C$DW$71        .dwtag  DW_TAG_formal_parameter
     468                      .dwattr $C$DW$71, DW_AT_type(*$C$DW$T$244)
     469              
     470                      .dwendtag $C$DW$70
     471              
     472              
     473              $C$DW$72        .dwtag  DW_TAG_subprogram
     474                      .dwattr $C$DW$72, DW_AT_name("memCopy")
     475                      .dwattr $C$DW$72, DW_AT_TI_symbol_name("_memCopy")
     476                      .dwattr $C$DW$72, DW_AT_declaration
     477                      .dwattr $C$DW$72, DW_AT_external
     478              $C$DW$73        .dwtag  DW_TAG_formal_parameter
     479                      .dwattr $C$DW$73, DW_AT_type(*$C$DW$T$306)
     480              
     481              $C$DW$74        .dwtag  DW_TAG_formal_parameter
     482                      .dwattr $C$DW$74, DW_AT_type(*$C$DW$T$306)
     483              
     484              $C$DW$75        .dwtag  DW_TAG_formal_parameter
     485                      .dwattr $C$DW$75, DW_AT_type(*$C$DW$T$306)
     486              
TMS320C2000 Assembler PC v18.1.2 Sun Jun 17 14:52:32 2018

Tools Copyright (c) 1996-2017 Texas Instruments Incorporated
C:\Users\haowp\AppData\Local\Temp\{81472915-7FA4-430D-8ACB-BFB8F401620C} PAGE   11

     487                      .dwendtag $C$DW$72
     488              
     489              
     490              $C$DW$76        .dwtag  DW_TAG_subprogram
     491                      .dwattr $C$DW$76, DW_AT_name("CTRL_setKp")
     492                      .dwattr $C$DW$76, DW_AT_TI_symbol_name("_CTRL_setKp")
     493                      .dwattr $C$DW$76, DW_AT_declaration
     494                      .dwattr $C$DW$76, DW_AT_external
     495              $C$DW$77        .dwtag  DW_TAG_formal_parameter
     496                      .dwattr $C$DW$77, DW_AT_type(*$C$DW$T$237)
     497              
     498              $C$DW$78        .dwtag  DW_TAG_formal_parameter
     499                      .dwattr $C$DW$78, DW_AT_type(*$C$DW$T$259)
     500              
     501              $C$DW$79        .dwtag  DW_TAG_formal_parameter
     502                      .dwattr $C$DW$79, DW_AT_type(*$C$DW$T$312)
     503              
     504                      .dwendtag $C$DW$76
     505              
     506              
     507              $C$DW$80        .dwtag  DW_TAG_subprogram
     508                      .dwattr $C$DW$80, DW_AT_name("CTRL_setKi")
     509                      .dwattr $C$DW$80, DW_AT_TI_symbol_name("_CTRL_setKi")
     510                      .dwattr $C$DW$80, DW_AT_declaration
     511                      .dwattr $C$DW$80, DW_AT_external
     512              $C$DW$81        .dwtag  DW_TAG_formal_parameter
     513                      .dwattr $C$DW$81, DW_AT_type(*$C$DW$T$237)
     514              
     515              $C$DW$82        .dwtag  DW_TAG_formal_parameter
     516                      .dwattr $C$DW$82, DW_AT_type(*$C$DW$T$259)
     517              
     518              $C$DW$83        .dwtag  DW_TAG_formal_parameter
     519                      .dwattr $C$DW$83, DW_AT_type(*$C$DW$T$312)
     520              
     521                      .dwendtag $C$DW$80
     522              
     523              
     524              $C$DW$84        .dwtag  DW_TAG_subprogram
     525                      .dwattr $C$DW$84, DW_AT_name("PWM_write_CmpA")
     526                      .dwattr $C$DW$84, DW_AT_TI_symbol_name("_PWM_write_CmpA")
     527                      .dwattr $C$DW$84, DW_AT_declaration
     528                      .dwattr $C$DW$84, DW_AT_external
     529              $C$DW$85        .dwtag  DW_TAG_formal_parameter
     530                      .dwattr $C$DW$85, DW_AT_type(*$C$DW$T$176)
     531              
     532              $C$DW$86        .dwtag  DW_TAG_formal_parameter
     533                      .dwattr $C$DW$86, DW_AT_type(*$C$DW$T$317)
     534              
     535                      .dwendtag $C$DW$84
     536              
     537              
     538              $C$DW$87        .dwtag  DW_TAG_subprogram
     539                      .dwattr $C$DW$87, DW_AT_name("PIE_clearInt")
     540                      .dwattr $C$DW$87, DW_AT_TI_symbol_name("_PIE_clearInt")
     541                      .dwattr $C$DW$87, DW_AT_declaration
TMS320C2000 Assembler PC v18.1.2 Sun Jun 17 14:52:32 2018

Tools Copyright (c) 1996-2017 Texas Instruments Incorporated
C:\Users\haowp\AppData\Local\Temp\{81472915-7FA4-430D-8ACB-BFB8F401620C} PAGE   12

     542                      .dwattr $C$DW$87, DW_AT_external
     543              $C$DW$88        .dwtag  DW_TAG_formal_parameter
     544                      .dwattr $C$DW$88, DW_AT_type(*$C$DW$T$172)
     545              
     546              $C$DW$89        .dwtag  DW_TAG_formal_parameter
     547                      .dwattr $C$DW$89, DW_AT_type(*$C$DW$T$256)
     548              
     549                      .dwendtag $C$DW$87
     550              
     551              
     552              $C$DW$90        .dwtag  DW_TAG_subprogram
     553                      .dwattr $C$DW$90, DW_AT_name("CTRL_setMaxAccel_pu")
     554                      .dwattr $C$DW$90, DW_AT_TI_symbol_name("_CTRL_setMaxAccel_pu")
     555                      .dwattr $C$DW$90, DW_AT_declaration
     556                      .dwattr $C$DW$90, DW_AT_external
     557              $C$DW$91        .dwtag  DW_TAG_formal_parameter
     558                      .dwattr $C$DW$91, DW_AT_type(*$C$DW$T$237)
     559              
     560              $C$DW$92        .dwtag  DW_TAG_formal_parameter
     561                      .dwattr $C$DW$92, DW_AT_type(*$C$DW$T$312)
     562              
     563                      .dwendtag $C$DW$90
     564              
     565              
     566              $C$DW$93        .dwtag  DW_TAG_subprogram
     567                      .dwattr $C$DW$93, DW_AT_name("CTRL_setFlag_enableOffset")
     568                      .dwattr $C$DW$93, DW_AT_TI_symbol_name("_CTRL_setFlag_enableOffset")
     569                      .dwattr $C$DW$93, DW_AT_declaration
     570                      .dwattr $C$DW$93, DW_AT_external
     571              $C$DW$94        .dwtag  DW_TAG_formal_parameter
     572                      .dwattr $C$DW$94, DW_AT_type(*$C$DW$T$237)
     573              
     574              $C$DW$95        .dwtag  DW_TAG_formal_parameter
     575                      .dwattr $C$DW$95, DW_AT_type(*$C$DW$T$309)
     576              
     577                      .dwendtag $C$DW$93
     578              
     579              
     580              $C$DW$96        .dwtag  DW_TAG_subprogram
     581                      .dwattr $C$DW$96, DW_AT_name("CTRL_setFlag_enablePowerWarp")
     582                      .dwattr $C$DW$96, DW_AT_TI_symbol_name("_CTRL_setFlag_enablePowerWarp")
     583                      .dwattr $C$DW$96, DW_AT_declaration
     584                      .dwattr $C$DW$96, DW_AT_external
     585              $C$DW$97        .dwtag  DW_TAG_formal_parameter
     586                      .dwattr $C$DW$97, DW_AT_type(*$C$DW$T$237)
     587              
     588              $C$DW$98        .dwtag  DW_TAG_formal_parameter
     589                      .dwattr $C$DW$98, DW_AT_type(*$C$DW$T$309)
     590              
     591                      .dwendtag $C$DW$96
     592              
     593              
     594              $C$DW$99        .dwtag  DW_TAG_subprogram
     595                      .dwattr $C$DW$99, DW_AT_name("CTRL_setFlag_enableSpeedCtrl")
     596                      .dwattr $C$DW$99, DW_AT_TI_symbol_name("_CTRL_setFlag_enableSpeedCtrl")
TMS320C2000 Assembler PC v18.1.2 Sun Jun 17 14:52:32 2018

Tools Copyright (c) 1996-2017 Texas Instruments Incorporated
C:\Users\haowp\AppData\Local\Temp\{81472915-7FA4-430D-8ACB-BFB8F401620C} PAGE   13

     597                      .dwattr $C$DW$99, DW_AT_declaration
     598                      .dwattr $C$DW$99, DW_AT_external
     599              $C$DW$100       .dwtag  DW_TAG_formal_parameter
     600                      .dwattr $C$DW$100, DW_AT_type(*$C$DW$T$237)
     601              
     602              $C$DW$101       .dwtag  DW_TAG_formal_parameter
     603                      .dwattr $C$DW$101, DW_AT_type(*$C$DW$T$309)
     604              
     605                      .dwendtag $C$DW$99
     606              
     607              
     608              $C$DW$102       .dwtag  DW_TAG_subprogram
     609                      .dwattr $C$DW$102, DW_AT_name("CTRL_setFlag_enableDcBusComp")
     610                      .dwattr $C$DW$102, DW_AT_TI_symbol_name("_CTRL_setFlag_enableDcBusComp")
     611                      .dwattr $C$DW$102, DW_AT_declaration
     612                      .dwattr $C$DW$102, DW_AT_external
     613              $C$DW$103       .dwtag  DW_TAG_formal_parameter
     614                      .dwattr $C$DW$103, DW_AT_type(*$C$DW$T$237)
     615              
     616              $C$DW$104       .dwtag  DW_TAG_formal_parameter
     617                      .dwattr $C$DW$104, DW_AT_type(*$C$DW$T$309)
     618              
     619                      .dwendtag $C$DW$102
     620              
     621              
     622              $C$DW$105       .dwtag  DW_TAG_subprogram
     623                      .dwattr $C$DW$105, DW_AT_name("PWM_clearOneShotTrip")
     624                      .dwattr $C$DW$105, DW_AT_TI_symbol_name("_PWM_clearOneShotTrip")
     625                      .dwattr $C$DW$105, DW_AT_declaration
     626                      .dwattr $C$DW$105, DW_AT_external
     627              $C$DW$106       .dwtag  DW_TAG_formal_parameter
     628                      .dwattr $C$DW$106, DW_AT_type(*$C$DW$T$176)
     629              
     630                      .dwendtag $C$DW$105
     631              
     632              
     633              $C$DW$107       .dwtag  DW_TAG_subprogram
     634                      .dwattr $C$DW$107, DW_AT_name("PWM_setOneShotTrip")
     635                      .dwattr $C$DW$107, DW_AT_TI_symbol_name("_PWM_setOneShotTrip")
     636                      .dwattr $C$DW$107, DW_AT_declaration
     637                      .dwattr $C$DW$107, DW_AT_external
     638              $C$DW$108       .dwtag  DW_TAG_formal_parameter
     639                      .dwattr $C$DW$108, DW_AT_type(*$C$DW$T$176)
     640              
     641                      .dwendtag $C$DW$107
     642              
     643              
     644              $C$DW$109       .dwtag  DW_TAG_subprogram
     645                      .dwattr $C$DW$109, DW_AT_name("CTRL_setFlag_enableCtrl")
     646                      .dwattr $C$DW$109, DW_AT_TI_symbol_name("_CTRL_setFlag_enableCtrl")
     647                      .dwattr $C$DW$109, DW_AT_declaration
     648                      .dwattr $C$DW$109, DW_AT_external
     649              $C$DW$110       .dwtag  DW_TAG_formal_parameter
     650                      .dwattr $C$DW$110, DW_AT_type(*$C$DW$T$237)
     651              
TMS320C2000 Assembler PC v18.1.2 Sun Jun 17 14:52:32 2018

Tools Copyright (c) 1996-2017 Texas Instruments Incorporated
C:\Users\haowp\AppData\Local\Temp\{81472915-7FA4-430D-8ACB-BFB8F401620C} PAGE   14

     652              $C$DW$111       .dwtag  DW_TAG_formal_parameter
     653                      .dwattr $C$DW$111, DW_AT_type(*$C$DW$T$309)
     654              
     655                      .dwendtag $C$DW$109
     656              
     657              
     658              $C$DW$112       .dwtag  DW_TAG_subprogram
     659                      .dwattr $C$DW$112, DW_AT_name("CTRL_setup")
     660                      .dwattr $C$DW$112, DW_AT_TI_symbol_name("_CTRL_setup")
     661                      .dwattr $C$DW$112, DW_AT_declaration
     662                      .dwattr $C$DW$112, DW_AT_external
     663              $C$DW$113       .dwtag  DW_TAG_formal_parameter
     664                      .dwattr $C$DW$113, DW_AT_type(*$C$DW$T$237)
     665              
     666                      .dwendtag $C$DW$112
     667              
     668              
     669              $C$DW$114       .dwtag  DW_TAG_subprogram
     670                      .dwattr $C$DW$114, DW_AT_name("ADC_clearIntFlag")
     671                      .dwattr $C$DW$114, DW_AT_TI_symbol_name("_ADC_clearIntFlag")
     672                      .dwattr $C$DW$114, DW_AT_declaration
     673                      .dwattr $C$DW$114, DW_AT_external
     674              $C$DW$115       .dwtag  DW_TAG_formal_parameter
     675                      .dwattr $C$DW$115, DW_AT_type(*$C$DW$T$157)
     676              
     677              $C$DW$116       .dwtag  DW_TAG_formal_parameter
     678                      .dwattr $C$DW$116, DW_AT_type(*$C$DW$T$250)
     679              
     680                      .dwendtag $C$DW$114
     681              
     682              
     683              $C$DW$117       .dwtag  DW_TAG_subprogram
     684                      .dwattr $C$DW$117, DW_AT_name("HAL_acqAdcInt")
     685                      .dwattr $C$DW$117, DW_AT_TI_symbol_name("_HAL_acqAdcInt")
     686                      .dwattr $C$DW$117, DW_AT_declaration
     687                      .dwattr $C$DW$117, DW_AT_external
     688              $C$DW$118       .dwtag  DW_TAG_formal_parameter
     689                      .dwattr $C$DW$118, DW_AT_type(*$C$DW$T$286)
     690              
     691              $C$DW$119       .dwtag  DW_TAG_formal_parameter
     692                      .dwattr $C$DW$119, DW_AT_type(*$C$DW$T$250)
     693              
     694                      .dwendtag $C$DW$117
     695              
     696              
     697              $C$DW$120       .dwtag  DW_TAG_subprogram
     698                      .dwattr $C$DW$120, DW_AT_name("CTRL_setFlag_enableUserMotorParams")
     699                      .dwattr $C$DW$120, DW_AT_TI_symbol_name("_CTRL_setFlag_enableUserMotorParams")
     700                      .dwattr $C$DW$120, DW_AT_declaration
     701                      .dwattr $C$DW$120, DW_AT_external
     702              $C$DW$121       .dwtag  DW_TAG_formal_parameter
     703                      .dwattr $C$DW$121, DW_AT_type(*$C$DW$T$237)
     704              
     705              $C$DW$122       .dwtag  DW_TAG_formal_parameter
     706                      .dwattr $C$DW$122, DW_AT_type(*$C$DW$T$309)
TMS320C2000 Assembler PC v18.1.2 Sun Jun 17 14:52:32 2018

Tools Copyright (c) 1996-2017 Texas Instruments Incorporated
C:\Users\haowp\AppData\Local\Temp\{81472915-7FA4-430D-8ACB-BFB8F401620C} PAGE   15

     707              
     708                      .dwendtag $C$DW$120
     709              
     710              
     711              $C$DW$123       .dwtag  DW_TAG_subprogram
     712                      .dwattr $C$DW$123, DW_AT_name("HAL_disablePwm")
     713                      .dwattr $C$DW$123, DW_AT_TI_symbol_name("_HAL_disablePwm")
     714                      .dwattr $C$DW$123, DW_AT_declaration
     715                      .dwattr $C$DW$123, DW_AT_external
     716              $C$DW$124       .dwtag  DW_TAG_formal_parameter
     717                      .dwattr $C$DW$124, DW_AT_type(*$C$DW$T$286)
     718              
     719                      .dwendtag $C$DW$123
     720              
     721              
     722              $C$DW$125       .dwtag  DW_TAG_subprogram
     723                      .dwattr $C$DW$125, DW_AT_name("HAL_enablePwm")
     724                      .dwattr $C$DW$125, DW_AT_TI_symbol_name("_HAL_enablePwm")
     725                      .dwattr $C$DW$125, DW_AT_declaration
     726                      .dwattr $C$DW$125, DW_AT_external
     727              $C$DW$126       .dwtag  DW_TAG_formal_parameter
     728                      .dwattr $C$DW$126, DW_AT_type(*$C$DW$T$286)
     729              
     730                      .dwendtag $C$DW$125
     731              
     732              
     733              $C$DW$127       .dwtag  DW_TAG_subprogram
     734                      .dwattr $C$DW$127, DW_AT_name("HAL_setupDrvSpi")
     735                      .dwattr $C$DW$127, DW_AT_TI_symbol_name("_HAL_setupDrvSpi")
     736                      .dwattr $C$DW$127, DW_AT_declaration
     737                      .dwattr $C$DW$127, DW_AT_external
     738              $C$DW$128       .dwtag  DW_TAG_formal_parameter
     739                      .dwattr $C$DW$128, DW_AT_type(*$C$DW$T$286)
     740              
     741              $C$DW$129       .dwtag  DW_TAG_formal_parameter
     742                      .dwattr $C$DW$129, DW_AT_type(*$C$DW$T$278)
     743              
     744                      .dwendtag $C$DW$127
     745              
     746              
     747              $C$DW$130       .dwtag  DW_TAG_subprogram
     748                      .dwattr $C$DW$130, DW_AT_name("CTRL_isError")
     749                      .dwattr $C$DW$130, DW_AT_TI_symbol_name("_CTRL_isError")
     750                      .dwattr $C$DW$130, DW_AT_type(*$C$DW$T$69)
     751                      .dwattr $C$DW$130, DW_AT_declaration
     752                      .dwattr $C$DW$130, DW_AT_external
     753              $C$DW$131       .dwtag  DW_TAG_formal_parameter
     754                      .dwattr $C$DW$131, DW_AT_type(*$C$DW$T$237)
     755              
     756                      .dwendtag $C$DW$130
     757              
     758              
     759              $C$DW$132       .dwtag  DW_TAG_subprogram
     760                      .dwattr $C$DW$132, DW_AT_name("CTRL_getState")
     761                      .dwattr $C$DW$132, DW_AT_TI_symbol_name("_CTRL_getState")
TMS320C2000 Assembler PC v18.1.2 Sun Jun 17 14:52:32 2018

Tools Copyright (c) 1996-2017 Texas Instruments Incorporated
C:\Users\haowp\AppData\Local\Temp\{81472915-7FA4-430D-8ACB-BFB8F401620C} PAGE   16

     762                      .dwattr $C$DW$132, DW_AT_type(*$C$DW$T$39)
     763                      .dwattr $C$DW$132, DW_AT_declaration
     764                      .dwattr $C$DW$132, DW_AT_external
     765              $C$DW$133       .dwtag  DW_TAG_formal_parameter
     766                      .dwattr $C$DW$133, DW_AT_type(*$C$DW$T$237)
     767              
     768                      .dwendtag $C$DW$132
     769              
     770              
     771              $C$DW$134       .dwtag  DW_TAG_subprogram
     772                      .dwattr $C$DW$134, DW_AT_name("CTRL_getFlag_enableUserMotorParams")
     773                      .dwattr $C$DW$134, DW_AT_TI_symbol_name("_CTRL_getFlag_enableUserMotorParams")
     774                      .dwattr $C$DW$134, DW_AT_type(*$C$DW$T$69)
     775                      .dwattr $C$DW$134, DW_AT_declaration
     776                      .dwattr $C$DW$134, DW_AT_external
     777              $C$DW$135       .dwtag  DW_TAG_formal_parameter
     778                      .dwattr $C$DW$135, DW_AT_type(*$C$DW$T$237)
     779              
     780                      .dwendtag $C$DW$134
     781              
     782              
     783              $C$DW$136       .dwtag  DW_TAG_subprogram
     784                      .dwattr $C$DW$136, DW_AT_name("USER_getErrorCode")
     785                      .dwattr $C$DW$136, DW_AT_TI_symbol_name("_USER_getErrorCode")
     786                      .dwattr $C$DW$136, DW_AT_type(*$C$DW$T$203)
     787                      .dwattr $C$DW$136, DW_AT_declaration
     788                      .dwattr $C$DW$136, DW_AT_external
     789              $C$DW$137       .dwtag  DW_TAG_formal_parameter
     790                      .dwattr $C$DW$137, DW_AT_type(*$C$DW$T$244)
     791              
     792                      .dwendtag $C$DW$136
     793              
     794              
     795              $C$DW$138       .dwtag  DW_TAG_subprogram
     796                      .dwattr $C$DW$138, DW_AT_name("ADC_readResult")
     797                      .dwattr $C$DW$138, DW_AT_TI_symbol_name("_ADC_readResult")
     798                      .dwattr $C$DW$138, DW_AT_type(*$C$DW$T$66)
     799                      .dwattr $C$DW$138, DW_AT_declaration
     800                      .dwattr $C$DW$138, DW_AT_external
     801              $C$DW$139       .dwtag  DW_TAG_formal_parameter
     802                      .dwattr $C$DW$139, DW_AT_type(*$C$DW$T$157)
     803              
     804              $C$DW$140       .dwtag  DW_TAG_formal_parameter
     805                      .dwattr $C$DW$140, DW_AT_type(*$C$DW$T$253)
     806              
     807                      .dwendtag $C$DW$138
     808              
     809              
     810              $C$DW$141       .dwtag  DW_TAG_subprogram
     811                      .dwattr $C$DW$141, DW_AT_name("CTRL_updateState")
     812                      .dwattr $C$DW$141, DW_AT_TI_symbol_name("_CTRL_updateState")
     813                      .dwattr $C$DW$141, DW_AT_type(*$C$DW$T$69)
     814                      .dwattr $C$DW$141, DW_AT_declaration
     815                      .dwattr $C$DW$141, DW_AT_external
     816              $C$DW$142       .dwtag  DW_TAG_formal_parameter
TMS320C2000 Assembler PC v18.1.2 Sun Jun 17 14:52:32 2018

Tools Copyright (c) 1996-2017 Texas Instruments Incorporated
C:\Users\haowp\AppData\Local\Temp\{81472915-7FA4-430D-8ACB-BFB8F401620C} PAGE   17

     817                      .dwattr $C$DW$142, DW_AT_type(*$C$DW$T$237)
     818              
     819                      .dwendtag $C$DW$141
     820              
     821                      .global _gLEDcnt
     822 00000000       _gLEDcnt:       .usect  ".ebss",1,1,0
     823              $C$DW$143       .dwtag  DW_TAG_variable
     824                      .dwattr $C$DW$143, DW_AT_name("gLEDcnt")
     825                      .dwattr $C$DW$143, DW_AT_TI_symbol_name("_gLEDcnt")
     826                      .dwattr $C$DW$143, DW_AT_location[DW_OP_addr _gLEDcnt]
     827                      .dwattr $C$DW$143, DW_AT_type(*$C$DW$T$22)
     828                      .dwattr $C$DW$143, DW_AT_external
     829              
     830              
     831              $C$DW$144       .dwtag  DW_TAG_subprogram
     832                      .dwattr $C$DW$144, DW_AT_name("HAL_getNumCurrentSensors")
     833                      .dwattr $C$DW$144, DW_AT_TI_symbol_name("_HAL_getNumCurrentSensors")
     834                      .dwattr $C$DW$144, DW_AT_type(*$C$DW$T$32)
     835                      .dwattr $C$DW$144, DW_AT_declaration
     836                      .dwattr $C$DW$144, DW_AT_external
     837              $C$DW$145       .dwtag  DW_TAG_formal_parameter
     838                      .dwattr $C$DW$145, DW_AT_type(*$C$DW$T$286)
     839              
     840                      .dwendtag $C$DW$144
     841              
     842                      .global _gCounter_updateGlobals
     843 00000001       _gCounter_updateGlobals:        .usect  ".ebss",1,1,0
     844              $C$DW$146       .dwtag  DW_TAG_variable
     845                      .dwattr $C$DW$146, DW_AT_name("gCounter_updateGlobals")
     846                      .dwattr $C$DW$146, DW_AT_TI_symbol_name("_gCounter_updateGlobals")
     847                      .dwattr $C$DW$146, DW_AT_location[DW_OP_addr _gCounter_updateGlobals]
     848                      .dwattr $C$DW$146, DW_AT_type(*$C$DW$T$66)
     849                      .dwattr $C$DW$146, DW_AT_external
     850              
     851              
     852              $C$DW$147       .dwtag  DW_TAG_subprogram
     853                      .dwattr $C$DW$147, DW_AT_name("EST_getState")
     854                      .dwattr $C$DW$147, DW_AT_TI_symbol_name("_EST_getState")
     855                      .dwattr $C$DW$147, DW_AT_type(*$C$DW$T$201)
     856                      .dwattr $C$DW$147, DW_AT_declaration
     857                      .dwattr $C$DW$147, DW_AT_external
     858              $C$DW$148       .dwtag  DW_TAG_formal_parameter
     859                      .dwattr $C$DW$148, DW_AT_type(*$C$DW$T$46)
     860              
     861                      .dwendtag $C$DW$147
     862              
     863              
     864              $C$DW$149       .dwtag  DW_TAG_subprogram
     865                      .dwattr $C$DW$149, DW_AT_name("HAL_getNumVoltageSensors")
     866                      .dwattr $C$DW$149, DW_AT_TI_symbol_name("_HAL_getNumVoltageSensors")
     867                      .dwattr $C$DW$149, DW_AT_type(*$C$DW$T$32)
     868                      .dwattr $C$DW$149, DW_AT_declaration
     869                      .dwattr $C$DW$149, DW_AT_external
     870              $C$DW$150       .dwtag  DW_TAG_formal_parameter
     871                      .dwattr $C$DW$150, DW_AT_type(*$C$DW$T$286)
TMS320C2000 Assembler PC v18.1.2 Sun Jun 17 14:52:32 2018

Tools Copyright (c) 1996-2017 Texas Instruments Incorporated
C:\Users\haowp\AppData\Local\Temp\{81472915-7FA4-430D-8ACB-BFB8F401620C} PAGE   18

     872              
     873                      .dwendtag $C$DW$149
     874              
     875                      .global _Flag_Latch_softwareUpdate
     876 00000002       _Flag_Latch_softwareUpdate:     .usect  ".ebss",1,1,0
     877              $C$DW$151       .dwtag  DW_TAG_variable
     878                      .dwattr $C$DW$151, DW_AT_name("Flag_Latch_softwareUpdate")
     879                      .dwattr $C$DW$151, DW_AT_TI_symbol_name("_Flag_Latch_softwareUpdate")
     880                      .dwattr $C$DW$151, DW_AT_location[DW_OP_addr _Flag_Latch_softwareUpdate]
     881                      .dwattr $C$DW$151, DW_AT_type(*$C$DW$T$69)
     882                      .dwattr $C$DW$151, DW_AT_external
     883              
     884              
     885              $C$DW$152       .dwtag  DW_TAG_subprogram
     886                      .dwattr $C$DW$152, DW_AT_name("EST_isMotorIdentified")
     887                      .dwattr $C$DW$152, DW_AT_TI_symbol_name("_EST_isMotorIdentified")
     888                      .dwattr $C$DW$152, DW_AT_type(*$C$DW$T$69)
     889                      .dwattr $C$DW$152, DW_AT_declaration
     890                      .dwattr $C$DW$152, DW_AT_external
     891              $C$DW$153       .dwtag  DW_TAG_formal_parameter
     892                      .dwattr $C$DW$153, DW_AT_type(*$C$DW$T$46)
     893              
     894                      .dwendtag $C$DW$152
     895              
     896              
     897              $C$DW$154       .dwtag  DW_TAG_subprogram
     898                      .dwattr $C$DW$154, DW_AT_name("EST_getRs_Ohm")
     899                      .dwattr $C$DW$154, DW_AT_TI_symbol_name("_EST_getRs_Ohm")
     900                      .dwattr $C$DW$154, DW_AT_type(*$C$DW$T$67)
     901                      .dwattr $C$DW$154, DW_AT_declaration
     902                      .dwattr $C$DW$154, DW_AT_external
     903              $C$DW$155       .dwtag  DW_TAG_formal_parameter
     904                      .dwattr $C$DW$155, DW_AT_type(*$C$DW$T$46)
     905              
     906                      .dwendtag $C$DW$154
     907              
     908              
     909              $C$DW$156       .dwtag  DW_TAG_subprogram
     910                      .dwattr $C$DW$156, DW_AT_name("EST_get_pu_to_krpm_sf")
     911                      .dwattr $C$DW$156, DW_AT_TI_symbol_name("_EST_get_pu_to_krpm_sf")
     912                      .dwattr $C$DW$156, DW_AT_type(*$C$DW$T$31)
     913                      .dwattr $C$DW$156, DW_AT_declaration
     914                      .dwattr $C$DW$156, DW_AT_external
     915              $C$DW$157       .dwtag  DW_TAG_formal_parameter
     916                      .dwattr $C$DW$157, DW_AT_type(*$C$DW$T$46)
     917              
     918                      .dwendtag $C$DW$156
     919              
     920              
     921              $C$DW$158       .dwtag  DW_TAG_subprogram
     922                      .dwattr $C$DW$158, DW_AT_name("EST_getLs_d_H")
     923                      .dwattr $C$DW$158, DW_AT_TI_symbol_name("_EST_getLs_d_H")
     924                      .dwattr $C$DW$158, DW_AT_type(*$C$DW$T$67)
     925                      .dwattr $C$DW$158, DW_AT_declaration
     926                      .dwattr $C$DW$158, DW_AT_external
TMS320C2000 Assembler PC v18.1.2 Sun Jun 17 14:52:32 2018

Tools Copyright (c) 1996-2017 Texas Instruments Incorporated
C:\Users\haowp\AppData\Local\Temp\{81472915-7FA4-430D-8ACB-BFB8F401620C} PAGE   19

     927              $C$DW$159       .dwtag  DW_TAG_formal_parameter
     928                      .dwattr $C$DW$159, DW_AT_type(*$C$DW$T$46)
     929              
     930                      .dwendtag $C$DW$158
     931              
     932              
     933              $C$DW$160       .dwtag  DW_TAG_subprogram
     934                      .dwattr $C$DW$160, DW_AT_name("USER_computeFlux_pu_to_Wb_sf")
     935                      .dwattr $C$DW$160, DW_AT_TI_symbol_name("_USER_computeFlux_pu_to_Wb_sf")
     936                      .dwattr $C$DW$160, DW_AT_type(*$C$DW$T$31)
     937                      .dwattr $C$DW$160, DW_AT_declaration
     938                      .dwattr $C$DW$160, DW_AT_external
     939                      .dwendtag $C$DW$160
     940              
     941              
     942              $C$DW$161       .dwtag  DW_TAG_subprogram
     943                      .dwattr $C$DW$161, DW_AT_name("USER_computeTorque_Nm")
     944                      .dwattr $C$DW$161, DW_AT_TI_symbol_name("_USER_computeTorque_Nm")
     945                      .dwattr $C$DW$161, DW_AT_type(*$C$DW$T$31)
     946                      .dwattr $C$DW$161, DW_AT_declaration
     947                      .dwattr $C$DW$161, DW_AT_external
     948              $C$DW$162       .dwtag  DW_TAG_formal_parameter
     949                      .dwattr $C$DW$162, DW_AT_type(*$C$DW$T$237)
     950              
     951              $C$DW$163       .dwtag  DW_TAG_formal_parameter
     952                      .dwattr $C$DW$163, DW_AT_type(*$C$DW$T$312)
     953              
     954              $C$DW$164       .dwtag  DW_TAG_formal_parameter
     955                      .dwattr $C$DW$164, DW_AT_type(*$C$DW$T$312)
     956              
     957                      .dwendtag $C$DW$161
     958              
     959              
     960              $C$DW$165       .dwtag  DW_TAG_subprogram
     961                      .dwattr $C$DW$165, DW_AT_name("USER_computeTorque_Ls_Id_Iq_pu_to_Nm_sf")
     962                      .dwattr $C$DW$165, DW_AT_TI_symbol_name("_USER_computeTorque_Ls_Id_Iq_pu_to_Nm_sf")
     963                      .dwattr $C$DW$165, DW_AT_type(*$C$DW$T$31)
     964                      .dwattr $C$DW$165, DW_AT_declaration
     965                      .dwattr $C$DW$165, DW_AT_external
     966                      .dwendtag $C$DW$165
     967              
     968              
     969              $C$DW$166       .dwtag  DW_TAG_subprogram
     970                      .dwattr $C$DW$166, DW_AT_name("USER_computeFlux_pu_to_VpHz_sf")
     971                      .dwattr $C$DW$166, DW_AT_TI_symbol_name("_USER_computeFlux_pu_to_VpHz_sf")
     972                      .dwattr $C$DW$166, DW_AT_type(*$C$DW$T$31)
     973                      .dwattr $C$DW$166, DW_AT_declaration
     974                      .dwattr $C$DW$166, DW_AT_external
     975                      .dwendtag $C$DW$166
     976              
     977              
     978              $C$DW$167       .dwtag  DW_TAG_subprogram
     979                      .dwattr $C$DW$167, DW_AT_name("EST_getMaxCurrentSlope_pu")
     980                      .dwattr $C$DW$167, DW_AT_TI_symbol_name("_EST_getMaxCurrentSlope_pu")
     981                      .dwattr $C$DW$167, DW_AT_type(*$C$DW$T$31)
TMS320C2000 Assembler PC v18.1.2 Sun Jun 17 14:52:32 2018

Tools Copyright (c) 1996-2017 Texas Instruments Incorporated
C:\Users\haowp\AppData\Local\Temp\{81472915-7FA4-430D-8ACB-BFB8F401620C} PAGE   20

     982                      .dwattr $C$DW$167, DW_AT_declaration
     983                      .dwattr $C$DW$167, DW_AT_external
     984              $C$DW$168       .dwtag  DW_TAG_formal_parameter
     985                      .dwattr $C$DW$168, DW_AT_type(*$C$DW$T$46)
     986              
     987                      .dwendtag $C$DW$167
     988              
     989              
     990              $C$DW$169       .dwtag  DW_TAG_subprogram
     991                      .dwattr $C$DW$169, DW_AT_name("EST_getSpeed_krpm")
     992                      .dwattr $C$DW$169, DW_AT_TI_symbol_name("_EST_getSpeed_krpm")
     993                      .dwattr $C$DW$169, DW_AT_type(*$C$DW$T$31)
     994                      .dwattr $C$DW$169, DW_AT_declaration
     995                      .dwattr $C$DW$169, DW_AT_external
     996              $C$DW$170       .dwtag  DW_TAG_formal_parameter
     997                      .dwattr $C$DW$170, DW_AT_type(*$C$DW$T$46)
     998              
     999                      .dwendtag $C$DW$169
    1000              
    1001              
    1002              $C$DW$171       .dwtag  DW_TAG_subprogram
    1003                      .dwattr $C$DW$171, DW_AT_name("EST_getIdRated")
    1004                      .dwattr $C$DW$171, DW_AT_TI_symbol_name("_EST_getIdRated")
    1005                      .dwattr $C$DW$171, DW_AT_type(*$C$DW$T$67)
    1006                      .dwattr $C$DW$171, DW_AT_declaration
    1007                      .dwattr $C$DW$171, DW_AT_external
    1008              $C$DW$172       .dwtag  DW_TAG_formal_parameter
    1009                      .dwattr $C$DW$172, DW_AT_type(*$C$DW$T$46)
    1010              
    1011                      .dwendtag $C$DW$171
    1012              
    1013              
    1014              $C$DW$173       .dwtag  DW_TAG_subprogram
    1015                      .dwattr $C$DW$173, DW_AT_name("EST_getRr_Ohm")
    1016                      .dwattr $C$DW$173, DW_AT_TI_symbol_name("_EST_getRr_Ohm")
    1017                      .dwattr $C$DW$173, DW_AT_type(*$C$DW$T$67)
    1018                      .dwattr $C$DW$173, DW_AT_declaration
    1019                      .dwattr $C$DW$173, DW_AT_external
    1020              $C$DW$174       .dwtag  DW_TAG_formal_parameter
    1021                      .dwattr $C$DW$174, DW_AT_type(*$C$DW$T$46)
    1022              
    1023                      .dwendtag $C$DW$173
    1024              
    1025              
    1026              $C$DW$175       .dwtag  DW_TAG_subprogram
    1027                      .dwattr $C$DW$175, DW_AT_name("USER_computeTorque_Flux_Iq_pu_to_Nm_sf")
    1028                      .dwattr $C$DW$175, DW_AT_TI_symbol_name("_USER_computeTorque_Flux_Iq_pu_to_Nm_sf")
    1029                      .dwattr $C$DW$175, DW_AT_type(*$C$DW$T$31)
    1030                      .dwattr $C$DW$175, DW_AT_declaration
    1031                      .dwattr $C$DW$175, DW_AT_external
    1032                      .dwendtag $C$DW$175
    1033              
    1034                      .global _halHandle
    1035 00000004       _halHandle:     .usect  ".ebss",2,1,1
    1036              $C$DW$176       .dwtag  DW_TAG_variable
TMS320C2000 Assembler PC v18.1.2 Sun Jun 17 14:52:32 2018

Tools Copyright (c) 1996-2017 Texas Instruments Incorporated
C:\Users\haowp\AppData\Local\Temp\{81472915-7FA4-430D-8ACB-BFB8F401620C} PAGE   21

    1037                      .dwattr $C$DW$176, DW_AT_name("halHandle")
    1038                      .dwattr $C$DW$176, DW_AT_TI_symbol_name("_halHandle")
    1039                      .dwattr $C$DW$176, DW_AT_location[DW_OP_addr _halHandle]
    1040                      .dwattr $C$DW$176, DW_AT_type(*$C$DW$T$286)
    1041                      .dwattr $C$DW$176, DW_AT_external
    1042              
    1043                      .global _ctrlHandle
    1044 00000006       _ctrlHandle:    .usect  ".ebss",2,1,1
    1045              $C$DW$177       .dwtag  DW_TAG_variable
    1046                      .dwattr $C$DW$177, DW_AT_name("ctrlHandle")
    1047                      .dwattr $C$DW$177, DW_AT_TI_symbol_name("_ctrlHandle")
    1048                      .dwattr $C$DW$177, DW_AT_location[DW_OP_addr _ctrlHandle]
    1049                      .dwattr $C$DW$177, DW_AT_type(*$C$DW$T$237)
    1050                      .dwattr $C$DW$177, DW_AT_external
    1051              
    1052              
    1053              $C$DW$178       .dwtag  DW_TAG_subprogram
    1054                      .dwattr $C$DW$178, DW_AT_name("USER_computeFlux")
    1055                      .dwattr $C$DW$178, DW_AT_TI_symbol_name("_USER_computeFlux")
    1056                      .dwattr $C$DW$178, DW_AT_type(*$C$DW$T$31)
    1057                      .dwattr $C$DW$178, DW_AT_declaration
    1058                      .dwattr $C$DW$178, DW_AT_external
    1059              $C$DW$179       .dwtag  DW_TAG_formal_parameter
    1060                      .dwattr $C$DW$179, DW_AT_type(*$C$DW$T$237)
    1061              
    1062              $C$DW$180       .dwtag  DW_TAG_formal_parameter
    1063                      .dwattr $C$DW$180, DW_AT_type(*$C$DW$T$312)
    1064              
    1065                      .dwendtag $C$DW$178
    1066              
    1067                      .global _gMaxCurrentSlope
    1068 00000008       _gMaxCurrentSlope:      .usect  ".ebss",2,1,1
    1069              $C$DW$181       .dwtag  DW_TAG_variable
    1070                      .dwattr $C$DW$181, DW_AT_name("gMaxCurrentSlope")
    1071                      .dwattr $C$DW$181, DW_AT_TI_symbol_name("_gMaxCurrentSlope")
    1072                      .dwattr $C$DW$181, DW_AT_location[DW_OP_addr _gMaxCurrentSlope]
    1073                      .dwattr $C$DW$181, DW_AT_type(*$C$DW$T$31)
    1074                      .dwattr $C$DW$181, DW_AT_external
    1075              
    1076              
    1077              $C$DW$182       .dwtag  DW_TAG_subprogram
    1078                      .dwattr $C$DW$182, DW_AT_name("TRAJ_getIntValue")
    1079                      .dwattr $C$DW$182, DW_AT_TI_symbol_name("_TRAJ_getIntValue")
    1080                      .dwattr $C$DW$182, DW_AT_type(*$C$DW$T$31)
    1081                      .dwattr $C$DW$182, DW_AT_declaration
    1082                      .dwattr $C$DW$182, DW_AT_external
    1083              $C$DW$183       .dwtag  DW_TAG_formal_parameter
    1084                      .dwattr $C$DW$183, DW_AT_type(*$C$DW$T$60)
    1085              
    1086                      .dwendtag $C$DW$182
    1087              
    1088              
    1089              $C$DW$184       .dwtag  DW_TAG_subprogram
    1090                      .dwattr $C$DW$184, DW_AT_name("EST_getFlux_VpHz")
    1091                      .dwattr $C$DW$184, DW_AT_TI_symbol_name("_EST_getFlux_VpHz")
TMS320C2000 Assembler PC v18.1.2 Sun Jun 17 14:52:32 2018

Tools Copyright (c) 1996-2017 Texas Instruments Incorporated
C:\Users\haowp\AppData\Local\Temp\{81472915-7FA4-430D-8ACB-BFB8F401620C} PAGE   22

    1092                      .dwattr $C$DW$184, DW_AT_type(*$C$DW$T$67)
    1093                      .dwattr $C$DW$184, DW_AT_declaration
    1094                      .dwattr $C$DW$184, DW_AT_external
    1095              $C$DW$185       .dwtag  DW_TAG_formal_parameter
    1096                      .dwattr $C$DW$185, DW_AT_type(*$C$DW$T$46)
    1097              
    1098                      .dwendtag $C$DW$184
    1099              
    1100              
    1101              $C$DW$186       .dwtag  DW_TAG_subprogram
    1102                      .dwattr $C$DW$186, DW_AT_name("CTRL_getKp")
    1103                      .dwattr $C$DW$186, DW_AT_TI_symbol_name("_CTRL_getKp")
    1104                      .dwattr $C$DW$186, DW_AT_type(*$C$DW$T$31)
    1105                      .dwattr $C$DW$186, DW_AT_declaration
    1106                      .dwattr $C$DW$186, DW_AT_external
    1107              $C$DW$187       .dwtag  DW_TAG_formal_parameter
    1108                      .dwattr $C$DW$187, DW_AT_type(*$C$DW$T$237)
    1109              
    1110              $C$DW$188       .dwtag  DW_TAG_formal_parameter
    1111                      .dwattr $C$DW$188, DW_AT_type(*$C$DW$T$259)
    1112              
    1113                      .dwendtag $C$DW$186
    1114              
    1115              
    1116              $C$DW$189       .dwtag  DW_TAG_subprogram
    1117                      .dwattr $C$DW$189, DW_AT_name("CTRL_getKi")
    1118                      .dwattr $C$DW$189, DW_AT_TI_symbol_name("_CTRL_getKi")
    1119                      .dwattr $C$DW$189, DW_AT_type(*$C$DW$T$31)
    1120                      .dwattr $C$DW$189, DW_AT_declaration
    1121                      .dwattr $C$DW$189, DW_AT_external
    1122              $C$DW$190       .dwtag  DW_TAG_formal_parameter
    1123                      .dwattr $C$DW$190, DW_AT_type(*$C$DW$T$237)
    1124              
    1125              $C$DW$191       .dwtag  DW_TAG_formal_parameter
    1126                      .dwattr $C$DW$191, DW_AT_type(*$C$DW$T$259)
    1127              
    1128                      .dwendtag $C$DW$189
    1129              
    1130              
    1131              $C$DW$192       .dwtag  DW_TAG_subprogram
    1132                      .dwattr $C$DW$192, DW_AT_name("CTRL_getSpd_int_ref_pu")
    1133                      .dwattr $C$DW$192, DW_AT_TI_symbol_name("_CTRL_getSpd_int_ref_pu")
    1134                      .dwattr $C$DW$192, DW_AT_type(*$C$DW$T$31)
    1135                      .dwattr $C$DW$192, DW_AT_declaration
    1136                      .dwattr $C$DW$192, DW_AT_external
    1137              $C$DW$193       .dwtag  DW_TAG_formal_parameter
    1138                      .dwattr $C$DW$193, DW_AT_type(*$C$DW$T$237)
    1139              
    1140                      .dwendtag $C$DW$192
    1141              
    1142              
    1143              $C$DW$194       .dwtag  DW_TAG_subprogram
    1144                      .dwattr $C$DW$194, DW_AT_name("HAL_getCurrentScaleFactor")
    1145                      .dwattr $C$DW$194, DW_AT_TI_symbol_name("_HAL_getCurrentScaleFactor")
    1146                      .dwattr $C$DW$194, DW_AT_type(*$C$DW$T$31)
TMS320C2000 Assembler PC v18.1.2 Sun Jun 17 14:52:32 2018

Tools Copyright (c) 1996-2017 Texas Instruments Incorporated
C:\Users\haowp\AppData\Local\Temp\{81472915-7FA4-430D-8ACB-BFB8F401620C} PAGE   23

    1147                      .dwattr $C$DW$194, DW_AT_declaration
    1148                      .dwattr $C$DW$194, DW_AT_external
    1149              $C$DW$195       .dwtag  DW_TAG_formal_parameter
    1150                      .dwattr $C$DW$195, DW_AT_type(*$C$DW$T$286)
    1151              
    1152                      .dwendtag $C$DW$194
    1153              
    1154              
    1155              $C$DW$196       .dwtag  DW_TAG_subprogram
    1156                      .dwattr $C$DW$196, DW_AT_name("HAL_getBias")
    1157                      .dwattr $C$DW$196, DW_AT_TI_symbol_name("_HAL_getBias")
    1158                      .dwattr $C$DW$196, DW_AT_type(*$C$DW$T$31)
    1159                      .dwattr $C$DW$196, DW_AT_declaration
    1160                      .dwattr $C$DW$196, DW_AT_external
    1161              $C$DW$197       .dwtag  DW_TAG_formal_parameter
    1162                      .dwattr $C$DW$197, DW_AT_type(*$C$DW$T$286)
    1163              
    1164              $C$DW$198       .dwtag  DW_TAG_formal_parameter
    1165                      .dwattr $C$DW$198, DW_AT_type(*$C$DW$T$262)
    1166              
    1167              $C$DW$199       .dwtag  DW_TAG_formal_parameter
    1168                      .dwattr $C$DW$199, DW_AT_type(*$C$DW$T$32)
    1169              
    1170                      .dwendtag $C$DW$196
    1171              
    1172                      .global _gFlux_pu_to_VpHz_sf
    1173 0000000a       _gFlux_pu_to_VpHz_sf:   .usect  ".ebss",2,1,1
    1174              $C$DW$200       .dwtag  DW_TAG_variable
    1175                      .dwattr $C$DW$200, DW_AT_name("gFlux_pu_to_VpHz_sf")
    1176                      .dwattr $C$DW$200, DW_AT_TI_symbol_name("_gFlux_pu_to_VpHz_sf")
    1177                      .dwattr $C$DW$200, DW_AT_location[DW_OP_addr _gFlux_pu_to_VpHz_sf]
    1178                      .dwattr $C$DW$200, DW_AT_type(*$C$DW$T$31)
    1179                      .dwattr $C$DW$200, DW_AT_external
    1180              
    1181                      .global _gTorque_Ls_Id_Iq_pu_to_Nm_sf
    1182 0000000c       _gTorque_Ls_Id_Iq_pu_to_Nm_sf:  .usect  ".ebss",2,1,1
    1183              $C$DW$201       .dwtag  DW_TAG_variable
    1184                      .dwattr $C$DW$201, DW_AT_name("gTorque_Ls_Id_Iq_pu_to_Nm_sf")
    1185                      .dwattr $C$DW$201, DW_AT_TI_symbol_name("_gTorque_Ls_Id_Iq_pu_to_Nm_sf")
    1186                      .dwattr $C$DW$201, DW_AT_location[DW_OP_addr _gTorque_Ls_Id_Iq_pu_to_Nm_sf]
    1187                      .dwattr $C$DW$201, DW_AT_type(*$C$DW$T$31)
    1188                      .dwattr $C$DW$201, DW_AT_external
    1189              
    1190              
    1191              $C$DW$202       .dwtag  DW_TAG_subprogram
    1192                      .dwattr $C$DW$202, DW_AT_name("OFFSET_getOffset")
    1193                      .dwattr $C$DW$202, DW_AT_TI_symbol_name("_OFFSET_getOffset")
    1194                      .dwattr $C$DW$202, DW_AT_type(*$C$DW$T$31)
    1195                      .dwattr $C$DW$202, DW_AT_declaration
    1196                      .dwattr $C$DW$202, DW_AT_external
    1197              $C$DW$203       .dwtag  DW_TAG_formal_parameter
    1198                      .dwattr $C$DW$203, DW_AT_type(*$C$DW$T$165)
    1199              
    1200                      .dwendtag $C$DW$202
    1201              
TMS320C2000 Assembler PC v18.1.2 Sun Jun 17 14:52:32 2018

Tools Copyright (c) 1996-2017 Texas Instruments Incorporated
C:\Users\haowp\AppData\Local\Temp\{81472915-7FA4-430D-8ACB-BFB8F401620C} PAGE   24

    1202              
    1203              $C$DW$204       .dwtag  DW_TAG_subprogram
    1204                      .dwattr $C$DW$204, DW_AT_name("HAL_init")
    1205                      .dwattr $C$DW$204, DW_AT_TI_symbol_name("_HAL_init")
    1206                      .dwattr $C$DW$204, DW_AT_type(*$C$DW$T$286)
    1207                      .dwattr $C$DW$204, DW_AT_declaration
    1208                      .dwattr $C$DW$204, DW_AT_external
    1209              $C$DW$205       .dwtag  DW_TAG_formal_parameter
    1210                      .dwattr $C$DW$205, DW_AT_type(*$C$DW$T$3)
    1211              
    1212              $C$DW$206       .dwtag  DW_TAG_formal_parameter
    1213                      .dwattr $C$DW$206, DW_AT_type(*$C$DW$T$269)
    1214              
    1215                      .dwendtag $C$DW$204
    1216              
    1217              
    1218              $C$DW$207       .dwtag  DW_TAG_subprogram
    1219                      .dwattr $C$DW$207, DW_AT_name("CTRL_initCtrl")
    1220                      .dwattr $C$DW$207, DW_AT_TI_symbol_name("_CTRL_initCtrl")
    1221                      .dwattr $C$DW$207, DW_AT_type(*$C$DW$T$237)
    1222                      .dwattr $C$DW$207, DW_AT_declaration
    1223                      .dwattr $C$DW$207, DW_AT_external
    1224              $C$DW$208       .dwtag  DW_TAG_formal_parameter
    1225                      .dwattr $C$DW$208, DW_AT_type(*$C$DW$T$267)
    1226              
    1227              $C$DW$209       .dwtag  DW_TAG_formal_parameter
    1228                      .dwattr $C$DW$209, DW_AT_type(*$C$DW$T$3)
    1229              
    1230              $C$DW$210       .dwtag  DW_TAG_formal_parameter
    1231                      .dwattr $C$DW$210, DW_AT_type(*$C$DW$T$269)
    1232              
    1233                      .dwendtag $C$DW$207
    1234              
    1235                      .global _gFlux_pu_to_Wb_sf
    1236 0000000e       _gFlux_pu_to_Wb_sf:     .usect  ".ebss",2,1,1
    1237              $C$DW$211       .dwtag  DW_TAG_variable
    1238                      .dwattr $C$DW$211, DW_AT_name("gFlux_pu_to_Wb_sf")
    1239                      .dwattr $C$DW$211, DW_AT_TI_symbol_name("_gFlux_pu_to_Wb_sf")
    1240                      .dwattr $C$DW$211, DW_AT_location[DW_OP_addr _gFlux_pu_to_Wb_sf]
    1241                      .dwattr $C$DW$211, DW_AT_type(*$C$DW$T$31)
    1242                      .dwattr $C$DW$211, DW_AT_external
    1243              
    1244              $C$DW$212       .dwtag  DW_TAG_variable
    1245                      .dwattr $C$DW$212, DW_AT_name("RamfuncsLoadStart")
    1246                      .dwattr $C$DW$212, DW_AT_TI_symbol_name("_RamfuncsLoadStart")
    1247                      .dwattr $C$DW$212, DW_AT_type(*$C$DW$T$306)
    1248                      .dwattr $C$DW$212, DW_AT_declaration
    1249                      .dwattr $C$DW$212, DW_AT_external
    1250              
    1251              
    1252              $C$DW$213       .dwtag  DW_TAG_subprogram
    1253                      .dwattr $C$DW$213, DW_AT_name("EST_getLs_q_H")
    1254                      .dwattr $C$DW$213, DW_AT_TI_symbol_name("_EST_getLs_q_H")
    1255                      .dwattr $C$DW$213, DW_AT_type(*$C$DW$T$67)
    1256                      .dwattr $C$DW$213, DW_AT_declaration
TMS320C2000 Assembler PC v18.1.2 Sun Jun 17 14:52:32 2018

Tools Copyright (c) 1996-2017 Texas Instruments Incorporated
C:\Users\haowp\AppData\Local\Temp\{81472915-7FA4-430D-8ACB-BFB8F401620C} PAGE   25

    1257                      .dwattr $C$DW$213, DW_AT_external
    1258              $C$DW$214       .dwtag  DW_TAG_formal_parameter
    1259                      .dwattr $C$DW$214, DW_AT_type(*$C$DW$T$46)
    1260              
    1261                      .dwendtag $C$DW$213
    1262              
    1263              
    1264              $C$DW$215       .dwtag  DW_TAG_subprogram
    1265                      .dwattr $C$DW$215, DW_AT_name("HAL_getVoltageScaleFactor")
    1266                      .dwattr $C$DW$215, DW_AT_TI_symbol_name("_HAL_getVoltageScaleFactor")
    1267                      .dwattr $C$DW$215, DW_AT_type(*$C$DW$T$31)
    1268                      .dwattr $C$DW$215, DW_AT_declaration
    1269                      .dwattr $C$DW$215, DW_AT_external
    1270              $C$DW$216       .dwtag  DW_TAG_formal_parameter
    1271                      .dwattr $C$DW$216, DW_AT_type(*$C$DW$T$286)
    1272              
    1273                      .dwendtag $C$DW$215
    1274              
    1275              $C$DW$217       .dwtag  DW_TAG_variable
    1276                      .dwattr $C$DW$217, DW_AT_name("RamfuncsRunStart")
    1277                      .dwattr $C$DW$217, DW_AT_TI_symbol_name("_RamfuncsRunStart")
    1278                      .dwattr $C$DW$217, DW_AT_type(*$C$DW$T$306)
    1279                      .dwattr $C$DW$217, DW_AT_declaration
    1280                      .dwattr $C$DW$217, DW_AT_external
    1281              
    1282              $C$DW$218       .dwtag  DW_TAG_variable
    1283                      .dwattr $C$DW$218, DW_AT_name("RamfuncsLoadEnd")
    1284                      .dwattr $C$DW$218, DW_AT_TI_symbol_name("_RamfuncsLoadEnd")
    1285                      .dwattr $C$DW$218, DW_AT_type(*$C$DW$T$306)
    1286                      .dwattr $C$DW$218, DW_AT_declaration
    1287                      .dwattr $C$DW$218, DW_AT_external
    1288              
    1289                      .global _gTorque_Flux_Iq_pu_to_Nm_sf
    1290 00000010       _gTorque_Flux_Iq_pu_to_Nm_sf:   .usect  ".ebss",2,1,1
    1291              $C$DW$219       .dwtag  DW_TAG_variable
    1292                      .dwattr $C$DW$219, DW_AT_name("gTorque_Flux_Iq_pu_to_Nm_sf")
    1293                      .dwattr $C$DW$219, DW_AT_TI_symbol_name("_gTorque_Flux_Iq_pu_to_Nm_sf")
    1294                      .dwattr $C$DW$219, DW_AT_location[DW_OP_addr _gTorque_Flux_Iq_pu_to_Nm_sf]
    1295                      .dwattr $C$DW$219, DW_AT_type(*$C$DW$T$31)
    1296                      .dwattr $C$DW$219, DW_AT_external
    1297              
    1298                      .global _gPwmData
    1299 00000012       _gPwmData:      .usect  ".ebss",6,1,1
    1300              $C$DW$220       .dwtag  DW_TAG_variable
    1301                      .dwattr $C$DW$220, DW_AT_name("gPwmData")
    1302                      .dwattr $C$DW$220, DW_AT_TI_symbol_name("_gPwmData")
    1303                      .dwattr $C$DW$220, DW_AT_location[DW_OP_addr _gPwmData]
    1304                      .dwattr $C$DW$220, DW_AT_type(*$C$DW$T$290)
    1305                      .dwattr $C$DW$220, DW_AT_external
    1306              
    1307                      .global _gAdcData
    1308 00000018       _gAdcData:      .usect  ".ebss",14,1,1
    1309              $C$DW$221       .dwtag  DW_TAG_variable
    1310                      .dwattr $C$DW$221, DW_AT_name("gAdcData")
    1311                      .dwattr $C$DW$221, DW_AT_TI_symbol_name("_gAdcData")
TMS320C2000 Assembler PC v18.1.2 Sun Jun 17 14:52:32 2018

Tools Copyright (c) 1996-2017 Texas Instruments Incorporated
C:\Users\haowp\AppData\Local\Temp\{81472915-7FA4-430D-8ACB-BFB8F401620C} PAGE   26

    1312                      .dwattr $C$DW$221, DW_AT_location[DW_OP_addr _gAdcData]
    1313                      .dwattr $C$DW$221, DW_AT_type(*$C$DW$T$185)
    1314                      .dwattr $C$DW$221, DW_AT_external
    1315              
    1316                      .global _gDrvSpi8305Vars
    1317 00000040       _gDrvSpi8305Vars:       .usect  ".ebss",97,1,0
    1318              $C$DW$222       .dwtag  DW_TAG_variable
    1319                      .dwattr $C$DW$222, DW_AT_name("gDrvSpi8305Vars")
    1320                      .dwattr $C$DW$222, DW_AT_TI_symbol_name("_gDrvSpi8305Vars")
    1321                      .dwattr $C$DW$222, DW_AT_location[DW_OP_addr _gDrvSpi8305Vars]
    1322                      .dwattr $C$DW$222, DW_AT_type(*$C$DW$T$277)
    1323                      .dwattr $C$DW$222, DW_AT_external
    1324              
    1325                      .global _gMotorVars
    1326 000000c0       _gMotorVars:    .usect  ".ebss",128,1,1
    1327              $C$DW$223       .dwtag  DW_TAG_variable
    1328                      .dwattr $C$DW$223, DW_AT_name("gMotorVars")
    1329                      .dwattr $C$DW$223, DW_AT_TI_symbol_name("_gMotorVars")
    1330                      .dwattr $C$DW$223, DW_AT_location[DW_OP_addr _gMotorVars]
    1331                      .dwattr $C$DW$223, DW_AT_type(*$C$DW$T$294)
    1332                      .dwattr $C$DW$223, DW_AT_external
    1333              
    1334                      .global _gUserParams
    1335 00000140       _gUserParams:   .usect  ".ebss",172,1,1
    1336              $C$DW$224       .dwtag  DW_TAG_variable
    1337                      .dwattr $C$DW$224, DW_AT_name("gUserParams")
    1338                      .dwattr $C$DW$224, DW_AT_TI_symbol_name("_gUserParams")
    1339                      .dwattr $C$DW$224, DW_AT_location[DW_OP_addr _gUserParams]
    1340                      .dwattr $C$DW$224, DW_AT_type(*$C$DW$T$243)
    1341                      .dwattr $C$DW$224, DW_AT_external
    1342              
    1343              $C$DW$225       .dwtag  DW_TAG_variable
    1344                      .dwattr $C$DW$225, DW_AT_name("hal")
    1345                      .dwattr $C$DW$225, DW_AT_TI_symbol_name("_hal")
    1346                      .dwattr $C$DW$225, DW_AT_type(*$C$DW$T$284)
    1347                      .dwattr $C$DW$225, DW_AT_declaration
    1348                      .dwattr $C$DW$225, DW_AT_external
    1349              
    1350                      .global _ctrl
    1351 00000200       _ctrl:  .usect  ".ebss",264,1,1
    1352              $C$DW$226       .dwtag  DW_TAG_variable
    1353                      .dwattr $C$DW$226, DW_AT_name("ctrl")
    1354                      .dwattr $C$DW$226, DW_AT_TI_symbol_name("_ctrl")
    1355                      .dwattr $C$DW$226, DW_AT_location[DW_OP_addr _ctrl]
    1356                      .dwattr $C$DW$226, DW_AT_type(*$C$DW$T$264)
    1357                      .dwattr $C$DW$226, DW_AT_external
    1358              
    1359              ;       D:\ti\ccsv8\tools\compiler\ti-cgt-c2000_18.1.2.LTS\bin\opt2000.exe C:\\Users\\haowp\\AppData\\Local\\
    1360              ;       D:\ti\ccsv8\tools\compiler\ti-cgt-c2000_18.1.2.LTS\bin\ac2000.exe -@C:\\Users\\haowp\\AppData\\Local\
    1361 00000000               .sect   ".text"
    1362                      .clink
    1363                      .global _updateKpKiGains
    1364              
    1365              $C$DW$227       .dwtag  DW_TAG_subprogram
    1366                      .dwattr $C$DW$227, DW_AT_name("updateKpKiGains")
TMS320C2000 Assembler PC v18.1.2 Sun Jun 17 14:52:32 2018

Tools Copyright (c) 1996-2017 Texas Instruments Incorporated
C:\Users\haowp\AppData\Local\Temp\{81472915-7FA4-430D-8ACB-BFB8F401620C} PAGE   27

    1367                      .dwattr $C$DW$227, DW_AT_low_pc(_updateKpKiGains)
    1368                      .dwattr $C$DW$227, DW_AT_high_pc(0x00)
    1369                      .dwattr $C$DW$227, DW_AT_TI_symbol_name("_updateKpKiGains")
    1370                      .dwattr $C$DW$227, DW_AT_external
    1371                      .dwattr $C$DW$227, DW_AT_TI_begin_file("D:/ti/motorware/motorware_1_01_00_18/sw/solutions/instaspin_f
    1372                      .dwattr $C$DW$227, DW_AT_TI_begin_line(0x218)
    1373                      .dwattr $C$DW$227, DW_AT_TI_begin_column(0x06)
    1374                      .dwattr $C$DW$227, DW_AT_TI_max_frame_size(-2)
    1375                      .dwpsn  file "D:/ti/motorware/motorware_1_01_00_18/sw/solutions/instaspin_foc/src/proj_lab05b.c",line
    1376              
    1377                      .dwfde $C$DW$CIE, _updateKpKiGains
    1378              $C$DW$228       .dwtag  DW_TAG_formal_parameter
    1379                      .dwattr $C$DW$228, DW_AT_name("handle")
    1380                      .dwattr $C$DW$228, DW_AT_TI_symbol_name("_handle")
    1381                      .dwattr $C$DW$228, DW_AT_type(*$C$DW$T$237)
    1382                      .dwattr $C$DW$228, DW_AT_location[DW_OP_reg12]
    1383              
    1384              
    1385              ;***************************************************************
    1386              ;* FNAME: _updateKpKiGains              FR SIZE:   0           *
    1387              ;*                                                             *
    1388              ;* FUNCTION ENVIRONMENT                                        *
    1389              ;*                                                             *
    1390              ;* FUNCTION PROPERTIES                                         *
    1391              ;*                            0 Parameter,  0 Auto,  0 SOE     *
    1392              ;***************************************************************
    1393              
    1394              _updateKpKiGains:
    1395              ;* AR4   assigned to _handle
    1396              $C$DW$229       .dwtag  DW_TAG_variable
    1397                      .dwattr $C$DW$229, DW_AT_name("handle")
    1398                      .dwattr $C$DW$229, DW_AT_TI_symbol_name("_handle")
    1399                      .dwattr $C$DW$229, DW_AT_type(*$C$DW$T$266)
    1400                      .dwattr $C$DW$229, DW_AT_location[DW_OP_reg12]
    1401              
    1402              ;* AL    assigned to _Kp
    1403              $C$DW$230       .dwtag  DW_TAG_variable
    1404                      .dwattr $C$DW$230, DW_AT_name("Kp")
    1405                      .dwattr $C$DW$230, DW_AT_TI_symbol_name("_Kp")
    1406                      .dwattr $C$DW$230, DW_AT_type(*$C$DW$T$31)
    1407                      .dwattr $C$DW$230, DW_AT_location[DW_OP_reg0]
    1408              
    1409              ;* AL    assigned to _Ki
    1410              $C$DW$231       .dwtag  DW_TAG_variable
    1411                      .dwattr $C$DW$231, DW_AT_name("Ki")
    1412                      .dwattr $C$DW$231, DW_AT_TI_symbol_name("_Ki")
    1413                      .dwattr $C$DW$231, DW_AT_type(*$C$DW$T$31)
    1414                      .dwattr $C$DW$231, DW_AT_location[DW_OP_reg0]
    1415              
    1416              ;* AL    assigned to _Kp
    1417              $C$DW$232       .dwtag  DW_TAG_variable
    1418                      .dwattr $C$DW$232, DW_AT_name("Kp")
    1419                      .dwattr $C$DW$232, DW_AT_TI_symbol_name("_Kp")
    1420                      .dwattr $C$DW$232, DW_AT_type(*$C$DW$T$31)
    1421                      .dwattr $C$DW$232, DW_AT_location[DW_OP_reg0]
TMS320C2000 Assembler PC v18.1.2 Sun Jun 17 14:52:32 2018

Tools Copyright (c) 1996-2017 Texas Instruments Incorporated
C:\Users\haowp\AppData\Local\Temp\{81472915-7FA4-430D-8ACB-BFB8F401620C} PAGE   28

    1422              
    1423              ;* AL    assigned to _Ki
    1424              $C$DW$233       .dwtag  DW_TAG_variable
    1425                      .dwattr $C$DW$233, DW_AT_name("Ki")
    1426                      .dwattr $C$DW$233, DW_AT_TI_symbol_name("_Ki")
    1427                      .dwattr $C$DW$233, DW_AT_type(*$C$DW$T$31)
    1428                      .dwattr $C$DW$233, DW_AT_location[DW_OP_reg0]
    1429              
    1430              ;* AL    assigned to _Kp
    1431              $C$DW$234       .dwtag  DW_TAG_variable
    1432                      .dwattr $C$DW$234, DW_AT_name("Kp")
    1433                      .dwattr $C$DW$234, DW_AT_TI_symbol_name("_Kp")
    1434                      .dwattr $C$DW$234, DW_AT_type(*$C$DW$T$31)
    1435                      .dwattr $C$DW$234, DW_AT_location[DW_OP_reg0]
    1436              
    1437              ;* AL    assigned to _Ki
    1438              $C$DW$235       .dwtag  DW_TAG_variable
    1439                      .dwattr $C$DW$235, DW_AT_name("Ki")
    1440                      .dwattr $C$DW$235, DW_AT_TI_symbol_name("_Ki")
    1441                      .dwattr $C$DW$235, DW_AT_type(*$C$DW$T$31)
    1442                      .dwattr $C$DW$235, DW_AT_location[DW_OP_reg0]
    1443              
    1444                      .dwcfi  cfa_offset, -2
    1445                      .dwcfi  save_reg_to_mem, 26, 0
    1446 00000000 761F-         MOVW      DP,#_gMotorVars+13    ; [CPU_ARAU] 
         00000001 0003 
    1447                      .dwpsn  file "D:/ti/motorware/motorware_1_01_00_18/sw/solutions/instaspin_foc/src/proj_lab05b.c",line
    1448 00000002 920D-         MOV       AL,@_gMotorVars+13    ; [CPU_ALU] |538| 
    1449 00000003 5203          CMPB      AL,#3                 ; [CPU_ALU] |538| 
    1450 00000004 601D          B         $C$L1,NEQ             ; [CPU_ALU] |538| 
    1451                      ; branchcc occurs ; [] |538| 
    1452 00000005 9202-         MOV       AL,@_gMotorVars+2     ; [CPU_ALU] |538| 
    1453 00000006 5201          CMPB      AL,#1                 ; [CPU_ALU] |538| 
    1454 00000007 601A          B         $C$L1,NEQ             ; [CPU_ALU] |538| 
    1455                      ; branchcc occurs ; [] |538| 
    1456 00000008 761F-         MOVW      DP,#_Flag_Latch_softwareUpdate ; [CPU_ARAU] 
         00000009 0000 
    1457 0000000a 9202-         MOV       AL,@_Flag_Latch_softwareUpdate ; [CPU_ALU] |538| 
    1458 0000000b 5201          CMPB      AL,#1                 ; [CPU_ALU] |538| 
    1459 0000000c 6115          B         $C$L1,EQ              ; [CPU_ALU] |538| 
    1460                      ; branchcc occurs ; [] |538| 
    1461 0000000d 761F-         MOVW      DP,#_gMotorVars+70    ; [CPU_ARAU] 
         0000000e 0004 
    1462                      .dwpsn  file "D:/ti/motorware/motorware_1_01_00_18/sw/modules/ctrl/src/32b/ctrl.h",line 1505,column 7
    1463 0000000f D0CE          MOVB      XAR0,#206             ; [CPU_ALU] |1505| 
    1464                      .dwpsn  file "D:/ti/motorware/motorware_1_01_00_18/sw/modules/ctrl/src/32b/ctrl.h",line 1500,column 1
    1465 00000010 0606-         MOVL      ACC,@_gMotorVars+70   ; [CPU_ALU] |1500| 
    1466                      .dwpsn  file "D:/ti/motorware/motorware_1_01_00_18/sw/modules/ctrl/src/32b/ctrl.h",line 1505,column 7
    1467 00000011 1E94          MOVL      *+XAR4[AR0],ACC       ; [CPU_ALU] |1505| 
    1468                      .dwpsn  file "D:/ti/motorware/motorware_1_01_00_18/sw/modules/ctrl/src/32b/ctrl.h",line 1480,column 7
    1469 00000012 D0D4          MOVB      XAR0,#212             ; [CPU_ALU] |1480| 
    1470                      .dwpsn  file "D:/ti/motorware/motorware_1_01_00_18/sw/modules/ctrl/src/32b/ctrl.h",line 1475,column 1
    1471 00000013 0608-         MOVL      ACC,@_gMotorVars+72   ; [CPU_ALU] |1475| 
    1472                      .dwpsn  file "D:/ti/motorware/motorware_1_01_00_18/sw/modules/ctrl/src/32b/ctrl.h",line 1480,column 7
    1473 00000014 1E94          MOVL      *+XAR4[AR0],ACC       ; [CPU_ALU] |1480| 
TMS320C2000 Assembler PC v18.1.2 Sun Jun 17 14:52:32 2018

Tools Copyright (c) 1996-2017 Texas Instruments Incorporated
C:\Users\haowp\AppData\Local\Temp\{81472915-7FA4-430D-8ACB-BFB8F401620C} PAGE   29

    1474                      .dwpsn  file "D:/ti/motorware/motorware_1_01_00_18/sw/modules/ctrl/src/32b/ctrl.h",line 1509,column 7
    1475 00000015 D0CA          MOVB      XAR0,#202             ; [CPU_ALU] |1509| 
    1476                      .dwpsn  file "D:/ti/motorware/motorware_1_01_00_18/sw/modules/ctrl/src/32b/ctrl.h",line 1500,column 1
    1477 00000016 060A-         MOVL      ACC,@_gMotorVars+74   ; [CPU_ALU] |1500| 
    1478                      .dwpsn  file "D:/ti/motorware/motorware_1_01_00_18/sw/modules/ctrl/src/32b/ctrl.h",line 1509,column 7
    1479 00000017 1E94          MOVL      *+XAR4[AR0],ACC       ; [CPU_ALU] |1509| 
    1480                      .dwpsn  file "D:/ti/motorware/motorware_1_01_00_18/sw/modules/ctrl/src/32b/ctrl.h",line 1484,column 7
    1481 00000018 D0D0          MOVB      XAR0,#208             ; [CPU_ALU] |1484| 
    1482                      .dwpsn  file "D:/ti/motorware/motorware_1_01_00_18/sw/modules/ctrl/src/32b/ctrl.h",line 1475,column 1
    1483 00000019 060C-         MOVL      ACC,@_gMotorVars+76   ; [CPU_ALU] |1475| 
    1484                      .dwpsn  file "D:/ti/motorware/motorware_1_01_00_18/sw/modules/ctrl/src/32b/ctrl.h",line 1484,column 7
    1485 0000001a 1E94          MOVL      *+XAR4[AR0],ACC       ; [CPU_ALU] |1484| 
    1486                      .dwpsn  file "D:/ti/motorware/motorware_1_01_00_18/sw/modules/ctrl/src/32b/ctrl.h",line 1513,column 7
    1487 0000001b D0CC          MOVB      XAR0,#204             ; [CPU_ALU] |1513| 
    1488                      .dwpsn  file "D:/ti/motorware/motorware_1_01_00_18/sw/modules/ctrl/src/32b/ctrl.h",line 1500,column 1
    1489 0000001c 060A-         MOVL      ACC,@_gMotorVars+74   ; [CPU_ALU] |1500| 
    1490                      .dwpsn  file "D:/ti/motorware/motorware_1_01_00_18/sw/modules/ctrl/src/32b/ctrl.h",line 1513,column 7
    1491 0000001d 1E94          MOVL      *+XAR4[AR0],ACC       ; [CPU_ALU] |1513| 
    1492                      .dwpsn  file "D:/ti/motorware/motorware_1_01_00_18/sw/modules/ctrl/src/32b/ctrl.h",line 1475,column 1
    1493 0000001e 060C-         MOVL      ACC,@_gMotorVars+76   ; [CPU_ALU] |1475| 
    1494                      .dwpsn  file "D:/ti/motorware/motorware_1_01_00_18/sw/modules/ctrl/src/32b/ctrl.h",line 1488,column 7
    1495 0000001f D0D2          MOVB      XAR0,#210             ; [CPU_ALU] |1488| 
    1496 00000020 1E94          MOVL      *+XAR4[AR0],ACC       ; [CPU_ALU] |1488| 
    1497              $C$L1:    
    1498              $C$DW$236       .dwtag  DW_TAG_TI_branch
    1499                      .dwattr $C$DW$236, DW_AT_low_pc(0x00)
    1500                      .dwattr $C$DW$236, DW_AT_TI_return
    1501              
    1502 00000021 0006          LRETR     ; [CPU_ALU] 
    1503                      ; return occurs ; [] 
    1504                      .dwattr $C$DW$227, DW_AT_TI_end_file("D:/ti/motorware/motorware_1_01_00_18/sw/solutions/instaspin_foc
    1505                      .dwattr $C$DW$227, DW_AT_TI_end_line(0x228)
    1506                      .dwattr $C$DW$227, DW_AT_TI_end_column(0x01)
    1507                      .dwendentry
    1508                      .dwendtag $C$DW$227
    1509              
    1510 00000022               .sect   ".text"
    1511                      .clink
    1512                      .global _updateGlobalVariables_motor
    1513              
    1514              $C$DW$237       .dwtag  DW_TAG_subprogram
    1515                      .dwattr $C$DW$237, DW_AT_name("updateGlobalVariables_motor")
    1516                      .dwattr $C$DW$237, DW_AT_low_pc(_updateGlobalVariables_motor)
    1517                      .dwattr $C$DW$237, DW_AT_high_pc(0x00)
    1518                      .dwattr $C$DW$237, DW_AT_TI_symbol_name("_updateGlobalVariables_motor")
    1519                      .dwattr $C$DW$237, DW_AT_external
    1520                      .dwattr $C$DW$237, DW_AT_TI_begin_file("D:/ti/motorware/motorware_1_01_00_18/sw/solutions/instaspin_f
    1521                      .dwattr $C$DW$237, DW_AT_TI_begin_line(0x1e9)
    1522                      .dwattr $C$DW$237, DW_AT_TI_begin_column(0x06)
    1523                      .dwattr $C$DW$237, DW_AT_TI_max_frame_size(-8)
    1524                      .dwpsn  file "D:/ti/motorware/motorware_1_01_00_18/sw/solutions/instaspin_foc/src/proj_lab05b.c",line
    1525              
    1526                      .dwfde $C$DW$CIE, _updateGlobalVariables_motor
    1527              $C$DW$238       .dwtag  DW_TAG_formal_parameter
    1528                      .dwattr $C$DW$238, DW_AT_name("handle")
TMS320C2000 Assembler PC v18.1.2 Sun Jun 17 14:52:32 2018

Tools Copyright (c) 1996-2017 Texas Instruments Incorporated
C:\Users\haowp\AppData\Local\Temp\{81472915-7FA4-430D-8ACB-BFB8F401620C} PAGE   30

    1529                      .dwattr $C$DW$238, DW_AT_TI_symbol_name("_handle")
    1530                      .dwattr $C$DW$238, DW_AT_type(*$C$DW$T$237)
    1531                      .dwattr $C$DW$238, DW_AT_location[DW_OP_reg12]
    1532              
    1533              
    1534              ;***************************************************************
    1535              ;* FNAME: _updateGlobalVariables_motor  FR SIZE:   6           *
    1536              ;*                                                             *
    1537              ;* FUNCTION ENVIRONMENT                                        *
    1538              ;*                                                             *
    1539              ;* FUNCTION PROPERTIES                                         *
    1540              ;*                            2 Parameter,  0 Auto,  4 SOE     *
    1541              ;***************************************************************
    1542              
    1543              _updateGlobalVariables_motor:
    1544              ;* XT    assigned to $O$R1
    1545              ;* AR2   assigned to _handle
    1546              $C$DW$239       .dwtag  DW_TAG_variable
    1547                      .dwattr $C$DW$239, DW_AT_name("handle")
    1548                      .dwattr $C$DW$239, DW_AT_TI_symbol_name("_handle")
    1549                      .dwattr $C$DW$239, DW_AT_type(*$C$DW$T$266)
    1550                      .dwattr $C$DW$239, DW_AT_location[DW_OP_reg8]
    1551              
    1552                      .dwcfi  cfa_offset, -2
    1553                      .dwcfi  save_reg_to_mem, 26, 0
    1554 00000022 B2BD          MOVL      *SP++,XAR1            ; [CPU_ALU] 
    1555                      .dwcfi  save_reg_to_mem, 7, 2
    1556                      .dwcfi  cfa_offset, -4
    1557 00000023 AABD          MOVL      *SP++,XAR2            ; [CPU_ALU] 
    1558                      .dwcfi  save_reg_to_mem, 9, 4
    1559                      .dwcfi  cfa_offset, -6
    1560 00000024 FE02          ADDB      SP,#2                 ; [CPU_ARAU] 
    1561                      .dwcfi  cfa_offset, -8
    1562 00000025 86A4          MOVL      XAR2,XAR4             ; [CPU_ALU] |490| 
    1563                      .dwpsn  file "D:/ti/motorware/motorware_1_01_00_18/sw/solutions/instaspin_foc/src/proj_lab05b.c",line
    1564 00000026 D018          MOVB      XAR0,#24              ; [CPU_ALU] |494| 
    1565 00000027 8A92          MOVL      XAR4,*+XAR2[AR0]      ; [CPU_ALU] |494| 
    1566              $C$DW$240       .dwtag  DW_TAG_TI_branch
    1567                      .dwattr $C$DW$240, DW_AT_low_pc(0x00)
    1568                      .dwattr $C$DW$240, DW_AT_name("_EST_getSpeed_krpm")
    1569                      .dwattr $C$DW$240, DW_AT_TI_call
    1570              
    1571 00000028 7640!         LCR       #_EST_getSpeed_krpm   ; [CPU_ALU] |494| 
         00000029 0000 
    1572                      ; call occurs [#_EST_getSpeed_krpm] ; [] |494| 
    1573 0000002a 761F-         MOVW      DP,#_gMotorVars+32    ; [CPU_ARAU] 
         0000002b 0003 
    1574                      .dwpsn  file "D:/ti/motorware/motorware_1_01_00_18/sw/modules/traj/src/32b/traj.h",line 96,column 3,i
    1575 0000002c D06C          MOVB      XAR0,#108             ; [CPU_ALU] |96| 
    1576                      .dwpsn  file "D:/ti/motorware/motorware_1_01_00_18/sw/solutions/instaspin_foc/src/proj_lab05b.c",line
    1577 0000002d 1E20-         MOVL      @_gMotorVars+32,ACC   ; [CPU_ALU] |494| 
    1578                      .dwpsn  file "D:/ti/motorware/motorware_1_01_00_18/sw/modules/traj/src/32b/traj.h",line 96,column 3,i
    1579 0000002e 8A92          MOVL      XAR4,*+XAR2[AR0]      ; [CPU_ALU] |96| 
    1580                      .dwpsn  file "D:/ti/motorware/motorware_1_01_00_18/sw/solutions/instaspin_foc/src/proj_lab05b.c",line
    1581 0000002f D018          MOVB      XAR0,#24              ; [CPU_ALU] |497| 
TMS320C2000 Assembler PC v18.1.2 Sun Jun 17 14:52:32 2018

Tools Copyright (c) 1996-2017 Texas Instruments Incorporated
C:\Users\haowp\AppData\Local\Temp\{81472915-7FA4-430D-8ACB-BFB8F401620C} PAGE   31

    1582                      .dwpsn  file "D:/ti/motorware/motorware_1_01_00_18/sw/modules/traj/src/32b/traj.h",line 96,column 3,i
    1583 00000030 8BD4          MOVL      XAR1,*+XAR4[2]        ; [CPU_ALU] |96| 
    1584                      .dwpsn  file "D:/ti/motorware/motorware_1_01_00_18/sw/solutions/instaspin_foc/src/proj_lab05b.c",line
    1585 00000031 8A92          MOVL      XAR4,*+XAR2[AR0]      ; [CPU_ALU] |497| 
    1586              $C$DW$241       .dwtag  DW_TAG_TI_branch
    1587                      .dwattr $C$DW$241, DW_AT_low_pc(0x00)
    1588                      .dwattr $C$DW$241, DW_AT_name("_EST_get_pu_to_krpm_sf")
    1589                      .dwattr $C$DW$241, DW_AT_TI_call
    1590              
    1591 00000032 7640!         LCR       #_EST_get_pu_to_krpm_sf ; [CPU_ALU] |497| 
         00000033 0000 
    1592                      ; call occurs [#_EST_get_pu_to_krpm_sf] ; [] |497| 
    1593 00000034 761F-         MOVW      DP,#_gMotorVars+28    ; [CPU_ARAU] 
         00000035 0003 
    1594 00000036 B2AC          MOVL      XT,XAR1               ; [CPU_ALU] |497| 
    1595                      .dwpsn  file "D:/ti/motorware/motorware_1_01_00_18/sw/solutions/instaspin_foc/src/proj_lab05b.c",line
    1596 00000037 8AA2          MOVL      XAR4,XAR2             ; [CPU_ALU] |500| 
    1597                      .dwpsn  file "D:/ti/motorware/motorware_1_01_00_18/sw/solutions/instaspin_foc/src/proj_lab05b.c",line
    1598 00000038 5605          IMPYL     P,XT,ACC              ; [CPU_ALU] |497| 
         00000039 00A9 
    1599 0000003a 5663          QMPYL     ACC,XT,ACC            ; [CPU_ALU] |497| 
         0000003b 00A9 
    1600 0000003c 56A7          LSL64     ACC:P,#8              ; [CPU_ALU] |497| 
    1601 0000003d 1E1C-         MOVL      @_gMotorVars+28,ACC   ; [CPU_ALU] |497| 
    1602 0000003e 761F-         MOVW      DP,#_gTorque_Ls_Id_Iq_pu_to_Nm_sf ; [CPU_ARAU] 
         0000003f 0000 
    1603                      .dwpsn  file "D:/ti/motorware/motorware_1_01_00_18/sw/solutions/instaspin_foc/src/proj_lab05b.c",line
    1604 00000040 060C-         MOVL      ACC,@_gTorque_Ls_Id_Iq_pu_to_Nm_sf ; [CPU_ALU] |500| 
    1605 00000041 1E42          MOVL      *-SP[2],ACC           ; [CPU_ALU] |500| 
    1606 00000042 0610-         MOVL      ACC,@_gTorque_Flux_Iq_pu_to_Nm_sf ; [CPU_ALU] |500| 
    1607              $C$DW$242       .dwtag  DW_TAG_TI_branch
    1608                      .dwattr $C$DW$242, DW_AT_low_pc(0x00)
    1609                      .dwattr $C$DW$242, DW_AT_name("_USER_computeTorque_Nm")
    1610                      .dwattr $C$DW$242, DW_AT_TI_call
    1611              
    1612 00000043 7640!         LCR       #_USER_computeTorque_Nm ; [CPU_ALU] |500| 
         00000044 0000 
    1613                      ; call occurs [#_USER_computeTorque_Nm] ; [] |500| 
    1614 00000045 761F-         MOVW      DP,#_gMotorVars+42    ; [CPU_ARAU] 
         00000046 0003 
    1615                      .dwpsn  file "D:/ti/motorware/motorware_1_01_00_18/sw/solutions/instaspin_foc/src/proj_lab05b.c",line
    1616 00000047 D018          MOVB      XAR0,#24              ; [CPU_ALU] |503| 
    1617                      .dwpsn  file "D:/ti/motorware/motorware_1_01_00_18/sw/solutions/instaspin_foc/src/proj_lab05b.c",line
    1618 00000048 1E2A-         MOVL      @_gMotorVars+42,ACC   ; [CPU_ALU] |500| 
    1619                      .dwpsn  file "D:/ti/motorware/motorware_1_01_00_18/sw/solutions/instaspin_foc/src/proj_lab05b.c",line
    1620 00000049 8A92          MOVL      XAR4,*+XAR2[AR0]      ; [CPU_ALU] |503| 
    1621              $C$DW$243       .dwtag  DW_TAG_TI_branch
    1622                      .dwattr $C$DW$243, DW_AT_low_pc(0x00)
    1623                      .dwattr $C$DW$243, DW_AT_name("_EST_getIdRated")
    1624                      .dwattr $C$DW$243, DW_AT_TI_call
    1625              
    1626 0000004a 7640!         LCR       #_EST_getIdRated      ; [CPU_ALU] |503| 
         0000004b 0000 
    1627                      ; call occurs [#_EST_getIdRated] ; [] |503| 
    1628 0000004c 761F-         MOVW      DP,#_gMotorVars+44    ; [CPU_ARAU] 
TMS320C2000 Assembler PC v18.1.2 Sun Jun 17 14:52:32 2018

Tools Copyright (c) 1996-2017 Texas Instruments Incorporated
C:\Users\haowp\AppData\Local\Temp\{81472915-7FA4-430D-8ACB-BFB8F401620C} PAGE   32

         0000004d 0003 
    1629                      .dwpsn  file "D:/ti/motorware/motorware_1_01_00_18/sw/solutions/instaspin_foc/src/proj_lab05b.c",line
    1630 0000004e D018          MOVB      XAR0,#24              ; [CPU_ALU] |506| 
    1631                      .dwpsn  file "D:/ti/motorware/motorware_1_01_00_18/sw/solutions/instaspin_foc/src/proj_lab05b.c",line
    1632 0000004f 1E2C-         MOVL      @_gMotorVars+44,ACC   ; [CPU_ALU] |503| 
    1633                      .dwpsn  file "D:/ti/motorware/motorware_1_01_00_18/sw/solutions/instaspin_foc/src/proj_lab05b.c",line
    1634 00000050 8A92          MOVL      XAR4,*+XAR2[AR0]      ; [CPU_ALU] |506| 
    1635              $C$DW$244       .dwtag  DW_TAG_TI_branch
    1636                      .dwattr $C$DW$244, DW_AT_low_pc(0x00)
    1637                      .dwattr $C$DW$244, DW_AT_name("_EST_getRr_Ohm")
    1638                      .dwattr $C$DW$244, DW_AT_TI_call
    1639              
    1640 00000051 7640!         LCR       #_EST_getRr_Ohm       ; [CPU_ALU] |506| 
         00000052 0000 
    1641                      ; call occurs [#_EST_getRr_Ohm] ; [] |506| 
    1642 00000053 761F-         MOVW      DP,#_gMotorVars+46    ; [CPU_ARAU] 
         00000054 0003 
    1643                      .dwpsn  file "D:/ti/motorware/motorware_1_01_00_18/sw/solutions/instaspin_foc/src/proj_lab05b.c",line
    1644 00000055 D018          MOVB      XAR0,#24              ; [CPU_ALU] |509| 
    1645                      .dwpsn  file "D:/ti/motorware/motorware_1_01_00_18/sw/solutions/instaspin_foc/src/proj_lab05b.c",line
    1646 00000056 1E2E-         MOVL      @_gMotorVars+46,ACC   ; [CPU_ALU] |506| 
    1647                      .dwpsn  file "D:/ti/motorware/motorware_1_01_00_18/sw/solutions/instaspin_foc/src/proj_lab05b.c",line
    1648 00000057 8A92          MOVL      XAR4,*+XAR2[AR0]      ; [CPU_ALU] |509| 
    1649              $C$DW$245       .dwtag  DW_TAG_TI_branch
    1650                      .dwattr $C$DW$245, DW_AT_low_pc(0x00)
    1651                      .dwattr $C$DW$245, DW_AT_name("_EST_getRs_Ohm")
    1652                      .dwattr $C$DW$245, DW_AT_TI_call
    1653              
    1654 00000058 7640!         LCR       #_EST_getRs_Ohm       ; [CPU_ALU] |509| 
         00000059 0000 
    1655                      ; call occurs [#_EST_getRs_Ohm] ; [] |509| 
    1656 0000005a 761F-         MOVW      DP,#_gMotorVars+48    ; [CPU_ARAU] 
         0000005b 0003 
    1657                      .dwpsn  file "D:/ti/motorware/motorware_1_01_00_18/sw/solutions/instaspin_foc/src/proj_lab05b.c",line
    1658 0000005c D018          MOVB      XAR0,#24              ; [CPU_ALU] |512| 
    1659                      .dwpsn  file "D:/ti/motorware/motorware_1_01_00_18/sw/solutions/instaspin_foc/src/proj_lab05b.c",line
    1660 0000005d 1E30-         MOVL      @_gMotorVars+48,ACC   ; [CPU_ALU] |509| 
    1661                      .dwpsn  file "D:/ti/motorware/motorware_1_01_00_18/sw/solutions/instaspin_foc/src/proj_lab05b.c",line
    1662 0000005e 8A92          MOVL      XAR4,*+XAR2[AR0]      ; [CPU_ALU] |512| 
    1663              $C$DW$246       .dwtag  DW_TAG_TI_branch
    1664                      .dwattr $C$DW$246, DW_AT_low_pc(0x00)
    1665                      .dwattr $C$DW$246, DW_AT_name("_EST_getLs_d_H")
    1666                      .dwattr $C$DW$246, DW_AT_TI_call
    1667              
    1668 0000005f 7640!         LCR       #_EST_getLs_d_H       ; [CPU_ALU] |512| 
         00000060 0000 
    1669                      ; call occurs [#_EST_getLs_d_H] ; [] |512| 
    1670 00000061 761F-         MOVW      DP,#_gMotorVars+52    ; [CPU_ARAU] 
         00000062 0003 
    1671                      .dwpsn  file "D:/ti/motorware/motorware_1_01_00_18/sw/solutions/instaspin_foc/src/proj_lab05b.c",line
    1672 00000063 D018          MOVB      XAR0,#24              ; [CPU_ALU] |515| 
    1673                      .dwpsn  file "D:/ti/motorware/motorware_1_01_00_18/sw/solutions/instaspin_foc/src/proj_lab05b.c",line
    1674 00000064 1E34-         MOVL      @_gMotorVars+52,ACC   ; [CPU_ALU] |512| 
    1675                      .dwpsn  file "D:/ti/motorware/motorware_1_01_00_18/sw/solutions/instaspin_foc/src/proj_lab05b.c",line
    1676 00000065 8A92          MOVL      XAR4,*+XAR2[AR0]      ; [CPU_ALU] |515| 
TMS320C2000 Assembler PC v18.1.2 Sun Jun 17 14:52:32 2018

Tools Copyright (c) 1996-2017 Texas Instruments Incorporated
C:\Users\haowp\AppData\Local\Temp\{81472915-7FA4-430D-8ACB-BFB8F401620C} PAGE   33

    1677              $C$DW$247       .dwtag  DW_TAG_TI_branch
    1678                      .dwattr $C$DW$247, DW_AT_low_pc(0x00)
    1679                      .dwattr $C$DW$247, DW_AT_name("_EST_getLs_q_H")
    1680                      .dwattr $C$DW$247, DW_AT_TI_call
    1681              
    1682 00000066 7640!         LCR       #_EST_getLs_q_H       ; [CPU_ALU] |515| 
         00000067 0000 
    1683                      ; call occurs [#_EST_getLs_q_H] ; [] |515| 
    1684 00000068 761F-         MOVW      DP,#_gMotorVars+54    ; [CPU_ARAU] 
         00000069 0003 
    1685                      .dwpsn  file "D:/ti/motorware/motorware_1_01_00_18/sw/solutions/instaspin_foc/src/proj_lab05b.c",line
    1686 0000006a D018          MOVB      XAR0,#24              ; [CPU_ALU] |518| 
    1687                      .dwpsn  file "D:/ti/motorware/motorware_1_01_00_18/sw/solutions/instaspin_foc/src/proj_lab05b.c",line
    1688 0000006b 1E36-         MOVL      @_gMotorVars+54,ACC   ; [CPU_ALU] |515| 
    1689                      .dwpsn  file "D:/ti/motorware/motorware_1_01_00_18/sw/solutions/instaspin_foc/src/proj_lab05b.c",line
    1690 0000006c 8A92          MOVL      XAR4,*+XAR2[AR0]      ; [CPU_ALU] |518| 
    1691              $C$DW$248       .dwtag  DW_TAG_TI_branch
    1692                      .dwattr $C$DW$248, DW_AT_low_pc(0x00)
    1693                      .dwattr $C$DW$248, DW_AT_name("_EST_getFlux_VpHz")
    1694                      .dwattr $C$DW$248, DW_AT_TI_call
    1695              
    1696 0000006d 7640!         LCR       #_EST_getFlux_VpHz    ; [CPU_ALU] |518| 
         0000006e 0000 
    1697                      ; call occurs [#_EST_getFlux_VpHz] ; [] |518| 
    1698 0000006f 761F-         MOVW      DP,#_gMotorVars+56    ; [CPU_ARAU] 
         00000070 0003 
    1699                      .dwpsn  file "D:/ti/motorware/motorware_1_01_00_18/sw/solutions/instaspin_foc/src/proj_lab05b.c",line
    1700 00000071 8AA2          MOVL      XAR4,XAR2             ; [CPU_ALU] |521| 
    1701                      .dwpsn  file "D:/ti/motorware/motorware_1_01_00_18/sw/solutions/instaspin_foc/src/proj_lab05b.c",line
    1702 00000072 1E38-         MOVL      @_gMotorVars+56,ACC   ; [CPU_ALU] |518| 
    1703 00000073 761F-         MOVW      DP,#_gFlux_pu_to_Wb_sf ; [CPU_ARAU] 
         00000074 0000 
    1704                      .dwpsn  file "D:/ti/motorware/motorware_1_01_00_18/sw/solutions/instaspin_foc/src/proj_lab05b.c",line
    1705 00000075 060E-         MOVL      ACC,@_gFlux_pu_to_Wb_sf ; [CPU_ALU] |521| 
    1706              $C$DW$249       .dwtag  DW_TAG_TI_branch
    1707                      .dwattr $C$DW$249, DW_AT_low_pc(0x00)
    1708                      .dwattr $C$DW$249, DW_AT_name("_USER_computeFlux")
    1709                      .dwattr $C$DW$249, DW_AT_TI_call
    1710              
    1711 00000076 7640!         LCR       #_USER_computeFlux    ; [CPU_ALU] |521| 
         00000077 0000 
    1712                      ; call occurs [#_USER_computeFlux] ; [] |521| 
    1713 00000078 761F-         MOVW      DP,#_gMotorVars+40    ; [CPU_ARAU] 
         00000079 0003 
    1714                      .dwpsn  file "D:/ti/motorware/motorware_1_01_00_18/sw/solutions/instaspin_foc/src/proj_lab05b.c",line
    1715 0000007a D018          MOVB      XAR0,#24              ; [CPU_ALU] |527| 
    1716                      .dwpsn  file "D:/ti/motorware/motorware_1_01_00_18/sw/solutions/instaspin_foc/src/proj_lab05b.c",line
    1717 0000007b 1E28-         MOVL      @_gMotorVars+40,ACC   ; [CPU_ALU] |521| 
    1718                      .dwpsn  file "D:/ti/motorware/motorware_1_01_00_18/sw/solutions/instaspin_foc/src/proj_lab05b.c",line
    1719 0000007c 92E2          MOV       AL,*+XAR2[4]          ; [CPU_ALU] |524| 
    1720 0000007d 960D-         MOV       @_gMotorVars+13,AL    ; [CPU_ALU] |524| 
    1721                      .dwpsn  file "D:/ti/motorware/motorware_1_01_00_18/sw/solutions/instaspin_foc/src/proj_lab05b.c",line
    1722 0000007e 8A92          MOVL      XAR4,*+XAR2[AR0]      ; [CPU_ALU] |527| 
    1723              $C$DW$250       .dwtag  DW_TAG_TI_branch
    1724                      .dwattr $C$DW$250, DW_AT_low_pc(0x00)
TMS320C2000 Assembler PC v18.1.2 Sun Jun 17 14:52:32 2018

Tools Copyright (c) 1996-2017 Texas Instruments Incorporated
C:\Users\haowp\AppData\Local\Temp\{81472915-7FA4-430D-8ACB-BFB8F401620C} PAGE   34

    1725                      .dwattr $C$DW$250, DW_AT_name("_EST_getState")
    1726                      .dwattr $C$DW$250, DW_AT_TI_call
    1727              
    1728 0000007f 7640!         LCR       #_EST_getState        ; [CPU_ALU] |527| 
         00000080 0000 
    1729                      ; call occurs [#_EST_getState] ; [] |527| 
    1730 00000081 761F-         MOVW      DP,#_gMotorVars+14    ; [CPU_ARAU] 
         00000082 0003 
    1731                      .dwpsn  file "D:/ti/motorware/motorware_1_01_00_18/sw/solutions/instaspin_foc/src/proj_lab05b.c",line
    1732 00000083 8F06          MOVL      XAR4,#402653          ; [CPU_ARAU] |530| 
         00000084 24DD 
    1733                      .dwpsn  file "D:/ti/motorware/motorware_1_01_00_18/sw/solutions/instaspin_foc/src/proj_lab05b.c",line
    1734 00000085 960E-         MOV       @_gMotorVars+14,AL    ; [CPU_ALU] |527| 
    1735 00000086 761F-         MOVW      DP,#_gAdcData+12      ; [CPU_ARAU] 
         00000087 0000 
    1736                      .dwpsn  file "D:/ti/motorware/motorware_1_01_00_18/sw/solutions/instaspin_foc/src/proj_lab05b.c",line
    1737 00000088 8724-         MOVL      XT,@_gAdcData+12      ; [CPU_ALU] |530| 
    1738 00000089 5663          QMPYL     ACC,XT,XAR4           ; [CPU_ALU] |530| 
         0000008a 00A4 
    1739 0000008b 5605          IMPYL     P,XT,XAR4             ; [CPU_ALU] |530| 
         0000008c 00A4 
    1740 0000008d FE82          SUBB      SP,#2                 ; [CPU_ARAU] 
    1741                      .dwcfi  cfa_offset, -6
    1742 0000008e 56A7          LSL64     ACC:P,#8              ; [CPU_ALU] |530| 
    1743 0000008f 86BE          MOVL      XAR2,*--SP            ; [CPU_ALU] 
    1744                      .dwcfi  cfa_offset, -4
    1745                      .dwcfi  restore_reg, 9
    1746 00000090 8BBE          MOVL      XAR1,*--SP            ; [CPU_ALU] 
    1747                      .dwcfi  cfa_offset, -2
    1748                      .dwcfi  restore_reg, 7
    1749 00000091 761F-         MOVW      DP,#_gMotorVars+86    ; [CPU_ARAU] 
         00000092 0004 
    1750 00000093 1E16-         MOVL      @_gMotorVars+86,ACC   ; [CPU_ALU] |530| 
    1751              $C$DW$251       .dwtag  DW_TAG_TI_branch
    1752                      .dwattr $C$DW$251, DW_AT_low_pc(0x00)
    1753                      .dwattr $C$DW$251, DW_AT_TI_return
    1754              
    1755 00000094 0006          LRETR     ; [CPU_ALU] 
    1756                      ; return occurs ; [] 
    1757                      .dwattr $C$DW$237, DW_AT_TI_end_file("D:/ti/motorware/motorware_1_01_00_18/sw/solutions/instaspin_foc
    1758                      .dwattr $C$DW$237, DW_AT_TI_end_line(0x215)
    1759                      .dwattr $C$DW$237, DW_AT_TI_end_column(0x01)
    1760                      .dwendentry
    1761                      .dwendtag $C$DW$237
    1762              
    1763 00000000               .sect   "ramfuncs:retain"
    1764                      .retain
    1765                      .retainrefs
    1766                      .global _mainISR
    1767              
    1768              $C$DW$252       .dwtag  DW_TAG_subprogram
    1769                      .dwattr $C$DW$252, DW_AT_name("mainISR")
    1770                      .dwattr $C$DW$252, DW_AT_low_pc(_mainISR)
    1771                      .dwattr $C$DW$252, DW_AT_high_pc(0x00)
    1772                      .dwattr $C$DW$252, DW_AT_TI_symbol_name("_mainISR")
TMS320C2000 Assembler PC v18.1.2 Sun Jun 17 14:52:32 2018

Tools Copyright (c) 1996-2017 Texas Instruments Incorporated
C:\Users\haowp\AppData\Local\Temp\{81472915-7FA4-430D-8ACB-BFB8F401620C} PAGE   35

    1773                      .dwattr $C$DW$252, DW_AT_external
    1774                      .dwattr $C$DW$252, DW_AT_TI_begin_file("D:/ti/motorware/motorware_1_01_00_18/sw/solutions/instaspin_f
    1775                      .dwattr $C$DW$252, DW_AT_TI_begin_line(0x1c7)
    1776                      .dwattr $C$DW$252, DW_AT_TI_begin_column(0x10)
    1777                      .dwattr $C$DW$252, DW_AT_TI_interrupt
    1778                      .dwattr $C$DW$252, DW_AT_TI_max_frame_size(-18)
    1779                      .dwpsn  file "D:/ti/motorware/motorware_1_01_00_18/sw/solutions/instaspin_foc/src/proj_lab05b.c",line
    1780              
    1781                      .dwfde $C$DW$CIE, _mainISR
    1782              
    1783              ;***************************************************************
    1784              ;* FNAME: _mainISR                      FR SIZE:  16           *
    1785              ;*                                                             *
    1786              ;* FUNCTION ENVIRONMENT                                        *
    1787              ;*                                                             *
    1788              ;* FUNCTION PROPERTIES                                         *
    1789              ;*                            4 Parameter,  0 Auto, 12 SOE     *
    1790              ;***************************************************************
    1791              
    1792              _mainISR:
    1793              ;* AR5   assigned to $O$C1
    1794              ;* AR1   assigned to $O$C2
    1795              ;* AR4   assigned to $O$C3
    1796              ;* AR7   assigned to $O$C4
    1797              ;* AR6   assigned to $O$C5
    1798              ;* AR7   assigned to $O$C6
    1799              ;* XT    assigned to _value
    1800              $C$DW$253       .dwtag  DW_TAG_variable
    1801                      .dwattr $C$DW$253, DW_AT_name("value")
    1802                      .dwattr $C$DW$253, DW_AT_TI_symbol_name("_value")
    1803                      .dwattr $C$DW$253, DW_AT_type(*$C$DW$T$31)
    1804                      .dwattr $C$DW$253, DW_AT_location[DW_OP_reg21]
    1805              
    1806              ;* XT    assigned to _value
    1807              $C$DW$254       .dwtag  DW_TAG_variable
    1808                      .dwattr $C$DW$254, DW_AT_name("value")
    1809                      .dwattr $C$DW$254, DW_AT_TI_symbol_name("_value")
    1810                      .dwattr $C$DW$254, DW_AT_type(*$C$DW$T$31)
    1811                      .dwattr $C$DW$254, DW_AT_location[DW_OP_reg21]
    1812              
    1813              ;* XT    assigned to _value
    1814              $C$DW$255       .dwtag  DW_TAG_variable
    1815                      .dwattr $C$DW$255, DW_AT_name("value")
    1816                      .dwattr $C$DW$255, DW_AT_TI_symbol_name("_value")
    1817                      .dwattr $C$DW$255, DW_AT_type(*$C$DW$T$31)
    1818                      .dwattr $C$DW$255, DW_AT_location[DW_OP_reg21]
    1819              
    1820              ;* XT    assigned to _value
    1821              $C$DW$256       .dwtag  DW_TAG_variable
    1822                      .dwattr $C$DW$256, DW_AT_name("value")
    1823                      .dwattr $C$DW$256, DW_AT_TI_symbol_name("_value")
    1824                      .dwattr $C$DW$256, DW_AT_type(*$C$DW$T$31)
    1825                      .dwattr $C$DW$256, DW_AT_location[DW_OP_reg21]
    1826              
    1827              ;* XT    assigned to _value
TMS320C2000 Assembler PC v18.1.2 Sun Jun 17 14:52:32 2018

Tools Copyright (c) 1996-2017 Texas Instruments Incorporated
C:\Users\haowp\AppData\Local\Temp\{81472915-7FA4-430D-8ACB-BFB8F401620C} PAGE   36

    1828              $C$DW$257       .dwtag  DW_TAG_variable
    1829                      .dwattr $C$DW$257, DW_AT_name("value")
    1830                      .dwattr $C$DW$257, DW_AT_TI_symbol_name("_value")
    1831                      .dwattr $C$DW$257, DW_AT_type(*$C$DW$T$31)
    1832                      .dwattr $C$DW$257, DW_AT_location[DW_OP_reg21]
    1833              
    1834              ;* XT    assigned to _value
    1835              $C$DW$258       .dwtag  DW_TAG_variable
    1836                      .dwattr $C$DW$258, DW_AT_name("value")
    1837                      .dwattr $C$DW$258, DW_AT_TI_symbol_name("_value")
    1838                      .dwattr $C$DW$258, DW_AT_type(*$C$DW$T$31)
    1839                      .dwattr $C$DW$258, DW_AT_location[DW_OP_reg21]
    1840              
    1841              ;* XT    assigned to _value
    1842              $C$DW$259       .dwtag  DW_TAG_variable
    1843                      .dwattr $C$DW$259, DW_AT_name("value")
    1844                      .dwattr $C$DW$259, DW_AT_TI_symbol_name("_value")
    1845                      .dwattr $C$DW$259, DW_AT_type(*$C$DW$T$31)
    1846                      .dwattr $C$DW$259, DW_AT_location[DW_OP_reg21]
    1847              
    1848              ;* AR4   assigned to $O$U89
    1849              ;* AR1   assigned to $O$U97
    1850              ;* AR5   assigned to $O$v1
    1851              ;* AR5   assigned to _handle
    1852              $C$DW$260       .dwtag  DW_TAG_variable
    1853                      .dwattr $C$DW$260, DW_AT_name("handle")
    1854                      .dwattr $C$DW$260, DW_AT_TI_symbol_name("_handle")
    1855                      .dwattr $C$DW$260, DW_AT_type(*$C$DW$T$286)
    1856                      .dwattr $C$DW$260, DW_AT_location[DW_OP_reg14]
    1857              
    1858              ;* AR7   assigned to _period
    1859              $C$DW$261       .dwtag  DW_TAG_variable
    1860                      .dwattr $C$DW$261, DW_AT_name("period")
    1861                      .dwattr $C$DW$261, DW_AT_TI_symbol_name("_period")
    1862                      .dwattr $C$DW$261, DW_AT_type(*$C$DW$T$31)
    1863                      .dwattr $C$DW$261, DW_AT_location[DW_OP_reg18]
    1864              
    1865                      .dwcfi  cfa_offset, -2
    1866                      .dwcfi  save_reg_to_mem, 26, 0
    1867 00000000 761B          ASP       ; [CPU_ALU] 
    1868 00000001 0005          PUSH      AR1H:AR0H             ; [CPU_ALU] 
    1869                      .dwcfi  save_reg_to_mem, 5, 2
    1870                      .dwcfi  save_reg_to_mem, 7, 3
    1871                      .dwcfi  cfa_offset, -4
    1872 00000002 ABBD          MOVL      *SP++,XT              ; [CPU_ALU] 
    1873                      .dwcfi  save_reg_to_mem, 21, 4
    1874                      .dwcfi  save_reg_to_mem, 22, 5
    1875                      .dwcfi  cfa_offset, -6
    1876 00000003 A8BD          MOVL      *SP++,XAR4            ; [CPU_ALU] 
    1877                      .dwcfi  save_reg_to_mem, 12, 6
    1878                      .dwcfi  save_reg_to_mem, 13, 7
    1879                      .dwcfi  cfa_offset, -8
    1880 00000004 A0BD          MOVL      *SP++,XAR5            ; [CPU_ALU] 
    1881                      .dwcfi  save_reg_to_mem, 14, 8
    1882                      .dwcfi  save_reg_to_mem, 15, 9
TMS320C2000 Assembler PC v18.1.2 Sun Jun 17 14:52:32 2018

Tools Copyright (c) 1996-2017 Texas Instruments Incorporated
C:\Users\haowp\AppData\Local\Temp\{81472915-7FA4-430D-8ACB-BFB8F401620C} PAGE   37

    1883                      .dwcfi  cfa_offset, -10
    1884 00000005 C2BD          MOVL      *SP++,XAR6            ; [CPU_ALU] 
    1885                      .dwcfi  save_reg_to_mem, 16, 10
    1886                      .dwcfi  save_reg_to_mem, 17, 11
    1887                      .dwcfi  cfa_offset, -12
    1888 00000006 C3BD          MOVL      *SP++,XAR7            ; [CPU_ALU] 
    1889                      .dwcfi  save_reg_to_mem, 18, 12
    1890                      .dwcfi  save_reg_to_mem, 19, 13
    1891                      .dwcfi  cfa_offset, -14
    1892 00000007 FE04          ADDB      SP,#4                 ; [CPU_ARAU] 
    1893                      .dwcfi  cfa_offset, -18
    1894 00000008 FF69          SPM       0                     ; [CPU_ALU] 
    1895 00000009 2942          CLRC      PAGE0,OVM             ; [CPU_ALU] 
    1896 0000000a 5616          CLRC      AMODE                 ; [CPU_ALU] 
    1897 0000000b 761F-         MOVW      DP,#_gLEDcnt          ; [CPU_ARAU] 
         0000000c 0000 
    1898                      .dwpsn  file "D:/ti/motorware/motorware_1_01_00_18/sw/solutions/instaspin_foc/src/proj_lab05b.c",line
    1899 0000000d 0A00-         INC       @_gLEDcnt             ; [CPU_ALU] |458| 
    1900 0000000e 1B00-         CMP       @_gLEDcnt,#3000       ; [CPU_ALU] |458| 
         0000000f 0BB8 
    1901 00000010 680B          B         $C$L2,LO              ; [CPU_ALU] |458| 
    1902                      ; branchcc occurs ; [] |458| 
    1903                      .dwpsn  file "D:/ti/motorware/motorware_1_01_00_18/sw/modules/hal/boards/boostxldrv8305_revA/f28x/f28
    1904 00000011 0208          MOVB      ACC,#8                ; [CPU_ALU] |756| 
    1905 00000012 0704-         ADDL      ACC,@_halHandle       ; [CPU_ALU] |756| 
    1906 00000013 8AA9          MOVL      XAR4,ACC              ; [CPU_ALU] |756| 
    1907 00000014 9A00          MOVB      AL,#0                 ; [CPU_ALU] |756| 
    1908 00000015 8AC4          MOVL      XAR4,*+XAR4[0]        ; [CPU_ALU] |756| 
    1909              $C$DW$262       .dwtag  DW_TAG_TI_branch
    1910                      .dwattr $C$DW$262, DW_AT_low_pc(0x00)
    1911                      .dwattr $C$DW$262, DW_AT_name("_GPIO_toggle")
    1912                      .dwattr $C$DW$262, DW_AT_TI_call
    1913              
    1914 00000016 7640!         LCR       #_GPIO_toggle         ; [CPU_ALU] |756| 
         00000017 0000 
    1915                      ; call occurs [#_GPIO_toggle] ; [] |756| 
    1916 00000018 761F-         MOVW      DP,#_gLEDcnt          ; [CPU_ARAU] 
         00000019 0000 
    1917                      .dwpsn  file "D:/ti/motorware/motorware_1_01_00_18/sw/solutions/instaspin_foc/src/proj_lab05b.c",line
    1918 0000001a 2B00-         MOV       @_gLEDcnt,#0          ; [CPU_ALU] |461| 
    1919 0000001b       $C$L2:    
    1920                      .dwpsn  file "D:/ti/motorware/motorware_1_01_00_18/sw/modules/hal/boards/boostxldrv8305_revA/f28x/f28
    1921 0000001b 8304-         MOVL      XAR5,@_halHandle      ; [CPU_ALU] |177| 
    1922                      .dwpsn  file "D:/ti/motorware/motorware_1_01_00_18/sw/drivers/adc/src/32b/f28x/f2802x/adc.h",line 571
    1923 0000001c 8F00          MOVL      XAR4,#26117           ; [CPU_ARAU] |571| 
         0000001d 6605 
    1924 0000001e A8A9          MOVL      ACC,XAR4              ; [CPU_ALU] |571| 
    1925 0000001f 07C5          ADDL      ACC,*+XAR5[0]         ; [CPU_ALU] |571| 
    1926 00000020 8AA9          MOVL      XAR4,ACC              ; [CPU_ALU] |571| 
    1927                      .dwpsn  file "D:/ti/motorware/motorware_1_01_00_18/sw/drivers/pie/src/32b/f28x/f2802x/pie.h",line 757
    1928 00000021 D078          MOVB      XAR0,#120             ; [CPU_ALU] |757| 
    1929                      .dwpsn  file "D:/ti/motorware/motorware_1_01_00_18/sw/drivers/adc/src/32b/f28x/f2802x/adc.h",line 571
    1930 00000022 56BF          MOVB      *+XAR4[0],#1,UNC      ; [CPU_ALU] |571| 
         00000023 01C4 
    1931                      .dwpsn  file "D:/ti/motorware/motorware_1_01_00_18/sw/drivers/pie/src/32b/f28x/f2802x/pie.h",line 757
TMS320C2000 Assembler PC v18.1.2 Sun Jun 17 14:52:32 2018

Tools Copyright (c) 1996-2017 Texas Instruments Incorporated
C:\Users\haowp\AppData\Local\Temp\{81472915-7FA4-430D-8ACB-BFB8F401620C} PAGE   38

    1932 00000024 8A95          MOVL      XAR4,*+XAR5[AR0]      ; [CPU_ALU] |757| 
    1933                      .dwpsn  file "D:/ti/motorware/motorware_1_01_00_18/sw/modules/hal/boards/boostxldrv8305_revA/f28x/f28
    1934 00000025 D0A0          MOVB      XAR0,#160             ; [CPU_ALU] |504| 
    1935                      .dwpsn  file "D:/ti/motorware/motorware_1_01_00_18/sw/drivers/pie/src/32b/f28x/f2802x/pie.h",line 757
    1936 00000026 28CC          MOV       *+XAR4[1],#512        ; [CPU_ALU] |757| 
         00000027 0200 
    1937                      .dwpsn  file "D:/ti/motorware/motorware_1_01_00_18/sw/drivers/adc/src/32b/f28x/f2802x/adc.h",line 684
    1938 00000028 C4C5          MOVL      XAR6,*+XAR5[0]        ; [CPU_ALU] |684| 
    1939                      .dwpsn  file "D:/ti/motorware/motorware_1_01_00_18/sw/modules/hal/boards/boostxldrv8305_revA/f28x/f28
    1940 00000029 C595          MOVL      XAR7,*+XAR5[AR0]      ; [CPU_ALU] |504| 
    1941                      .dwpsn  file "D:/ti/motorware/motorware_1_01_00_18/sw/modules/hal/boards/boostxldrv8305_revA/f28x/f28
    1942 0000002a 8F00-         MOVL      XAR4,#_gAdcData       ; [CPU_ARAU] |505| 
         0000002b 0018 
    1943                      .dwpsn  file "D:/ti/motorware/motorware_1_01_00_18/sw/modules/hal/boards/boostxldrv8305_revA/f28x/f28
    1944 0000002c D092          MOVB      XAR0,#146             ; [CPU_ALU] |504| 
    1945                      .dwpsn  file "D:/ti/motorware/motorware_1_01_00_18/sw/drivers/adc/src/32b/f28x/f2802x/adc.h",line 684
    1946 0000002d 0ECE          MOVU      ACC,*+XAR6[1]         ; [CPU_ALU] |684| 
    1947 0000002e 1EAC          MOVL      XT,ACC                ; [CPU_ALU] |684| 
    1948                      .dwpsn  file "D:/ti/motorware/motorware_1_01_00_18/sw/modules/hal/boards/boostxldrv8305_revA/f28x/f28
    1949 0000002f 5605          IMPYL     P,XT,XAR7             ; [CPU_ALU] |504| 
         00000030 00A7 
    1950 00000031 5663          QMPYL     ACC,XT,XAR7           ; [CPU_ALU] |504| 
         00000032 00A7 
    1951 00000033 568B          ASR64     ACC:P,#12             ; [CPU_ALU] |504| 
    1952 00000034 A9A9          MOVL      ACC,P                 ; [CPU_ALU] |504| 
    1953 00000035 0395          SUBL      ACC,*+XAR5[AR0]       ; [CPU_ALU] |504| 
    1954                      .dwpsn  file "D:/ti/motorware/motorware_1_01_00_18/sw/modules/hal/boards/boostxldrv8305_revA/f28x/f28
    1955 00000036 D094          MOVB      XAR0,#148             ; [CPU_ALU] |509| 
    1956                      .dwpsn  file "D:/ti/motorware/motorware_1_01_00_18/sw/modules/hal/boards/boostxldrv8305_revA/f28x/f28
    1957 00000037 1EC4          MOVL      *+XAR4[0],ACC         ; [CPU_ALU] |505| 
    1958                      .dwpsn  file "D:/ti/motorware/motorware_1_01_00_18/sw/drivers/adc/src/32b/f28x/f2802x/adc.h",line 684
    1959 00000038 0ED6          MOVU      ACC,*+XAR6[2]         ; [CPU_ALU] |684| 
    1960 00000039 1EAC          MOVL      XT,ACC                ; [CPU_ALU] |684| 
    1961                      .dwpsn  file "D:/ti/motorware/motorware_1_01_00_18/sw/modules/hal/boards/boostxldrv8305_revA/f28x/f28
    1962 0000003a 5605          IMPYL     P,XT,XAR7             ; [CPU_ALU] |509| 
         0000003b 00A7 
    1963 0000003c 5663          QMPYL     ACC,XT,XAR7           ; [CPU_ALU] |509| 
         0000003d 00A7 
    1964 0000003e 568B          ASR64     ACC:P,#12             ; [CPU_ALU] |509| 
    1965 0000003f A9A9          MOVL      ACC,P                 ; [CPU_ALU] |509| 
    1966 00000040 0395          SUBL      ACC,*+XAR5[AR0]       ; [CPU_ALU] |509| 
    1967                      .dwpsn  file "D:/ti/motorware/motorware_1_01_00_18/sw/modules/hal/boards/boostxldrv8305_revA/f28x/f28
    1968 00000041 D096          MOVB      XAR0,#150             ; [CPU_ALU] |514| 
    1969                      .dwpsn  file "D:/ti/motorware/motorware_1_01_00_18/sw/modules/hal/boards/boostxldrv8305_revA/f28x/f28
    1970 00000042 1ED4          MOVL      *+XAR4[2],ACC         ; [CPU_ALU] |510| 
    1971                      .dwpsn  file "D:/ti/motorware/motorware_1_01_00_18/sw/drivers/adc/src/32b/f28x/f2802x/adc.h",line 684
    1972 00000043 0EDE          MOVU      ACC,*+XAR6[3]         ; [CPU_ALU] |684| 
    1973 00000044 1EAC          MOVL      XT,ACC                ; [CPU_ALU] |684| 
    1974                      .dwpsn  file "D:/ti/motorware/motorware_1_01_00_18/sw/modules/hal/boards/boostxldrv8305_revA/f28x/f28
    1975 00000045 5605          IMPYL     P,XT,XAR7             ; [CPU_ALU] |514| 
         00000046 00A7 
    1976 00000047 5663          QMPYL     ACC,XT,XAR7           ; [CPU_ALU] |514| 
         00000048 00A7 
    1977 00000049 568B          ASR64     ACC:P,#12             ; [CPU_ALU] |514| 
    1978 0000004a A9A9          MOVL      ACC,P                 ; [CPU_ALU] |514| 
TMS320C2000 Assembler PC v18.1.2 Sun Jun 17 14:52:32 2018

Tools Copyright (c) 1996-2017 Texas Instruments Incorporated
C:\Users\haowp\AppData\Local\Temp\{81472915-7FA4-430D-8ACB-BFB8F401620C} PAGE   39

    1979 0000004b 0395          SUBL      ACC,*+XAR5[AR0]       ; [CPU_ALU] |514| 
    1980                      .dwpsn  file "D:/ti/motorware/motorware_1_01_00_18/sw/modules/hal/boards/boostxldrv8305_revA/f28x/f28
    1981 0000004c D0A2          MOVB      XAR0,#162             ; [CPU_ALU] |519| 
    1982                      .dwpsn  file "D:/ti/motorware/motorware_1_01_00_18/sw/modules/hal/boards/boostxldrv8305_revA/f28x/f28
    1983 0000004d 1EE4          MOVL      *+XAR4[4],ACC         ; [CPU_ALU] |515| 
    1984                      .dwpsn  file "D:/ti/motorware/motorware_1_01_00_18/sw/drivers/adc/src/32b/f28x/f2802x/adc.h",line 684
    1985 0000004e 0EE6          MOVU      ACC,*+XAR6[4]         ; [CPU_ALU] |684| 
    1986                      .dwpsn  file "D:/ti/motorware/motorware_1_01_00_18/sw/modules/hal/boards/boostxldrv8305_revA/f28x/f28
    1987 0000004f C595          MOVL      XAR7,*+XAR5[AR0]      ; [CPU_ALU] |519| 
    1988                      .dwpsn  file "D:/ti/motorware/motorware_1_01_00_18/sw/solutions/instaspin_foc/src/proj_lab05b.c",line
    1989 00000050 8D40-         MOVL      XAR1,#_gPwmData       ; [CPU_ARAU] |474| 
         00000051 0012 
    1990                      .dwpsn  file "D:/ti/motorware/motorware_1_01_00_18/sw/drivers/adc/src/32b/f28x/f2802x/adc.h",line 684
    1991 00000052 1EAC          MOVL      XT,ACC                ; [CPU_ALU] |684| 
    1992                      .dwpsn  file "D:/ti/motorware/motorware_1_01_00_18/sw/modules/hal/boards/boostxldrv8305_revA/f28x/f28
    1993 00000053 D098          MOVB      XAR0,#152             ; [CPU_ALU] |519| 
    1994 00000054 5605          IMPYL     P,XT,XAR7             ; [CPU_ALU] |519| 
         00000055 00A7 
    1995 00000056 5663          QMPYL     ACC,XT,XAR7           ; [CPU_ALU] |519| 
         00000057 00A7 
    1996 00000058 568B          ASR64     ACC:P,#12             ; [CPU_ALU] |519| 
    1997 00000059 A9A9          MOVL      ACC,P                 ; [CPU_ALU] |519| 
    1998 0000005a 0395          SUBL      ACC,*+XAR5[AR0]       ; [CPU_ALU] |519| 
    1999                      .dwpsn  file "D:/ti/motorware/motorware_1_01_00_18/sw/modules/hal/boards/boostxldrv8305_revA/f28x/f28
    2000 0000005b D09A          MOVB      XAR0,#154             ; [CPU_ALU] |524| 
    2001                      .dwpsn  file "D:/ti/motorware/motorware_1_01_00_18/sw/modules/hal/boards/boostxldrv8305_revA/f28x/f28
    2002 0000005c 1EF4          MOVL      *+XAR4[6],ACC         ; [CPU_ALU] |520| 
    2003                      .dwpsn  file "D:/ti/motorware/motorware_1_01_00_18/sw/drivers/adc/src/32b/f28x/f2802x/adc.h",line 684
    2004 0000005d 0EEE          MOVU      ACC,*+XAR6[5]         ; [CPU_ALU] |684| 
    2005 0000005e 1EAC          MOVL      XT,ACC                ; [CPU_ALU] |684| 
    2006                      .dwpsn  file "D:/ti/motorware/motorware_1_01_00_18/sw/modules/hal/boards/boostxldrv8305_revA/f28x/f28
    2007 0000005f 5605          IMPYL     P,XT,XAR7             ; [CPU_ALU] |524| 
         00000060 00A7 
    2008 00000061 5663          QMPYL     ACC,XT,XAR7           ; [CPU_ALU] |524| 
         00000062 00A7 
    2009 00000063 568B          ASR64     ACC:P,#12             ; [CPU_ALU] |524| 
    2010 00000064 A9A9          MOVL      ACC,P                 ; [CPU_ALU] |524| 
    2011 00000065 0395          SUBL      ACC,*+XAR5[AR0]       ; [CPU_ALU] |524| 
    2012                      .dwpsn  file "D:/ti/motorware/motorware_1_01_00_18/sw/modules/hal/boards/boostxldrv8305_revA/f28x/f28
    2013 00000066 D008          MOVB      XAR0,#8               ; [CPU_ALU] |525| 
    2014 00000067 1E94          MOVL      *+XAR4[AR0],ACC       ; [CPU_ALU] |525| 
    2015                      .dwpsn  file "D:/ti/motorware/motorware_1_01_00_18/sw/modules/hal/boards/boostxldrv8305_revA/f28x/f28
    2016 00000068 D09C          MOVB      XAR0,#156             ; [CPU_ALU] |529| 
    2017                      .dwpsn  file "D:/ti/motorware/motorware_1_01_00_18/sw/drivers/adc/src/32b/f28x/f2802x/adc.h",line 684
    2018 00000069 0EF6          MOVU      ACC,*+XAR6[6]         ; [CPU_ALU] |684| 
    2019 0000006a 1EAC          MOVL      XT,ACC                ; [CPU_ALU] |684| 
    2020                      .dwpsn  file "D:/ti/motorware/motorware_1_01_00_18/sw/modules/hal/boards/boostxldrv8305_revA/f28x/f28
    2021 0000006b 5605          IMPYL     P,XT,XAR7             ; [CPU_ALU] |529| 
         0000006c 00A7 
    2022 0000006d 5663          QMPYL     ACC,XT,XAR7           ; [CPU_ALU] |529| 
         0000006e 00A7 
    2023 0000006f 568B          ASR64     ACC:P,#12             ; [CPU_ALU] |529| 
    2024 00000070 A9A9          MOVL      ACC,P                 ; [CPU_ALU] |529| 
    2025 00000071 0395          SUBL      ACC,*+XAR5[AR0]       ; [CPU_ALU] |529| 
    2026                      .dwpsn  file "D:/ti/motorware/motorware_1_01_00_18/sw/modules/hal/boards/boostxldrv8305_revA/f28x/f28
TMS320C2000 Assembler PC v18.1.2 Sun Jun 17 14:52:32 2018

Tools Copyright (c) 1996-2017 Texas Instruments Incorporated
C:\Users\haowp\AppData\Local\Temp\{81472915-7FA4-430D-8ACB-BFB8F401620C} PAGE   40

    2027 00000072 D00A          MOVB      XAR0,#10              ; [CPU_ALU] |530| 
    2028 00000073 1E94          MOVL      *+XAR4[AR0],ACC       ; [CPU_ALU] |530| 
    2029                      .dwpsn  file "D:/ti/motorware/motorware_1_01_00_18/sw/modules/hal/boards/boostxldrv8305_revA/f28x/f28
    2030 00000074 D00C          MOVB      XAR0,#12              ; [CPU_ALU] |535| 
    2031                      .dwpsn  file "D:/ti/motorware/motorware_1_01_00_18/sw/drivers/adc/src/32b/f28x/f2802x/adc.h",line 684
    2032 00000075 0EFE          MOVU      ACC,*+XAR6[7]         ; [CPU_ALU] |684| 
    2033 00000076 1EAC          MOVL      XT,ACC                ; [CPU_ALU] |684| 
    2034                      .dwpsn  file "D:/ti/motorware/motorware_1_01_00_18/sw/modules/hal/boards/boostxldrv8305_revA/f28x/f28
    2035 00000077 5605          IMPYL     P,XT,XAR7             ; [CPU_ALU] |534| 
         00000078 00A7 
    2036 00000079 5663          QMPYL     ACC,XT,XAR7           ; [CPU_ALU] |534| 
         0000007a 00A7 
    2037 0000007b 568B          ASR64     ACC:P,#12             ; [CPU_ALU] |534| 
    2038                      .dwpsn  file "D:/ti/motorware/motorware_1_01_00_18/sw/modules/hal/boards/boostxldrv8305_revA/f28x/f28
    2039 0000007c A994          MOVL      *+XAR4[AR0],P         ; [CPU_ALU] |535| 
    2040                      .dwpsn  file "D:/ti/motorware/motorware_1_01_00_18/sw/solutions/instaspin_foc/src/proj_lab05b.c",line
    2041 0000007d A842          MOVL      *-SP[2],XAR4          ; [CPU_ALU] |474| 
    2042 0000007e 8A06-         MOVL      XAR4,@_ctrlHandle     ; [CPU_ALU] |474| 
    2043 0000007f B244          MOVL      *-SP[4],XAR1          ; [CPU_ALU] |474| 
    2044              $C$DW$263       .dwtag  DW_TAG_TI_branch
    2045                      .dwattr $C$DW$263, DW_AT_low_pc(0x00)
    2046                      .dwattr $C$DW$263, DW_AT_name("_CTRL_run")
    2047                      .dwattr $C$DW$263, DW_AT_TI_call
    2048              
    2049 00000080 7640!         LCR       #_CTRL_run            ; [CPU_ALU] |474| 
         00000081 0000 
    2050                      ; call occurs [#_CTRL_run] ; [] |474| 
    2051 00000082 761F-         MOVW      DP,#_halHandle        ; [CPU_ARAU] 
         00000083 0000 
    2052 00000084 027C          MOVB      ACC,#124              ; [CPU_ALU] 
    2053 00000085 BE02          MOVB      XAR6,#2               ; [CPU_ALU] 
    2054 00000086 0704-         ADDL      ACC,@_halHandle       ; [CPU_ALU] 
    2055 00000087 8AA9          MOVL      XAR4,ACC              ; [CPU_ALU] 
    2056 00000088 3B01          SETC      SXM                   ; [CPU_ALU] 
    2057 00000089       $C$L3:    
    2058                      .dwpsn  file "D:/ti/motorware/motorware_1_01_00_18/sw/drivers/pwm/src/32b/f28x/f2802x/pwm.h",line 171
    2059 00000089 FF2F          MOV       ACC,#-512 << 15       ; [CPU_ALU] |1717| 
         0000008a FE00 
    2060 0000008b 8781          MOVL      XT,*XAR1++            ; [CPU_ALU] |1717| 
    2061                      .dwpsn  file "D:/ti/motorware/motorware_1_01_00_18/sw/modules/hal/boards/boostxldrv8305_revA/f28x/f28
    2062 0000008c 8384          MOVL      XAR5,*XAR4++          ; [CPU_ALU] |1080| 
    2063                      .dwpsn  file "D:/ti/motorware/motorware_1_01_00_18/sw/drivers/pwm/src/32b/f28x/f2802x/pwm.h",line 171
    2064 0000008d 5605          IMPYL     P,XT,ACC              ; [CPU_ALU] |1717| 
         0000008e 00A9 
    2065 0000008f 5663          QMPYL     ACC,XT,ACC            ; [CPU_ALU] |1717| 
         00000090 00A9 
    2066 00000091 56A7          LSL64     ACC:P,#8              ; [CPU_ALU] |1717| 
    2067 00000092 2BAB          MOV       PL,#0                 ; [CPU_ALU] |1717| 
    2068 00000093 28AA          MOV       PH,#128               ; [CPU_ALU] |1717| 
         00000094 0080 
    2069 00000095 A9A0          MOVL      XAR0,P                ; [CPU_ALU] |1717| 
    2070                      .dwpsn  file "D:/ti/motorware/motorware_1_01_00_18/sw/modules/hal/boards/boostxldrv8305_revA/f28x/f28
    2071 00000096 80ED          MOVZ      AR7,*+XAR5[5]         ; [CPU_ALU] |1080| 
    2072                      .dwpsn  file "D:/ti/motorware/motorware_1_01_00_18/sw/drivers/pwm/src/32b/f28x/f2802x/pwm.h",line 171
    2073 00000097 2BAB          MOV       PL,#0                 ; [CPU_ALU] |1717| 
TMS320C2000 Assembler PC v18.1.2 Sun Jun 17 14:52:32 2018

Tools Copyright (c) 1996-2017 Texas Instruments Incorporated
C:\Users\haowp\AppData\Local\Temp\{81472915-7FA4-430D-8ACB-BFB8F401620C} PAGE   41

    2074 00000098 28AA          MOV       PH,#65408             ; [CPU_ALU] |1717| 
         00000099 FF80 
    2075 0000009a 5650          MINL      ACC,XAR0              ; [CPU_ALU] |1717| 
         0000009b 00A0 
    2076 0000009c 5661          MAXL      ACC,P                 ; [CPU_ALU] |1717| 
         0000009d 00AB 
    2077 0000009e D009          MOVB      XAR0,#9               ; [CPU_ALU] |1717| 
    2078 0000009f FF1F          ADD       ACC,#256 << 15        ; [CPU_ALU] |1717| 
         000000a0 0100 
    2079 000000a1 1EAC          MOVL      XT,ACC                ; [CPU_ALU] |1717| 
    2080 000000a2 5605          IMPYL     P,XT,XAR7             ; [CPU_ALU] |1717| 
         000000a3 00A7 
    2081 000000a4 5663          QMPYL     ACC,XT,XAR7           ; [CPU_ALU] |1717| 
         000000a5 00A7 
    2082 000000a6 56A7          LSL64     ACC:P,#8              ; [CPU_ALU] |1717| 
    2083 000000a7 3100          MOV       P,#0                  ; [CPU_ALU] |1717| 
    2084 000000a8 5650          MINL      ACC,XAR7              ; [CPU_ALU] |1717| 
         000000a9 00A7 
    2085 000000aa 5661          MAXL      ACC,P                 ; [CPU_ALU] |1717| 
         000000ab 00AB 
    2086 000000ac 9695          MOV       *+XAR5[AR0],AL        ; [CPU_ALU] |1717| 
    2087                      .dwpsn  file "D:/ti/motorware/motorware_1_01_00_18/sw/modules/hal/boards/boostxldrv8305_revA/f28x/f28
    2088 000000ad 000E          BANZ      $C$L3,AR6--           ; [CPU_ALU] |1077| 
         000000ae FFDC 
    2089                      ; branchcc occurs ; [] |1077| 
    2090 000000af 761F-         MOVW      DP,#_ctrlHandle       ; [CPU_ARAU] 
         000000b0 0000 
    2091                      .dwpsn  file "D:/ti/motorware/motorware_1_01_00_18/sw/solutions/instaspin_foc/src/proj_lab05b.c",line
    2092 000000b1 8A06-         MOVL      XAR4,@_ctrlHandle     ; [CPU_ALU] |482| 
    2093              $C$DW$264       .dwtag  DW_TAG_TI_branch
    2094                      .dwattr $C$DW$264, DW_AT_low_pc(0x00)
    2095                      .dwattr $C$DW$264, DW_AT_name("_CTRL_setup")
    2096                      .dwattr $C$DW$264, DW_AT_TI_call
    2097              
    2098 000000b2 7640!         LCR       #_CTRL_setup          ; [CPU_ALU] |482| 
         000000b3 0000 
    2099                      ; call occurs [#_CTRL_setup] ; [] |482| 
    2100 000000b4 FE84          SUBB      SP,#4                 ; [CPU_ARAU] 
    2101                      .dwcfi  cfa_offset, -14
    2102 000000b5 C5BE          MOVL      XAR7,*--SP            ; [CPU_ALU] 
    2103                      .dwcfi  cfa_offset, -12
    2104                      .dwcfi  restore_reg, 18
    2105 000000b6 C4BE          MOVL      XAR6,*--SP            ; [CPU_ALU] 
    2106                      .dwcfi  cfa_offset, -10
    2107                      .dwcfi  restore_reg, 16
    2108 000000b7 83BE          MOVL      XAR5,*--SP            ; [CPU_ALU] 
    2109                      .dwcfi  cfa_offset, -8
    2110                      .dwcfi  restore_reg, 14
    2111 000000b8 8ABE          MOVL      XAR4,*--SP            ; [CPU_ALU] 
    2112                      .dwcfi  cfa_offset, -6
    2113                      .dwcfi  restore_reg, 12
    2114 000000b9 87BE          MOVL      XT,*--SP              ; [CPU_ALU] 
    2115                      .dwcfi  cfa_offset, -4
    2116                      .dwcfi  restore_reg, 22
    2117                      .dwcfi  restore_reg, 21
TMS320C2000 Assembler PC v18.1.2 Sun Jun 17 14:52:32 2018

Tools Copyright (c) 1996-2017 Texas Instruments Incorporated
C:\Users\haowp\AppData\Local\Temp\{81472915-7FA4-430D-8ACB-BFB8F401620C} PAGE   42

    2118 000000ba 0003          POP       AR1H:AR0H             ; [CPU_ALU] 
    2119                      .dwcfi  cfa_offset, -2
    2120                      .dwcfi  restore_reg, 5
    2121                      .dwcfi  restore_reg, 7
    2122 000000bb 7617          NASP      ; [CPU_ALU] 
    2123              $C$DW$265       .dwtag  DW_TAG_TI_branch
    2124                      .dwattr $C$DW$265, DW_AT_low_pc(0x00)
    2125                      .dwattr $C$DW$265, DW_AT_TI_return
    2126              
    2127 000000bc 7602          IRET      ; [CPU_ALU] 
    2128                      ; return occurs ; [] 
    2129                      .dwattr $C$DW$252, DW_AT_TI_end_file("D:/ti/motorware/motorware_1_01_00_18/sw/solutions/instaspin_foc
    2130                      .dwattr $C$DW$252, DW_AT_TI_end_line(0x1e6)
    2131                      .dwattr $C$DW$252, DW_AT_TI_end_column(0x01)
    2132                      .dwendentry
    2133                      .dwendtag $C$DW$252
    2134              
    2135 00000095               .sect   ".text"
    2136                      .clink
    2137                      .global _main
    2138              
    2139              $C$DW$266       .dwtag  DW_TAG_subprogram
    2140                      .dwattr $C$DW$266, DW_AT_name("main")
    2141                      .dwattr $C$DW$266, DW_AT_low_pc(_main)
    2142                      .dwattr $C$DW$266, DW_AT_high_pc(0x00)
    2143                      .dwattr $C$DW$266, DW_AT_TI_symbol_name("_main")
    2144                      .dwattr $C$DW$266, DW_AT_external
    2145                      .dwattr $C$DW$266, DW_AT_TI_begin_file("D:/ti/motorware/motorware_1_01_00_18/sw/solutions/instaspin_f
    2146                      .dwattr $C$DW$266, DW_AT_TI_begin_line(0x87)
    2147                      .dwattr $C$DW$266, DW_AT_TI_begin_column(0x06)
    2148                      .dwattr $C$DW$266, DW_AT_TI_max_frame_size(-16)
    2149                      .dwpsn  file "D:/ti/motorware/motorware_1_01_00_18/sw/solutions/instaspin_foc/src/proj_lab05b.c",line
    2150              
    2151                      .dwfde $C$DW$CIE, _main
    2152              
    2153              ;***************************************************************
    2154              ;* FNAME: _main                         FR SIZE:  14           *
    2155              ;*                                                             *
    2156              ;* FUNCTION ENVIRONMENT                                        *
    2157              ;*                                                             *
    2158              ;* FUNCTION PROPERTIES                                         *
    2159              ;*                            2 Parameter,  6 Auto,  6 SOE     *
    2160              ;***************************************************************
    2161              
    2162              _main:
    2163              $C$DW$267       .dwtag  DW_TAG_variable
    2164                      .dwattr $C$DW$267, DW_AT_name("version")
    2165                      .dwattr $C$DW$267, DW_AT_TI_symbol_name("_version")
    2166                      .dwattr $C$DW$267, DW_AT_type(*$C$DW$T$37)
    2167                      .dwattr $C$DW$267, DW_AT_location[DW_OP_breg20 -6]
    2168              
    2169              ;* AR5   assigned to $O$C17
    2170              ;* AR5   assigned to $O$C18
    2171              ;* AR7   assigned to $O$C19
    2172              ;* AR2   assigned to $O$C20
TMS320C2000 Assembler PC v18.1.2 Sun Jun 17 14:52:32 2018

Tools Copyright (c) 1996-2017 Texas Instruments Incorporated
C:\Users\haowp\AppData\Local\Temp\{81472915-7FA4-430D-8ACB-BFB8F401620C} PAGE   43

    2173              ;* AR2   assigned to $O$C21
    2174              ;* AR6   assigned to $O$C22
    2175              ;* AR6   assigned to $O$C23
    2176              ;* AR6   assigned to $O$C24
    2177              ;* AR1   assigned to $O$K13
    2178              ;* AR2   assigned to $O$K13
    2179              ;* AR6   assigned to $O$K13
    2180              ;* AR2   assigned to $O$K13
    2181              ;* AR2   assigned to $O$K13
    2182              ;* AR1   assigned to $O$K13
    2183              ;* AR5   assigned to $O$v2
    2184              ;* AR4   assigned to $O$v2
    2185              ;* AR4   assigned to $O$v2
    2186              ;* AR4   assigned to $O$v2
    2187              ;* AR1   assigned to $O$v1
    2188              ;* AR4   assigned to $O$v1
    2189              ;* AR4   assigned to $O$v1
    2190              ;* AR4   assigned to $O$v1
    2191              ;* AR4   assigned to $O$v1
    2192              ;* PL    assigned to _cnt
    2193              $C$DW$268       .dwtag  DW_TAG_variable
    2194                      .dwattr $C$DW$268, DW_AT_name("cnt")
    2195                      .dwattr $C$DW$268, DW_AT_TI_symbol_name("_cnt")
    2196                      .dwattr $C$DW$268, DW_AT_type(*$C$DW$T$32)
    2197                      .dwattr $C$DW$268, DW_AT_location[DW_OP_reg2]
    2198              
    2199              ;* PL    assigned to _cnt
    2200              $C$DW$269       .dwtag  DW_TAG_variable
    2201                      .dwattr $C$DW$269, DW_AT_name("cnt")
    2202                      .dwattr $C$DW$269, DW_AT_TI_symbol_name("_cnt")
    2203                      .dwattr $C$DW$269, DW_AT_type(*$C$DW$T$32)
    2204                      .dwattr $C$DW$269, DW_AT_location[DW_OP_reg2]
    2205              
    2206              ;* AR3   assigned to $O$K44
    2207              ;* AR1   assigned to _obj
    2208              $C$DW$270       .dwtag  DW_TAG_variable
    2209                      .dwattr $C$DW$270, DW_AT_name("obj")
    2210                      .dwattr $C$DW$270, DW_AT_TI_symbol_name("_obj")
    2211                      .dwattr $C$DW$270, DW_AT_type(*$C$DW$T$265)
    2212                      .dwattr $C$DW$270, DW_AT_location[DW_OP_reg6]
    2213              
    2214              ;* AL    assigned to _flag_ctrlStateChanged
    2215              $C$DW$271       .dwtag  DW_TAG_variable
    2216                      .dwattr $C$DW$271, DW_AT_name("flag_ctrlStateChanged")
    2217                      .dwattr $C$DW$271, DW_AT_TI_symbol_name("_flag_ctrlStateChanged")
    2218                      .dwattr $C$DW$271, DW_AT_type(*$C$DW$T$69)
    2219                      .dwattr $C$DW$271, DW_AT_location[DW_OP_reg0]
    2220              
    2221              ;* PH    assigned to _ctrlState
    2222              $C$DW$272       .dwtag  DW_TAG_variable
    2223                      .dwattr $C$DW$272, DW_AT_name("ctrlState")
    2224                      .dwattr $C$DW$272, DW_AT_TI_symbol_name("_ctrlState")
    2225                      .dwattr $C$DW$272, DW_AT_type(*$C$DW$T$39)
    2226                      .dwattr $C$DW$272, DW_AT_location[DW_OP_reg3]
    2227              
TMS320C2000 Assembler PC v18.1.2 Sun Jun 17 14:52:32 2018

Tools Copyright (c) 1996-2017 Texas Instruments Incorporated
C:\Users\haowp\AppData\Local\Temp\{81472915-7FA4-430D-8ACB-BFB8F401620C} PAGE   44

    2228              ;* AR5   assigned to _handle
    2229              $C$DW$273       .dwtag  DW_TAG_variable
    2230                      .dwattr $C$DW$273, DW_AT_name("handle")
    2231                      .dwattr $C$DW$273, DW_AT_TI_symbol_name("_handle")
    2232                      .dwattr $C$DW$273, DW_AT_type(*$C$DW$T$286)
    2233                      .dwattr $C$DW$273, DW_AT_location[DW_OP_reg14]
    2234              
    2235              ;* AL    assigned to _state
    2236              $C$DW$274       .dwtag  DW_TAG_variable
    2237                      .dwattr $C$DW$274, DW_AT_name("state")
    2238                      .dwattr $C$DW$274, DW_AT_TI_symbol_name("_state")
    2239                      .dwattr $C$DW$274, DW_AT_type(*$C$DW$T$69)
    2240                      .dwattr $C$DW$274, DW_AT_location[DW_OP_reg0]
    2241              
    2242              ;* AL    assigned to _state
    2243              $C$DW$275       .dwtag  DW_TAG_variable
    2244                      .dwattr $C$DW$275, DW_AT_name("state")
    2245                      .dwattr $C$DW$275, DW_AT_TI_symbol_name("_state")
    2246                      .dwattr $C$DW$275, DW_AT_type(*$C$DW$T$69)
    2247                      .dwattr $C$DW$275, DW_AT_location[DW_OP_reg0]
    2248              
    2249              ;* AH    assigned to _state
    2250              $C$DW$276       .dwtag  DW_TAG_variable
    2251                      .dwattr $C$DW$276, DW_AT_name("state")
    2252                      .dwattr $C$DW$276, DW_AT_TI_symbol_name("_state")
    2253                      .dwattr $C$DW$276, DW_AT_type(*$C$DW$T$69)
    2254                      .dwattr $C$DW$276, DW_AT_location[DW_OP_reg1]
    2255              
    2256              ;* AR5   assigned to _handle
    2257              $C$DW$277       .dwtag  DW_TAG_variable
    2258                      .dwattr $C$DW$277, DW_AT_name("handle")
    2259                      .dwattr $C$DW$277, DW_AT_TI_symbol_name("_handle")
    2260                      .dwattr $C$DW$277, DW_AT_type(*$C$DW$T$286)
    2261                      .dwattr $C$DW$277, DW_AT_location[DW_OP_reg14]
    2262              
    2263              ;* AR6   assigned to _handle
    2264              $C$DW$278       .dwtag  DW_TAG_variable
    2265                      .dwattr $C$DW$278, DW_AT_name("handle")
    2266                      .dwattr $C$DW$278, DW_AT_TI_symbol_name("_handle")
    2267                      .dwattr $C$DW$278, DW_AT_type(*$C$DW$T$286)
    2268                      .dwattr $C$DW$278, DW_AT_location[DW_OP_reg16]
    2269              
    2270              ;* AR5   assigned to _handle
    2271              $C$DW$279       .dwtag  DW_TAG_variable
    2272                      .dwattr $C$DW$279, DW_AT_name("handle")
    2273                      .dwattr $C$DW$279, DW_AT_TI_symbol_name("_handle")
    2274                      .dwattr $C$DW$279, DW_AT_type(*$C$DW$T$286)
    2275                      .dwattr $C$DW$279, DW_AT_location[DW_OP_reg14]
    2276              
    2277              ;* AR4   assigned to _handle
    2278              $C$DW$280       .dwtag  DW_TAG_variable
    2279                      .dwattr $C$DW$280, DW_AT_name("handle")
    2280                      .dwattr $C$DW$280, DW_AT_TI_symbol_name("_handle")
    2281                      .dwattr $C$DW$280, DW_AT_type(*$C$DW$T$286)
    2282                      .dwattr $C$DW$280, DW_AT_location[DW_OP_reg12]
TMS320C2000 Assembler PC v18.1.2 Sun Jun 17 14:52:32 2018

Tools Copyright (c) 1996-2017 Texas Instruments Incorporated
C:\Users\haowp\AppData\Local\Temp\{81472915-7FA4-430D-8ACB-BFB8F401620C} PAGE   45

    2283              
    2284              ;* AL    assigned to _maxAccel_pu
    2285              $C$DW$281       .dwtag  DW_TAG_variable
    2286                      .dwattr $C$DW$281, DW_AT_name("maxAccel_pu")
    2287                      .dwattr $C$DW$281, DW_AT_TI_symbol_name("_maxAccel_pu")
    2288                      .dwattr $C$DW$281, DW_AT_type(*$C$DW$T$31)
    2289                      .dwattr $C$DW$281, DW_AT_location[DW_OP_reg0]
    2290              
    2291              ;* AR6   assigned to _state
    2292              $C$DW$282       .dwtag  DW_TAG_variable
    2293                      .dwattr $C$DW$282, DW_AT_name("state")
    2294                      .dwattr $C$DW$282, DW_AT_TI_symbol_name("_state")
    2295                      .dwattr $C$DW$282, DW_AT_type(*$C$DW$T$69)
    2296                      .dwattr $C$DW$282, DW_AT_location[DW_OP_reg16]
    2297              
    2298              ;* AR4   assigned to _handle
    2299              $C$DW$283       .dwtag  DW_TAG_variable
    2300                      .dwattr $C$DW$283, DW_AT_name("handle")
    2301                      .dwattr $C$DW$283, DW_AT_TI_symbol_name("_handle")
    2302                      .dwattr $C$DW$283, DW_AT_type(*$C$DW$T$286)
    2303                      .dwattr $C$DW$283, DW_AT_location[DW_OP_reg12]
    2304              
    2305                      .dwcfi  cfa_offset, -2
    2306                      .dwcfi  save_reg_to_mem, 26, 0
    2307 00000095 B2BD          MOVL      *SP++,XAR1            ; [CPU_ALU] 
    2308                      .dwcfi  save_reg_to_mem, 7, 2
    2309                      .dwcfi  cfa_offset, -4
    2310 00000096 AABD          MOVL      *SP++,XAR2            ; [CPU_ALU] 
    2311                      .dwcfi  save_reg_to_mem, 9, 4
    2312                      .dwcfi  cfa_offset, -6
    2313 00000097 A2BD          MOVL      *SP++,XAR3            ; [CPU_ALU] 
    2314                      .dwcfi  save_reg_to_mem, 11, 6
    2315                      .dwcfi  cfa_offset, -8
    2316 00000098 FE08          ADDB      SP,#8                 ; [CPU_ARAU] 
    2317                      .dwcfi  cfa_offset, -16
    2318                      .dwpsn  file "D:/ti/motorware/motorware_1_01_00_18/sw/solutions/instaspin_foc/src/proj_lab05b.c",line
    2319 00000099 8F00!         MOVL      XAR4,#_RamfuncsRunStart ; [CPU_ARAU] |149| 
         0000009a 0000 
    2320 0000009b 8F40!         MOVL      XAR5,#_RamfuncsLoadEnd ; [CPU_ARAU] |149| 
         0000009c 0000 
    2321 0000009d A842          MOVL      *-SP[2],XAR4          ; [CPU_ALU] |149| 
    2322 0000009e 8F00!         MOVL      XAR4,#_RamfuncsLoadStart ; [CPU_ARAU] |149| 
         0000009f 0000 
    2323              $C$DW$284       .dwtag  DW_TAG_TI_branch
    2324                      .dwattr $C$DW$284, DW_AT_low_pc(0x00)
    2325                      .dwattr $C$DW$284, DW_AT_name("_memCopy")
    2326                      .dwattr $C$DW$284, DW_AT_TI_call
    2327              
    2328 000000a0 7640!         LCR       #_memCopy             ; [CPU_ALU] |149| 
         000000a1 0000 
    2329                      ; call occurs [#_memCopy] ; [] |149| 
    2330                      .dwpsn  file "D:/ti/motorware/motorware_1_01_00_18/sw/solutions/instaspin_foc/src/proj_lab05b.c",line
    2331 000000a2 8F00!         MOVL      XAR4,#_hal            ; [CPU_ARAU] |167| 
         000000a3 0000 
    2332 000000a4 02C2          MOVB      ACC,#194              ; [CPU_ALU] |167| 
TMS320C2000 Assembler PC v18.1.2 Sun Jun 17 14:52:32 2018

Tools Copyright (c) 1996-2017 Texas Instruments Incorporated
C:\Users\haowp\AppData\Local\Temp\{81472915-7FA4-430D-8ACB-BFB8F401620C} PAGE   46

    2333              $C$DW$285       .dwtag  DW_TAG_TI_branch
    2334                      .dwattr $C$DW$285, DW_AT_low_pc(0x00)
    2335                      .dwattr $C$DW$285, DW_AT_name("_HAL_init")
    2336                      .dwattr $C$DW$285, DW_AT_TI_call
    2337              
    2338 000000a5 7640!         LCR       #_HAL_init            ; [CPU_ALU] |167| 
         000000a6 0000 
    2339                      ; call occurs [#_HAL_init] ; [] |167| 
    2340                      .dwpsn  file "D:/ti/motorware/motorware_1_01_00_18/sw/solutions/instaspin_foc/src/proj_lab05b.c",line
    2341 000000a7 8D40-         MOVL      XAR1,#_gUserParams    ; [CPU_ARAU] |171| 
         000000a8 0140 
    2342 000000a9 761F-         MOVW      DP,#_halHandle        ; [CPU_ARAU] 
         000000aa 0000 
    2343 000000ab B248          MOVL      *-SP[8],XAR1          ; [CPU_ALU] |171| 
    2344                      .dwpsn  file "D:/ti/motorware/motorware_1_01_00_18/sw/solutions/instaspin_foc/src/proj_lab05b.c",line
    2345 000000ac A804-         MOVL      @_halHandle,XAR4      ; [CPU_ALU] |167| 
    2346                      .dwpsn  file "D:/ti/motorware/motorware_1_01_00_18/sw/solutions/instaspin_foc/src/proj_lab05b.c",line
    2347 000000ad 8AA1          MOVL      XAR4,XAR1             ; [CPU_ALU] |171| 
    2348              $C$DW$286       .dwtag  DW_TAG_TI_branch
    2349                      .dwattr $C$DW$286, DW_AT_low_pc(0x00)
    2350                      .dwattr $C$DW$286, DW_AT_name("_USER_checkForErrors")
    2351                      .dwattr $C$DW$286, DW_AT_TI_call
    2352              
    2353 000000ae 7640!         LCR       #_USER_checkForErrors ; [CPU_ALU] |171| 
         000000af 0000 
    2354                      ; call occurs [#_USER_checkForErrors] ; [] |171| 
    2355                      .dwpsn  file "D:/ti/motorware/motorware_1_01_00_18/sw/solutions/instaspin_foc/src/proj_lab05b.c",line
    2356 000000b0 8AA1          MOVL      XAR4,XAR1             ; [CPU_ALU] |175| 
    2357              $C$DW$287       .dwtag  DW_TAG_TI_branch
    2358                      .dwattr $C$DW$287, DW_AT_low_pc(0x00)
    2359                      .dwattr $C$DW$287, DW_AT_name("_USER_getErrorCode")
    2360                      .dwattr $C$DW$287, DW_AT_TI_call
    2361              
    2362 000000b1 7640!         LCR       #_USER_getErrorCode   ; [CPU_ALU] |175| 
         000000b2 0000 
    2363                      ; call occurs [#_USER_getErrorCode] ; [] |175| 
    2364 000000b3 8D40-         MOVL      XAR1,#_gMotorVars     ; [CPU_ARAU] |175| 
         000000b4 00C0 
    2365 000000b5 D00F          MOVB      XAR0,#15              ; [CPU_ALU] |175| 
    2366 000000b6 9691          MOV       *+XAR1[AR0],AL        ; [CPU_ALU] |175| 
    2367                      .dwpsn  file "D:/ti/motorware/motorware_1_01_00_18/sw/solutions/instaspin_foc/src/proj_lab05b.c",line
    2368 000000b7 D00F          MOVB      XAR0,#15              ; [CPU_ALU] |179| 
    2369 000000b8 9291          MOV       AL,*+XAR1[AR0]        ; [CPU_ALU] |179| 
    2370 000000b9 FFE0          B         $C$L22,NEQ            ; [CPU_ALU] |179| 
         000000ba 0237 
    2371                      ; branchcc occurs ; [] |179| 
    2372 000000bb 8648          MOVL      XAR2,*-SP[8]          ; [CPU_ALU] 
    2373                      .dwpsn  file "D:/ti/motorware/motorware_1_01_00_18/sw/solutions/instaspin_foc/src/proj_lab05b.c",line
    2374 000000bc 8AA2          MOVL      XAR4,XAR2             ; [CPU_ALU] |189| 
    2375              $C$DW$288       .dwtag  DW_TAG_TI_branch
    2376                      .dwattr $C$DW$288, DW_AT_low_pc(0x00)
    2377                      .dwattr $C$DW$288, DW_AT_name("_USER_setParams")
    2378                      .dwattr $C$DW$288, DW_AT_TI_call
    2379              
    2380 000000bd 7640!         LCR       #_USER_setParams      ; [CPU_ALU] |189| 
TMS320C2000 Assembler PC v18.1.2 Sun Jun 17 14:52:32 2018

Tools Copyright (c) 1996-2017 Texas Instruments Incorporated
C:\Users\haowp\AppData\Local\Temp\{81472915-7FA4-430D-8ACB-BFB8F401620C} PAGE   47

         000000be 0000 
    2381                      ; call occurs [#_USER_setParams] ; [] |189| 
    2382 000000bf 761F-         MOVW      DP,#_halHandle        ; [CPU_ARAU] 
         000000c0 0000 
    2383                      .dwpsn  file "D:/ti/motorware/motorware_1_01_00_18/sw/solutions/instaspin_foc/src/proj_lab05b.c",line
    2384 000000c1 8A04-         MOVL      XAR4,@_halHandle      ; [CPU_ALU] |193| 
    2385 000000c2 83A2          MOVL      XAR5,XAR2             ; [CPU_ALU] |193| 
    2386              $C$DW$289       .dwtag  DW_TAG_TI_branch
    2387                      .dwattr $C$DW$289, DW_AT_low_pc(0x00)
    2388                      .dwattr $C$DW$289, DW_AT_name("_HAL_setParams")
    2389                      .dwattr $C$DW$289, DW_AT_TI_call
    2390              
    2391 000000c3 7640!         LCR       #_HAL_setParams       ; [CPU_ALU] |193| 
         000000c4 0000 
    2392                      ; call occurs [#_HAL_setParams] ; [] |193| 
    2393                      .dwpsn  file "D:/ti/motorware/motorware_1_01_00_18/sw/solutions/instaspin_foc/src/proj_lab05b.c",line
    2394 000000c5 D500          MOVB      XAR5,#0               ; [CPU_ALU] |201| 
    2395 000000c6 7680          MOVL      XAR6,#264             ; [CPU_ARAU] |201| 
         000000c7 0108 
    2396 000000c8 8F00-         MOVL      XAR4,#_ctrl           ; [CPU_ARAU] |201| 
         000000c9 0200 
    2397 000000ca 06A6          MOVL      ACC,XAR6              ; [CPU_ALU] |201| 
    2398              $C$DW$290       .dwtag  DW_TAG_TI_branch
    2399                      .dwattr $C$DW$290, DW_AT_low_pc(0x00)
    2400                      .dwattr $C$DW$290, DW_AT_name("_CTRL_initCtrl")
    2401                      .dwattr $C$DW$290, DW_AT_TI_call
    2402              
    2403 000000cb 7640!         LCR       #_CTRL_initCtrl       ; [CPU_ALU] |201| 
         000000cc 0000 
    2404                      ; call occurs [#_CTRL_initCtrl] ; [] |201| 
    2405                      .dwpsn  file "D:/ti/motorware/motorware_1_01_00_18/sw/solutions/instaspin_foc/src/proj_lab05b.c",line
    2406 000000cd 5DAD          MOVZ      AR5,SP                ; [CPU_ALU] |209| 
    2407 000000ce 761F-         MOVW      DP,#_ctrlHandle       ; [CPU_ARAU] 
         000000cf 0000 
    2408                      .dwpsn  file "D:/ti/motorware/motorware_1_01_00_18/sw/solutions/instaspin_foc/src/proj_lab05b.c",line
    2409 000000d0 A806-         MOVL      @_ctrlHandle,XAR4     ; [CPU_ALU] |201| 
    2410                      .dwpsn  file "D:/ti/motorware/motorware_1_01_00_18/sw/solutions/instaspin_foc/src/proj_lab05b.c",line
    2411 000000d1 DD86          SUBB      XAR5,#6               ; [CPU_ARAU] |209| 
    2412 000000d2 5DA5          MOVZ      AR5,AR5               ; [CPU_ALU] |209| 
    2413              $C$DW$291       .dwtag  DW_TAG_TI_branch
    2414                      .dwattr $C$DW$291, DW_AT_low_pc(0x00)
    2415                      .dwattr $C$DW$291, DW_AT_name("_CTRL_getVersion")
    2416                      .dwattr $C$DW$291, DW_AT_TI_call
    2417              
    2418 000000d3 7640!         LCR       #_CTRL_getVersion     ; [CPU_ALU] |209| 
         000000d4 0000 
    2419                      ; call occurs [#_CTRL_getVersion] ; [] |209| 
    2420                      .dwpsn  file "D:/ti/motorware/motorware_1_01_00_18/sw/solutions/instaspin_foc/src/proj_lab05b.c",line
    2421 000000d5 5CAD          MOVZ      AR4,SP                ; [CPU_ALU] |211| 
    2422 000000d6 DC86          SUBB      XAR4,#6               ; [CPU_ARAU] |211| 
    2423 000000d7 80A4          MOVZ      AR7,AR4               ; [CPU_ALU] |211| 
    2424 000000d8 D910          ADDB      XAR1,#16              ; [CPU_ALU] |211| 
    2425 000000d9 761F-         MOVW      DP,#_ctrlHandle       ; [CPU_ARAU] 
         000000da 0000 
    2426                      .dwpsn  file "D:/ti/motorware/motorware_1_01_00_18/sw/solutions/instaspin_foc/src/proj_lab05b.c",line
TMS320C2000 Assembler PC v18.1.2 Sun Jun 17 14:52:32 2018

Tools Copyright (c) 1996-2017 Texas Instruments Incorporated
C:\Users\haowp\AppData\Local\Temp\{81472915-7FA4-430D-8ACB-BFB8F401620C} PAGE   48

    2427 000000db 83A2          MOVL      XAR5,XAR2             ; [CPU_ALU] |216| 
    2428                      .dwpsn  file "D:/ti/motorware/motorware_1_01_00_18/sw/solutions/instaspin_foc/src/proj_lab05b.c",line
    2429 000000dc F603          RPT       #3
    2430 000000dd 2481  ||     PREAD     *XAR1++,*XAR7         ; [CPU_ALU] |211| 
    2431                      .dwpsn  file "D:/ti/motorware/motorware_1_01_00_18/sw/solutions/instaspin_foc/src/proj_lab05b.c",line
    2432 000000de 8A06-         MOVL      XAR4,@_ctrlHandle     ; [CPU_ALU] |216| 
    2433              $C$DW$292       .dwtag  DW_TAG_TI_branch
    2434                      .dwattr $C$DW$292, DW_AT_low_pc(0x00)
    2435                      .dwattr $C$DW$292, DW_AT_name("_CTRL_setParams")
    2436                      .dwattr $C$DW$292, DW_AT_TI_call
    2437              
    2438 000000df 7640!         LCR       #_CTRL_setParams      ; [CPU_ALU] |216| 
         000000e0 0000 
    2439                      ; call occurs [#_CTRL_setParams] ; [] |216| 
    2440 000000e1 761F-         MOVW      DP,#_halHandle        ; [CPU_ARAU] 
         000000e2 0000 
    2441                      .dwpsn  file "D:/ti/motorware/motorware_1_01_00_18/sw/solutions/instaspin_foc/src/proj_lab05b.c",line
    2442 000000e3 8A04-         MOVL      XAR4,@_halHandle      ; [CPU_ALU] |220| 
    2443              $C$DW$293       .dwtag  DW_TAG_TI_branch
    2444                      .dwattr $C$DW$293, DW_AT_low_pc(0x00)
    2445                      .dwattr $C$DW$293, DW_AT_name("_HAL_setupFaults")
    2446                      .dwattr $C$DW$293, DW_AT_TI_call
    2447              
    2448 000000e4 7640!         LCR       #_HAL_setupFaults     ; [CPU_ALU] |220| 
         000000e5 0000 
    2449                      ; call occurs [#_HAL_setupFaults] ; [] |220| 
    2450 000000e6 761F-         MOVW      DP,#_halHandle        ; [CPU_ARAU] 
         000000e7 0000 
    2451                      .dwpsn  file "D:/ti/motorware/motorware_1_01_00_18/sw/modules/hal/boards/boostxldrv8305_revA/f28x/f28
    2452 000000e8 8A04-         MOVL      XAR4,@_halHandle      ; [CPU_ALU] |470| 
    2453 000000e9 7622   EALLOW
    2454                      .dwpsn  file "D:/ti/motorware/motorware_1_01_00_18/sw/modules/hal/boards/boostxldrv8305_revA/f28x/f28
    2455 000000ea D078          MOVB      XAR0,#120             ; [CPU_ALU] |477| 
    2456 000000eb 02F0          MOVB      ACC,#240              ; [CPU_ALU] |477| 
    2457 000000ec 0794          ADDL      ACC,*+XAR4[AR0]       ; [CPU_ALU] |477| 
    2458 000000ed 83A9          MOVL      XAR5,ACC              ; [CPU_ALU] |477| 
    2459 000000ee 7680+         MOVL      XAR6,#_mainISR        ; [CPU_ARAU] |477| 
         000000ef 0000 
    2460 000000f0 C2C5          MOVL      *+XAR5[0],XAR6        ; [CPU_ALU] |477| 
    2461 000000f1 761A   EDIS
    2462 000000f2 FF69          SPM       #0                    ; [CPU_ALU] 
    2463                      .dwpsn  file "D:/ti/motorware/motorware_1_01_00_18/sw/solutions/instaspin_foc/src/proj_lab05b.c",line
    2464              $C$DW$294       .dwtag  DW_TAG_TI_branch
    2465                      .dwattr $C$DW$294, DW_AT_low_pc(0x00)
    2466                      .dwattr $C$DW$294, DW_AT_name("_HAL_enableAdcInts")
    2467                      .dwattr $C$DW$294, DW_AT_TI_call
    2468              
    2469 000000f3 7640!         LCR       #_HAL_enableAdcInts   ; [CPU_ALU] |228| 
         000000f4 0000 
    2470                      ; call occurs [#_HAL_enableAdcInts] ; [] |228| 
    2471 000000f5 761F-         MOVW      DP,#_halHandle        ; [CPU_ARAU] 
         000000f6 0000 
    2472                      .dwpsn  file "D:/ti/motorware/motorware_1_01_00_18/sw/solutions/instaspin_foc/src/proj_lab05b.c",line
    2473 000000f7 8A04-         MOVL      XAR4,@_halHandle      ; [CPU_ALU] |232| 
    2474              $C$DW$295       .dwtag  DW_TAG_TI_branch
TMS320C2000 Assembler PC v18.1.2 Sun Jun 17 14:52:32 2018

Tools Copyright (c) 1996-2017 Texas Instruments Incorporated
C:\Users\haowp\AppData\Local\Temp\{81472915-7FA4-430D-8ACB-BFB8F401620C} PAGE   49

    2475                      .dwattr $C$DW$295, DW_AT_low_pc(0x00)
    2476                      .dwattr $C$DW$295, DW_AT_name("_HAL_enableGlobalInts")
    2477                      .dwattr $C$DW$295, DW_AT_TI_call
    2478              
    2479 000000f8 7640!         LCR       #_HAL_enableGlobalInts ; [CPU_ALU] |232| 
         000000f9 0000 
    2480                      ; call occurs [#_HAL_enableGlobalInts] ; [] |232| 
    2481 000000fa 761F-         MOVW      DP,#_halHandle        ; [CPU_ARAU] 
         000000fb 0000 
    2482                      .dwpsn  file "D:/ti/motorware/motorware_1_01_00_18/sw/solutions/instaspin_foc/src/proj_lab05b.c",line
    2483 000000fc 8A04-         MOVL      XAR4,@_halHandle      ; [CPU_ALU] |236| 
    2484              $C$DW$296       .dwtag  DW_TAG_TI_branch
    2485                      .dwattr $C$DW$296, DW_AT_low_pc(0x00)
    2486                      .dwattr $C$DW$296, DW_AT_name("_HAL_enableDebugInt")
    2487                      .dwattr $C$DW$296, DW_AT_TI_call
    2488              
    2489 000000fd 7640!         LCR       #_HAL_enableDebugInt  ; [CPU_ALU] |236| 
         000000fe 0000 
    2490                      ; call occurs [#_HAL_enableDebugInt] ; [] |236| 
    2491 000000ff 761F-         MOVW      DP,#_halHandle        ; [CPU_ARAU] 
         00000100 0000 
    2492                      .dwpsn  file "D:/ti/motorware/motorware_1_01_00_18/sw/modules/hal/boards/boostxldrv8305_revA/f28x/f28
    2493 00000101 8A04-         MOVL      XAR4,@_halHandle      ; [CPU_ALU] |239| 
    2494 00000102 83A4          MOVL      XAR5,XAR4             ; [CPU_ALU] |239| 
    2495 00000103 DD7E          ADDB      XAR5,#126             ; [CPU_ALU] |239| 
    2496 00000104 7622   EALLOW
    2497                      .dwpsn  file "D:/ti/motorware/motorware_1_01_00_18/sw/drivers/pwm/src/32b/f28x/f2802x/pwm.h",line 156
    2498 00000105 D07C          MOVB      XAR0,#124             ; [CPU_ALU] |1567| 
    2499 00000106 0218          MOVB      ACC,#24               ; [CPU_ALU] |1567| 
    2500 00000107 0794          ADDL      ACC,*+XAR4[AR0]       ; [CPU_ALU] |1567| 
    2501 00000108 1EA6          MOVL      XAR6,ACC              ; [CPU_ALU] |1567| 
    2502 00000109 1AC6          OR        *+XAR6[0],#0x0004     ; [CPU_ALU] |1567| 
         0000010a 0004 
    2503 0000010b 761A   EDIS
    2504 0000010c 7622   EALLOW
    2505 0000010d 0218          MOVB      ACC,#24               ; [CPU_ALU] |1567| 
    2506 0000010e 07C5          ADDL      ACC,*+XAR5[0]         ; [CPU_ALU] |1567| 
    2507 0000010f 1EA6          MOVL      XAR6,ACC              ; [CPU_ALU] |1567| 
    2508 00000110 1AC6          OR        *+XAR6[0],#0x0004     ; [CPU_ALU] |1567| 
         00000111 0004 
    2509 00000112 761A   EDIS
    2510 00000113 7622   EALLOW
    2511 00000114 0218          MOVB      ACC,#24               ; [CPU_ALU] |1567| 
    2512 00000115 07D5          ADDL      ACC,*+XAR5[2]         ; [CPU_ALU] |1567| 
    2513 00000116 83A9          MOVL      XAR5,ACC              ; [CPU_ALU] |1567| 
    2514 00000117 1AC5          OR        *+XAR5[0],#0x0004     ; [CPU_ALU] |1567| 
         00000118 0004 
    2515 00000119 761A   EDIS
    2516 0000011a FF69          SPM       #0                    ; [CPU_ALU] 
    2517                      .dwpsn  file "D:/ti/motorware/motorware_1_01_00_18/sw/solutions/instaspin_foc/src/proj_lab05b.c",line
    2518              $C$DW$297       .dwtag  DW_TAG_TI_branch
    2519                      .dwattr $C$DW$297, DW_AT_low_pc(0x00)
    2520                      .dwattr $C$DW$297, DW_AT_name("_HAL_enableDrv")
    2521                      .dwattr $C$DW$297, DW_AT_TI_call
    2522              
TMS320C2000 Assembler PC v18.1.2 Sun Jun 17 14:52:32 2018

Tools Copyright (c) 1996-2017 Texas Instruments Incorporated
C:\Users\haowp\AppData\Local\Temp\{81472915-7FA4-430D-8ACB-BFB8F401620C} PAGE   50

    2523 0000011b 7640!         LCR       #_HAL_enableDrv       ; [CPU_ALU] |252| 
         0000011c 0000 
    2524                      ; call occurs [#_HAL_enableDrv] ; [] |252| 
    2525                      .dwpsn  file "D:/ti/motorware/motorware_1_01_00_18/sw/solutions/instaspin_foc/src/proj_lab05b.c",line
    2526 0000011d 8DC0-         MOVL      XAR3,#_gDrvSpi8305Vars ; [CPU_ARAU] |254| 
         0000011e 0040 
    2527 0000011f 761F-         MOVW      DP,#_halHandle        ; [CPU_ARAU] 
         00000120 0000 
    2528 00000121 83A3          MOVL      XAR5,XAR3             ; [CPU_ALU] |254| 
    2529 00000122 8A04-         MOVL      XAR4,@_halHandle      ; [CPU_ALU] |254| 
    2530              $C$DW$298       .dwtag  DW_TAG_TI_branch
    2531                      .dwattr $C$DW$298, DW_AT_low_pc(0x00)
    2532                      .dwattr $C$DW$298, DW_AT_name("_HAL_setupDrvSpi")
    2533                      .dwattr $C$DW$298, DW_AT_TI_call
    2534              
    2535 00000123 7640!         LCR       #_HAL_setupDrvSpi     ; [CPU_ALU] |254| 
         00000124 0000 
    2536                      ; call occurs [#_HAL_setupDrvSpi] ; [] |254| 
    2537 00000125 761F-         MOVW      DP,#_ctrlHandle       ; [CPU_ARAU] 
         00000126 0000 
    2538                      .dwpsn  file "D:/ti/motorware/motorware_1_01_00_18/sw/modules/ctrl/src/32b/ctrl.h",line 1246,column 3
    2539 00000127 02F1          MOVB      ACC,#241              ; [CPU_ALU] |1246| 
    2540 00000128 0706-         ADDL      ACC,@_ctrlHandle      ; [CPU_ALU] |1246| 
    2541 00000129 8AA9          MOVL      XAR4,ACC              ; [CPU_ALU] |1246| 
    2542 0000012a 56BF          MOVB      *+XAR4[0],#1,UNC      ; [CPU_ALU] |1246| 
         0000012b 01C4 
    2543                      .dwpsn  file "D:/ti/motorware/motorware_1_01_00_18/sw/solutions/instaspin_foc/src/proj_lab05b.c",line
    2544              $C$DW$299       .dwtag  DW_TAG_TI_branch
    2545                      .dwattr $C$DW$299, DW_AT_low_pc(0x00)
    2546                      .dwattr $C$DW$299, DW_AT_name("_USER_computeFlux_pu_to_Wb_sf")
    2547                      .dwattr $C$DW$299, DW_AT_TI_call
    2548              
    2549 0000012c 7640!         LCR       #_USER_computeFlux_pu_to_Wb_sf ; [CPU_ALU] |263| 
         0000012d 0000 
    2550                      ; call occurs [#_USER_computeFlux_pu_to_Wb_sf] ; [] |263| 
    2551 0000012e 761F-         MOVW      DP,#_gFlux_pu_to_Wb_sf ; [CPU_ARAU] 
         0000012f 0000 
    2552 00000130 1E0E-         MOVL      @_gFlux_pu_to_Wb_sf,ACC ; [CPU_ALU] |263| 
    2553                      .dwpsn  file "D:/ti/motorware/motorware_1_01_00_18/sw/solutions/instaspin_foc/src/proj_lab05b.c",line
    2554              $C$DW$300       .dwtag  DW_TAG_TI_branch
    2555                      .dwattr $C$DW$300, DW_AT_low_pc(0x00)
    2556                      .dwattr $C$DW$300, DW_AT_name("_USER_computeFlux_pu_to_VpHz_sf")
    2557                      .dwattr $C$DW$300, DW_AT_TI_call
    2558              
    2559 00000131 7640!         LCR       #_USER_computeFlux_pu_to_VpHz_sf ; [CPU_ALU] |264| 
         00000132 0000 
    2560                      ; call occurs [#_USER_computeFlux_pu_to_VpHz_sf] ; [] |264| 
    2561 00000133 761F-         MOVW      DP,#_gFlux_pu_to_VpHz_sf ; [CPU_ARAU] 
         00000134 0000 
    2562 00000135 1E0A-         MOVL      @_gFlux_pu_to_VpHz_sf,ACC ; [CPU_ALU] |264| 
    2563                      .dwpsn  file "D:/ti/motorware/motorware_1_01_00_18/sw/solutions/instaspin_foc/src/proj_lab05b.c",line
    2564              $C$DW$301       .dwtag  DW_TAG_TI_branch
    2565                      .dwattr $C$DW$301, DW_AT_low_pc(0x00)
    2566                      .dwattr $C$DW$301, DW_AT_name("_USER_computeTorque_Ls_Id_Iq_pu_to_Nm_sf")
    2567                      .dwattr $C$DW$301, DW_AT_TI_call
TMS320C2000 Assembler PC v18.1.2 Sun Jun 17 14:52:32 2018

Tools Copyright (c) 1996-2017 Texas Instruments Incorporated
C:\Users\haowp\AppData\Local\Temp\{81472915-7FA4-430D-8ACB-BFB8F401620C} PAGE   51

    2568              
    2569 00000136 7640!         LCR       #_USER_computeTorque_Ls_Id_Iq_pu_to_Nm_sf ; [CPU_ALU] |265| 
         00000137 0000 
    2570                      ; call occurs [#_USER_computeTorque_Ls_Id_Iq_pu_to_Nm_sf] ; [] |265| 
    2571 00000138 761F-         MOVW      DP,#_gTorque_Ls_Id_Iq_pu_to_Nm_sf ; [CPU_ARAU] 
         00000139 0000 
    2572 0000013a 1E0C-         MOVL      @_gTorque_Ls_Id_Iq_pu_to_Nm_sf,ACC ; [CPU_ALU] |265| 
    2573                      .dwpsn  file "D:/ti/motorware/motorware_1_01_00_18/sw/solutions/instaspin_foc/src/proj_lab05b.c",line
    2574              $C$DW$302       .dwtag  DW_TAG_TI_branch
    2575                      .dwattr $C$DW$302, DW_AT_low_pc(0x00)
    2576                      .dwattr $C$DW$302, DW_AT_name("_USER_computeTorque_Flux_Iq_pu_to_Nm_sf")
    2577                      .dwattr $C$DW$302, DW_AT_TI_call
    2578              
    2579 0000013b 7640!         LCR       #_USER_computeTorque_Flux_Iq_pu_to_Nm_sf ; [CPU_ALU] |266| 
         0000013c 0000 
    2580                      ; call occurs [#_USER_computeTorque_Flux_Iq_pu_to_Nm_sf] ; [] |266| 
    2581 0000013d 761F-         MOVW      DP,#_gTorque_Flux_Iq_pu_to_Nm_sf ; [CPU_ARAU] 
         0000013e 0000 
    2582 0000013f 1E10-         MOVL      @_gTorque_Flux_Iq_pu_to_Nm_sf,ACC ; [CPU_ALU] |266| 
    2583 00000140       $C$L4:    
    2584 00000140 761F-         MOVW      DP,#_gMotorVars       ; [CPU_ARAU] 
         00000141 0003 
    2585                      .dwpsn  file "D:/ti/motorware/motorware_1_01_00_18/sw/solutions/instaspin_foc/src/proj_lab05b.c",line
    2586 00000142 9200-         MOV       AL,@_gMotorVars       ; [CPU_ALU] |272| 
    2587 00000143 61FD          B         $C$L4,EQ              ; [CPU_ALU] |272| 
    2588                      ; branchcc occurs ; [] |272| 
    2589 00000144 761F-         MOVW      DP,#_ctrlHandle       ; [CPU_ARAU] 
         00000145 0000 
    2590                      .dwpsn  file "D:/ti/motorware/motorware_1_01_00_18/sw/modules/ctrl/src/32b/ctrl.h",line 1285,column 1
    2591 00000146 8B06-         MOVL      XAR1,@_ctrlHandle     ; [CPU_ALU] |1285| 
    2592                      .dwpsn  file "D:/ti/motorware/motorware_1_01_00_18/sw/modules/ctrl/src/32b/ctrl.h",line 1288,column 3
    2593 00000147 D0F4          MOVB      XAR0,#244             ; [CPU_ALU] |1288| 
    2594 00000148 56BF          MOVB      *+XAR1[AR0],#1,UNC    ; [CPU_ALU] |1288| 
         00000149 0191 
    2595                      .dwpsn  file "D:/ti/motorware/motorware_1_01_00_18/sw/solutions/instaspin_foc/src/proj_lab05b.c",line
    2596 0000014a FFEF          B         $C$L21,UNC            ; [CPU_ALU] |278| 
         0000014b 017E 
    2597                      ; branch occurs ; [] |278| 
    2598 0000014c       $C$L5:    
    2599                      .dwpsn  file "D:/ti/motorware/motorware_1_01_00_18/sw/solutions/instaspin_foc/src/proj_lab05b.c",line
    2600 0000014c 0A01-         INC       @_gCounter_updateGlobals ; [CPU_ALU] |283| 
    2601                      .dwpsn  file "D:/ti/motorware/motorware_1_01_00_18/sw/modules/ctrl/src/32b/ctrl.h",line 1304,column 3
    2602 0000014d D0F5          MOVB      XAR0,#245             ; [CPU_ALU] |1304| 
    2603                      .dwpsn  file "D:/ti/motorware/motorware_1_01_00_18/sw/modules/ctrl/src/32b/ctrl.h",line 1301,column 1
    2604 0000014e 92F2          MOV       AL,*+XAR2[6]          ; [CPU_ALU] |1301| 
    2605                      .dwpsn  file "D:/ti/motorware/motorware_1_01_00_18/sw/modules/ctrl/src/32b/ctrl.h",line 1304,column 3
    2606 0000014f 9691          MOV       *+XAR1[AR0],AL        ; [CPU_ALU] |1304| 
    2607                      .dwpsn  file "D:/ti/motorware/motorware_1_01_00_18/sw/solutions/instaspin_foc/src/proj_lab05b.c",line
    2608 00000150 D018          MOVB      XAR0,#24              ; [CPU_ALU] |289| 
    2609 00000151 8A91          MOVL      XAR4,*+XAR1[AR0]      ; [CPU_ALU] |289| 
    2610 00000152 92EA          MOV       AL,*+XAR2[5]          ; [CPU_ALU] |289| 
    2611              $C$DW$303       .dwtag  DW_TAG_TI_branch
    2612                      .dwattr $C$DW$303, DW_AT_low_pc(0x00)
    2613                      .dwattr $C$DW$303, DW_AT_name("_EST_setFlag_enableRsRecalc")
    2614                      .dwattr $C$DW$303, DW_AT_TI_call
TMS320C2000 Assembler PC v18.1.2 Sun Jun 17 14:52:32 2018

Tools Copyright (c) 1996-2017 Texas Instruments Incorporated
C:\Users\haowp\AppData\Local\Temp\{81472915-7FA4-430D-8ACB-BFB8F401620C} PAGE   52

    2615              
    2616 00000153 7640!         LCR       #_EST_setFlag_enableRsRecalc ; [CPU_ALU] |289| 
         00000154 0000 
    2617                      ; call occurs [#_EST_setFlag_enableRsRecalc] ; [] |289| 
    2618 00000155 761F-         MOVW      DP,#_ctrlHandle       ; [CPU_ARAU] 
         00000156 0000 
    2619                      .dwpsn  file "D:/ti/motorware/motorware_1_01_00_18/sw/modules/ctrl/src/32b/ctrl.h",line 1272,column 1
    2620 00000157 8A06-         MOVL      XAR4,@_ctrlHandle     ; [CPU_ALU] |1272| 
    2621                      .dwpsn  file "D:/ti/motorware/motorware_1_01_00_18/sw/modules/ctrl/src/32b/ctrl.h",line 1275,column 3
    2622 00000158 D0F3          MOVB      XAR0,#243             ; [CPU_ALU] |1275| 
    2623                      .dwpsn  file "D:/ti/motorware/motorware_1_01_00_18/sw/modules/ctrl/src/32b/ctrl.h",line 1272,column 1
    2624 00000159 92FA          MOV       AL,*+XAR2[7]          ; [CPU_ALU] |1272| 
    2625                      .dwpsn  file "D:/ti/motorware/motorware_1_01_00_18/sw/modules/ctrl/src/32b/ctrl.h",line 1275,column 3
    2626 0000015a 9694          MOV       *+XAR4[AR0],AL        ; [CPU_ALU] |1275| 
    2627                      .dwpsn  file "D:/ti/motorware/motorware_1_01_00_18/sw/modules/ctrl/src/32b/ctrl.h",line 1060,column 3
    2628 0000015b 92E4          MOV       AL,*+XAR4[4]          ; [CPU_ALU] |1060| 
    2629 0000015c FFE1          B         $C$L16,EQ             ; [CPU_ALU] |1060| 
         0000015d 00DA 
    2630                      ; branchcc occurs ; [] |1060| 
    2631                      .dwpsn  file "D:/ti/motorware/motorware_1_01_00_18/sw/solutions/instaspin_foc/src/proj_lab05b.c",line
    2632              $C$DW$304       .dwtag  DW_TAG_TI_branch
    2633                      .dwattr $C$DW$304, DW_AT_low_pc(0x00)
    2634                      .dwattr $C$DW$304, DW_AT_name("_CTRL_updateState")
    2635                      .dwattr $C$DW$304, DW_AT_TI_call
    2636              
    2637 0000015e 7640!         LCR       #_CTRL_updateState    ; [CPU_ALU] |309| 
         0000015f 0000 
    2638                      ; call occurs [#_CTRL_updateState] ; [] |309| 
    2639 00000160 761F-         MOVW      DP,#_ctrlHandle       ; [CPU_ARAU] 
         00000161 0000 
    2640                      .dwpsn  file "D:/ti/motorware/motorware_1_01_00_18/sw/modules/ctrl/src/32b/ctrl.h",line 1215,column 1
    2641 00000162 8A06-         MOVL      XAR4,@_ctrlHandle     ; [CPU_ALU] |1215| 
    2642 00000163 93CA          MOV       AH,*+XAR2[1]          ; [CPU_ALU] |1215| 
    2643                      .dwpsn  file "D:/ti/motorware/motorware_1_01_00_18/sw/modules/ctrl/src/32b/ctrl.h",line 1218,column 3
    2644 00000164 D0F0          MOVB      XAR0,#240             ; [CPU_ALU] |1218| 
    2645                      .dwpsn  file "D:/ti/motorware/motorware_1_01_00_18/sw/solutions/instaspin_foc/src/proj_lab05b.c",line
    2646 00000165 5200          CMPB      AL,#0                 ; [CPU_ALU] |314| 
    2647                      .dwpsn  file "D:/ti/motorware/motorware_1_01_00_18/sw/modules/ctrl/src/32b/ctrl.h",line 1218,column 3
    2648 00000166 9794          MOV       *+XAR4[AR0],AH        ; [CPU_ALU] |1218| 
    2649                      .dwpsn  file "D:/ti/motorware/motorware_1_01_00_18/sw/solutions/instaspin_foc/src/proj_lab05b.c",line
    2650 00000167 FFE1          B         $C$L17,EQ             ; [CPU_ALU] |314| 
         00000168 00EF 
    2651                      ; branchcc occurs ; [] |314| 
    2652                      .dwpsn  file "D:/ti/motorware/motorware_1_01_00_18/sw/modules/ctrl/src/32b/ctrl.h",line 771,column 3,
    2653 00000169 2FE4          MOV       PH,*+XAR4[4]          ; [CPU_ALU] |771| 
    2654 0000016a 92AA          MOV       AL,PH                 ; [CPU_ALU] |771| 
    2655 0000016b 5202          CMPB      AL,#2                 ; [CPU_ALU] |771| 
    2656 0000016c FFE1          B         $C$L13,EQ             ; [CPU_ALU] |771| 
         0000016d 00A1 
    2657                      ; branchcc occurs ; [] |771| 
    2658                      .dwpsn  file "D:/ti/motorware/motorware_1_01_00_18/sw/solutions/instaspin_foc/src/proj_lab05b.c",line
    2659 0000016e 5203          CMPB      AL,#3                 ; [CPU_ALU] |323| 
    2660 0000016f 6120          B         $C$L6,EQ              ; [CPU_ALU] |323| 
    2661                      ; branchcc occurs ; [] |323| 
    2662                      .dwpsn  file "D:/ti/motorware/motorware_1_01_00_18/sw/solutions/instaspin_foc/src/proj_lab05b.c",line
TMS320C2000 Assembler PC v18.1.2 Sun Jun 17 14:52:32 2018

Tools Copyright (c) 1996-2017 Texas Instruments Incorporated
C:\Users\haowp\AppData\Local\Temp\{81472915-7FA4-430D-8ACB-BFB8F401620C} PAGE   53

    2663 00000170 5201          CMPB      AL,#1                 ; [CPU_ALU] |356| 
    2664 00000171 FFE0          B         $C$L15,NEQ            ; [CPU_ALU] |356| 
         00000172 00B5 
    2665                      ; branchcc occurs ; [] |356| 
    2666                      .dwpsn  file "D:/ti/motorware/motorware_1_01_00_18/sw/modules/hal/boards/boostxldrv8305_revA/f28x/f28
    2667 00000173 C404-         MOVL      XAR6,@_halHandle      ; [CPU_ALU] |239| 
    2668 00000174 83A6          MOVL      XAR5,XAR6             ; [CPU_ALU] |239| 
    2669 00000175 DD7E          ADDB      XAR5,#126             ; [CPU_ALU] |239| 
    2670 00000176 7622   EALLOW
    2671                      .dwpsn  file "D:/ti/motorware/motorware_1_01_00_18/sw/drivers/pwm/src/32b/f28x/f2802x/pwm.h",line 156
    2672 00000177 D07C          MOVB      XAR0,#124             ; [CPU_ALU] |1567| 
    2673 00000178 0218          MOVB      ACC,#24               ; [CPU_ALU] |1567| 
    2674 00000179 0796          ADDL      ACC,*+XAR6[AR0]       ; [CPU_ALU] |1567| 
    2675 0000017a 1EA6          MOVL      XAR6,ACC              ; [CPU_ALU] |1567| 
    2676 0000017b 1AC6          OR        *+XAR6[0],#0x0004     ; [CPU_ALU] |1567| 
         0000017c 0004 
    2677 0000017d 761A   EDIS
    2678 0000017e 7622   EALLOW
    2679 0000017f 0218          MOVB      ACC,#24               ; [CPU_ALU] |1567| 
    2680 00000180 07C5          ADDL      ACC,*+XAR5[0]         ; [CPU_ALU] |1567| 
    2681 00000181 1EA6          MOVL      XAR6,ACC              ; [CPU_ALU] |1567| 
    2682 00000182 1AC6          OR        *+XAR6[0],#0x0004     ; [CPU_ALU] |1567| 
         00000183 0004 
    2683 00000184 761A   EDIS
    2684 00000185 7622   EALLOW
    2685 00000186 0218          MOVB      ACC,#24               ; [CPU_ALU] |1567| 
    2686 00000187 07D5          ADDL      ACC,*+XAR5[2]         ; [CPU_ALU] |1567| 
    2687 00000188 83A9          MOVL      XAR5,ACC              ; [CPU_ALU] |1567| 
    2688 00000189 1AC5          OR        *+XAR5[0],#0x0004     ; [CPU_ALU] |1567| 
         0000018a 0004 
    2689 0000018b 761A   EDIS
    2690                      .dwpsn  file "D:/ti/motorware/motorware_1_01_00_18/sw/solutions/instaspin_foc/src/proj_lab05b.c",line
    2691 0000018c 2BCA          MOV       *+XAR2[1],#0          ; [CPU_ALU] |360| 
    2692 0000018d FFEF          B         $C$L15,UNC            ; [CPU_ALU] |360| 
         0000018e 0099 
    2693                      ; branch occurs ; [] |360| 
    2694 0000018f       $C$L6:    
    2695 0000018f 761F-         MOVW      DP,#_gMotorVars+7     ; [CPU_ARAU] 
         00000190 0003 
    2696                      .dwpsn  file "D:/ti/motorware/motorware_1_01_00_18/sw/solutions/instaspin_foc/src/proj_lab05b.c",line
    2697 00000191 9207-         MOV       AL,@_gMotorVars+7     ; [CPU_ALU] |325| 
    2698 00000192 5201          CMPB      AL,#1                 ; [CPU_ALU] |325| 
    2699 00000193 6123          B         $C$L7,EQ              ; [CPU_ALU] |325| 
    2700                      ; branchcc occurs ; [] |325| 
    2701 00000194 761F-         MOVW      DP,#_halHandle        ; [CPU_ARAU] 
         00000195 0000 
    2702                      .dwpsn  file "D:/ti/motorware/motorware_1_01_00_18/sw/modules/hal/boards/boostxldrv8305_revA/f28x/f28
    2703 00000196 C404-         MOVL      XAR6,@_halHandle      ; [CPU_ALU] |711| 
    2704                      .dwpsn  file "D:/ti/motorware/motorware_1_01_00_18/sw/modules/hal/boards/boostxldrv8305_revA/f28x/f28
    2705 00000197 D092          MOVB      XAR0,#146             ; [CPU_ALU] |717| 
    2706 00000198 28A9          MOV       AL,#62052             ; [CPU_ALU] |717| 
         00000199 F264 
    2707 0000019a 28A8          MOV       AH,#309               ; [CPU_ALU] |717| 
         0000019b 0135 
    2708                      .dwpsn  file "D:/ti/motorware/motorware_1_01_00_18/sw/modules/hal/boards/boostxldrv8305_revA/f28x/f28
TMS320C2000 Assembler PC v18.1.2 Sun Jun 17 14:52:32 2018

Tools Copyright (c) 1996-2017 Texas Instruments Incorporated
C:\Users\haowp\AppData\Local\Temp\{81472915-7FA4-430D-8ACB-BFB8F401620C} PAGE   54

    2709 0000019c 83A6          MOVL      XAR5,XAR6             ; [CPU_ALU] |711| 
    2710                      .dwpsn  file "D:/ti/motorware/motorware_1_01_00_18/sw/modules/hal/boards/boostxldrv8305_revA/f28x/f28
    2711 0000019d 1E96          MOVL      *+XAR6[AR0],ACC       ; [CPU_ALU] |717| 
    2712 0000019e D018          MOVB      XAR0,#24              ; [CPU_ALU] |717| 
    2713 0000019f 28A9          MOV       AL,#40436             ; [CPU_ALU] |717| 
         000001a0 9DF4 
    2714                      .dwpsn  file "D:/ti/motorware/motorware_1_01_00_18/sw/modules/hal/boards/boostxldrv8305_revA/f28x/f28
    2715 000001a1 DD7C          ADDB      XAR5,#124             ; [CPU_ALU] |711| 
    2716                      .dwpsn  file "D:/ti/motorware/motorware_1_01_00_18/sw/modules/hal/boards/boostxldrv8305_revA/f28x/f28
    2717 000001a2 1E95          MOVL      *+XAR5[AR0],ACC       ; [CPU_ALU] |717| 
    2718 000001a3 D01A          MOVB      XAR0,#26              ; [CPU_ALU] |717| 
    2719 000001a4 28A9          MOV       AL,#34588             ; [CPU_ALU] |717| 
         000001a5 871C 
    2720 000001a6 1E95          MOVL      *+XAR5[AR0],ACC       ; [CPU_ALU] |717| 
    2721                      .dwpsn  file "D:/ti/motorware/motorware_1_01_00_18/sw/modules/hal/boards/boostxldrv8305_revA/f28x/f28
    2722 000001a7 D01C          MOVB      XAR0,#28              ; [CPU_ALU] |721| 
    2723 000001a8 28A9          MOV       AL,#10793             ; [CPU_ALU] |721| 
         000001a9 2A29 
    2724 000001aa 9B82          MOV       AH,#130               ; [CPU_ALU] |721| 
    2725 000001ab 1E95          MOVL      *+XAR5[AR0],ACC       ; [CPU_ALU] |721| 
    2726 000001ac D01E          MOVB      XAR0,#30              ; [CPU_ALU] |721| 
    2727 000001ad 28A9          MOV       AL,#59018             ; [CPU_ALU] |721| 
         000001ae E68A 
    2728 000001af 9B81          MOV       AH,#129               ; [CPU_ALU] |721| 
    2729 000001b0 1E95          MOVL      *+XAR5[AR0],ACC       ; [CPU_ALU] |721| 
    2730 000001b1 D020          MOVB      XAR0,#32              ; [CPU_ALU] |721| 
    2731 000001b2 28A9          MOV       AL,#44414             ; [CPU_ALU] |721| 
         000001b3 AD7E 
    2732 000001b4 1E95          MOVL      *+XAR5[AR0],ACC       ; [CPU_ALU] |721| 
    2733                      .dwpsn  file "D:/ti/motorware/motorware_1_01_00_18/sw/solutions/instaspin_foc/src/proj_lab05b.c",line
    2734 000001b5 6F30          B         $C$L12,UNC            ; [CPU_ALU] |340| 
    2735                      ; branch occurs ; [] |340| 
    2736 000001b6       $C$L7:    
    2737 000001b6 761F-         MOVW      DP,#_halHandle        ; [CPU_ARAU] 
         000001b7 0000 
    2738                      .dwpsn  file "D:/ti/motorware/motorware_1_01_00_18/sw/modules/hal/boards/boostxldrv8305_revA/f28x/f28
    2739 000001b8 C404-         MOVL      XAR6,@_halHandle      ; [CPU_ALU] |991| 
    2740 000001b9 83A6          MOVL      XAR5,XAR6             ; [CPU_ALU] |991| 
    2741                      .dwpsn  file "D:/ti/motorware/motorware_1_01_00_18/sw/modules/hal/boards/boostxldrv8305_revA/f28x/f28
    2742 000001ba 2BAB          MOV       PL,#0                 ; [CPU_ALU] |998| 
    2743                      .dwpsn  file "D:/ti/motorware/motorware_1_01_00_18/sw/modules/hal/boards/boostxldrv8305_revA/f28x/f28
    2744 000001bb DD7C          ADDB      XAR5,#124             ; [CPU_ALU] |991| 
    2745 000001bc 2901          CLRC      SXM                   ; [CPU_ALU] 
    2746                      .dwpsn  file "D:/ti/motorware/motorware_1_01_00_18/sw/modules/hal/boards/boostxldrv8305_revA/f28x/f28
    2747 000001bd 6F0F          B         $C$L9,UNC             ; [CPU_ALU] |998| 
    2748                      ; branch occurs ; [] |998| 
    2749 000001be       $C$L8:    
    2750                      .dwpsn  file "D:/ti/motorware/motorware_1_01_00_18/sw/modules/hal/boards/boostxldrv8305_revA/f28x/f28
    2751 000001be 5603          MOV       ACC,AL << 1           ; [CPU_ALU] |717| 
         000001bf 01A9 
    2752 000001c0 07A6          ADDL      ACC,XAR6              ; [CPU_ALU] |717| 
    2753 000001c1 86A9          MOVL      XAR2,ACC              ; [CPU_ALU] |717| 
    2754 000001c2 D00A          MOVB      XAR0,#10              ; [CPU_ALU] |717| 
    2755 000001c3 8E92          MOVL      XAR0,*+XAR2[AR0]      ; [CPU_ALU] |717| 
    2756 000001c4 0992          ADDB      ACC,#146              ; [CPU_ALU] |717| 
TMS320C2000 Assembler PC v18.1.2 Sun Jun 17 14:52:32 2018

Tools Copyright (c) 1996-2017 Texas Instruments Incorporated
C:\Users\haowp\AppData\Local\Temp\{81472915-7FA4-430D-8ACB-BFB8F401620C} PAGE   55

    2757 000001c5 1EA7          MOVL      XAR7,ACC              ; [CPU_ALU] |717| 
    2758 000001c6 06C0          MOVL      ACC,*+XAR0[0]         ; [CPU_ALU] |717| 
    2759 000001c7 5601          ADDL      *+XAR7[0],ACC         ; [CPU_ALU] |717| 
         000001c8 00C7 
    2760 000001c9 92AB          MOV       AL,PL                 ; [CPU_ALU] |717| 
    2761                      .dwpsn  file "D:/ti/motorware/motorware_1_01_00_18/sw/modules/hal/boards/boostxldrv8305_revA/f28x/f28
    2762 000001ca 9C01          ADDB      AL,#1                 ; [CPU_ALU] |998| 
    2763 000001cb 27A9          MOV       PL,AL                 ; [CPU_ALU] |998| 
    2764 000001cc       $C$L9:    
    2765                      .dwpsn  file "D:/ti/motorware/motorware_1_01_00_18/sw/modules/hal/boards/boostxldrv8305_revA/f28x/f28
    2766 000001cc D0A4          MOVB      XAR0,#164             ; [CPU_ALU] |998| 
    2767 000001cd 92AB          MOV       AL,PL                 ; [CPU_ALU] |998| 
    2768 000001ce 5496          CMP       AL,*+XAR6[AR0]        ; [CPU_ALU] |998| 
    2769 000001cf 68EF          B         $C$L8,LO              ; [CPU_ALU] |998| 
    2770                      ; branchcc occurs ; [] |998| 
    2771                      .dwpsn  file "D:/ti/motorware/motorware_1_01_00_18/sw/modules/hal/boards/boostxldrv8305_revA/f28x/f28
    2772 000001d0 2BAB          MOV       PL,#0                 ; [CPU_ALU] |1009| 
    2773 000001d1 2901          CLRC      SXM                   ; [CPU_ALU] 
    2774 000001d2 6F0F          B         $C$L11,UNC            ; [CPU_ALU] |1009| 
    2775                      ; branch occurs ; [] |1009| 
    2776 000001d3       $C$L10:    
    2777                      .dwpsn  file "D:/ti/motorware/motorware_1_01_00_18/sw/modules/hal/boards/boostxldrv8305_revA/f28x/f28
    2778 000001d3 5603          MOV       ACC,AL << 1           ; [CPU_ALU] |721| 
         000001d4 01A9 
    2779 000001d5 07A6          ADDL      ACC,XAR6              ; [CPU_ALU] |721| 
    2780 000001d6 86A9          MOVL      XAR2,ACC              ; [CPU_ALU] |721| 
    2781 000001d7 D040          MOVB      XAR0,#64              ; [CPU_ALU] |721| 
    2782 000001d8 8E92          MOVL      XAR0,*+XAR2[AR0]      ; [CPU_ALU] |721| 
    2783 000001d9 0998          ADDB      ACC,#152              ; [CPU_ALU] |721| 
    2784 000001da 1EA7          MOVL      XAR7,ACC              ; [CPU_ALU] |721| 
    2785 000001db 06C0          MOVL      ACC,*+XAR0[0]         ; [CPU_ALU] |721| 
    2786 000001dc 5601          ADDL      *+XAR7[0],ACC         ; [CPU_ALU] |721| 
         000001dd 00C7 
    2787 000001de 92AB          MOV       AL,PL                 ; [CPU_ALU] |721| 
    2788                      .dwpsn  file "D:/ti/motorware/motorware_1_01_00_18/sw/modules/hal/boards/boostxldrv8305_revA/f28x/f28
    2789 000001df 9C01          ADDB      AL,#1                 ; [CPU_ALU] |1009| 
    2790 000001e0 27A9          MOV       PL,AL                 ; [CPU_ALU] |1009| 
    2791 000001e1       $C$L11:    
    2792                      .dwpsn  file "D:/ti/motorware/motorware_1_01_00_18/sw/modules/hal/boards/boostxldrv8305_revA/f28x/f28
    2793 000001e1 D0A5          MOVB      XAR0,#165             ; [CPU_ALU] |1009| 
    2794 000001e2 92AB          MOV       AL,PL                 ; [CPU_ALU] |1009| 
    2795 000001e3 5496          CMP       AL,*+XAR6[AR0]        ; [CPU_ALU] |1009| 
    2796 000001e4 68EF          B         $C$L10,LO             ; [CPU_ALU] |1009| 
    2797                      ; branchcc occurs ; [] |1009| 
    2798 000001e5       $C$L12:    
    2799                      .dwpsn  file "D:/ti/motorware/motorware_1_01_00_18/sw/solutions/instaspin_foc/src/proj_lab05b.c",line
    2800 000001e5 D016          MOVB      XAR0,#22              ; [CPU_ALU] |344| 
    2801 000001e6 7680-         MOVL      XAR6,#_gMotorVars+94  ; [CPU_ARAU] |344| 
         000001e7 011E 
    2802 000001e8 0695          MOVL      ACC,*+XAR5[AR0]       ; [CPU_ALU] |344| 
    2803                      .dwpsn  file "D:/ti/motorware/motorware_1_01_00_18/sw/solutions/instaspin_foc/src/proj_lab05b.c",line
    2804 000001e9 D018          MOVB      XAR0,#24              ; [CPU_ALU] |345| 
    2805                      .dwpsn  file "D:/ti/motorware/motorware_1_01_00_18/sw/solutions/instaspin_foc/src/proj_lab05b.c",line
    2806 000001ea 1EC6          MOVL      *+XAR6[0],ACC         ; [CPU_ALU] |344| 
    2807                      .dwpsn  file "D:/ti/motorware/motorware_1_01_00_18/sw/solutions/instaspin_foc/src/proj_lab05b.c",line
TMS320C2000 Assembler PC v18.1.2 Sun Jun 17 14:52:32 2018

Tools Copyright (c) 1996-2017 Texas Instruments Incorporated
C:\Users\haowp\AppData\Local\Temp\{81472915-7FA4-430D-8ACB-BFB8F401620C} PAGE   56

    2808 000001eb 0695          MOVL      ACC,*+XAR5[AR0]       ; [CPU_ALU] |345| 
    2809                      .dwpsn  file "D:/ti/motorware/motorware_1_01_00_18/sw/solutions/instaspin_foc/src/proj_lab05b.c",line
    2810 000001ec D01A          MOVB      XAR0,#26              ; [CPU_ALU] |346| 
    2811                      .dwpsn  file "D:/ti/motorware/motorware_1_01_00_18/sw/solutions/instaspin_foc/src/proj_lab05b.c",line
    2812 000001ed 1ED6          MOVL      *+XAR6[2],ACC         ; [CPU_ALU] |345| 
    2813                      .dwpsn  file "D:/ti/motorware/motorware_1_01_00_18/sw/solutions/instaspin_foc/src/proj_lab05b.c",line
    2814 000001ee 0695          MOVL      ACC,*+XAR5[AR0]       ; [CPU_ALU] |346| 
    2815                      .dwpsn  file "D:/ti/motorware/motorware_1_01_00_18/sw/solutions/instaspin_foc/src/proj_lab05b.c",line
    2816 000001ef D01C          MOVB      XAR0,#28              ; [CPU_ALU] |349| 
    2817                      .dwpsn  file "D:/ti/motorware/motorware_1_01_00_18/sw/solutions/instaspin_foc/src/proj_lab05b.c",line
    2818 000001f0 1EE6          MOVL      *+XAR6[4],ACC         ; [CPU_ALU] |346| 
    2819                      .dwpsn  file "D:/ti/motorware/motorware_1_01_00_18/sw/solutions/instaspin_foc/src/proj_lab05b.c",line
    2820 000001f1 0695          MOVL      ACC,*+XAR5[AR0]       ; [CPU_ALU] |349| 
    2821                      .dwpsn  file "D:/ti/motorware/motorware_1_01_00_18/sw/solutions/instaspin_foc/src/proj_lab05b.c",line
    2822 000001f2 D01E          MOVB      XAR0,#30              ; [CPU_ALU] |350| 
    2823                      .dwpsn  file "D:/ti/motorware/motorware_1_01_00_18/sw/solutions/instaspin_foc/src/proj_lab05b.c",line
    2824 000001f3 1EF6          MOVL      *+XAR6[6],ACC         ; [CPU_ALU] |349| 
    2825                      .dwpsn  file "D:/ti/motorware/motorware_1_01_00_18/sw/solutions/instaspin_foc/src/proj_lab05b.c",line
    2826 000001f4 0695          MOVL      ACC,*+XAR5[AR0]       ; [CPU_ALU] |350| 
    2827 000001f5 D008          MOVB      XAR0,#8               ; [CPU_ALU] |350| 
    2828 000001f6 1E96          MOVL      *+XAR6[AR0],ACC       ; [CPU_ALU] |350| 
    2829                      .dwpsn  file "D:/ti/motorware/motorware_1_01_00_18/sw/solutions/instaspin_foc/src/proj_lab05b.c",line
    2830 000001f7 D020          MOVB      XAR0,#32              ; [CPU_ALU] |351| 
    2831 000001f8 0695          MOVL      ACC,*+XAR5[AR0]       ; [CPU_ALU] |351| 
    2832 000001f9 D00A          MOVB      XAR0,#10              ; [CPU_ALU] |351| 
    2833 000001fa 1E96          MOVL      *+XAR6[AR0],ACC       ; [CPU_ALU] |351| 
    2834 000001fb 7622   EALLOW
    2835                      .dwpsn  file "D:/ti/motorware/motorware_1_01_00_18/sw/drivers/pwm/src/32b/f28x/f2802x/pwm.h",line 951
    2836 000001fc 0217          MOVB      ACC,#23               ; [CPU_ALU] |951| 
    2837 000001fd 07C5          ADDL      ACC,*+XAR5[0]         ; [CPU_ALU] |951| 
    2838 000001fe 1EA6          MOVL      XAR6,ACC              ; [CPU_ALU] |951| 
    2839 000001ff 56BF          MOVB      *+XAR6[0],#4,UNC      ; [CPU_ALU] |951| 
         00000200 04C6 
    2840 00000201 761A   EDIS
    2841 00000202 7622   EALLOW
    2842 00000203 0217          MOVB      ACC,#23               ; [CPU_ALU] |951| 
    2843 00000204 07D5          ADDL      ACC,*+XAR5[2]         ; [CPU_ALU] |951| 
    2844 00000205 1EA6          MOVL      XAR6,ACC              ; [CPU_ALU] |951| 
    2845 00000206 56BF          MOVB      *+XAR6[0],#4,UNC      ; [CPU_ALU] |951| 
         00000207 04C6 
    2846 00000208 761A   EDIS
    2847 00000209 7622   EALLOW
    2848 0000020a 0217          MOVB      ACC,#23               ; [CPU_ALU] |951| 
    2849 0000020b 07E5          ADDL      ACC,*+XAR5[4]         ; [CPU_ALU] |951| 
    2850                      .dwpsn  file "D:/ti/motorware/motorware_1_01_00_18/sw/solutions/instaspin_foc/src/proj_lab05b.c",line
    2851 0000020c 6F16          B         $C$L14,UNC            ; [CPU_ALU] |355| 
    2852                      ; branch occurs ; [] |355| 
    2853 0000020d       $C$L13:    
    2854                      .dwpsn  file "D:/ti/motorware/motorware_1_01_00_18/sw/modules/hal/boards/boostxldrv8305_revA/f28x/f28
    2855 0000020d C504-         MOVL      XAR7,@_halHandle      ; [CPU_ALU] |281| 
    2856 0000020e 83A7          MOVL      XAR5,XAR7             ; [CPU_ALU] |281| 
    2857 0000020f DD7E          ADDB      XAR5,#126             ; [CPU_ALU] |281| 
    2858 00000210 7622   EALLOW
    2859                      .dwpsn  file "D:/ti/motorware/motorware_1_01_00_18/sw/drivers/pwm/src/32b/f28x/f2802x/pwm.h",line 951
    2860 00000211 D07C          MOVB      XAR0,#124             ; [CPU_ALU] |951| 
TMS320C2000 Assembler PC v18.1.2 Sun Jun 17 14:52:32 2018

Tools Copyright (c) 1996-2017 Texas Instruments Incorporated
C:\Users\haowp\AppData\Local\Temp\{81472915-7FA4-430D-8ACB-BFB8F401620C} PAGE   57

    2861 00000212 0217          MOVB      ACC,#23               ; [CPU_ALU] |951| 
    2862 00000213 0797          ADDL      ACC,*+XAR7[AR0]       ; [CPU_ALU] |951| 
    2863 00000214 1EA6          MOVL      XAR6,ACC              ; [CPU_ALU] |951| 
    2864 00000215 56BF          MOVB      *+XAR6[0],#4,UNC      ; [CPU_ALU] |951| 
         00000216 04C6 
    2865 00000217 761A   EDIS
    2866 00000218 7622   EALLOW
    2867 00000219 0217          MOVB      ACC,#23               ; [CPU_ALU] |951| 
    2868 0000021a 07C5          ADDL      ACC,*+XAR5[0]         ; [CPU_ALU] |951| 
    2869 0000021b 1EA6          MOVL      XAR6,ACC              ; [CPU_ALU] |951| 
    2870 0000021c 56BF          MOVB      *+XAR6[0],#4,UNC      ; [CPU_ALU] |951| 
         0000021d 04C6 
    2871 0000021e 761A   EDIS
    2872 0000021f 7622   EALLOW
    2873 00000220 0217          MOVB      ACC,#23               ; [CPU_ALU] |951| 
    2874 00000221 07D5          ADDL      ACC,*+XAR5[2]         ; [CPU_ALU] |951| 
    2875 00000222       $C$L14:    
    2876 00000222 83A9          MOVL      XAR5,ACC              ; [CPU_ALU] |951| 
    2877 00000223 56BF          MOVB      *+XAR5[0],#4,UNC      ; [CPU_ALU] |951| 
         00000224 04C5 
    2878 00000225 761A   EDIS
    2879 00000226       $C$L15:    
    2880                      .dwpsn  file "D:/ti/motorware/motorware_1_01_00_18/sw/solutions/instaspin_foc/src/proj_lab05b.c",line
    2881 00000226 D0F5          MOVB      XAR0,#245             ; [CPU_ALU] |363| 
    2882 00000227 9294          MOV       AL,*+XAR4[AR0]        ; [CPU_ALU] |363| 
    2883 00000228 5201          CMPB      AL,#1                 ; [CPU_ALU] |363| 
    2884 00000229 602D          B         $C$L17,NEQ            ; [CPU_ALU] |363| 
    2885                      ; branchcc occurs ; [] |363| 
    2886 0000022a 92AA          MOV       AL,PH                 ; [CPU_ALU] 
    2887 0000022b 5201          CMPB      AL,#1                 ; [CPU_ALU] |363| 
    2888 0000022c 692A          B         $C$L17,LOS            ; [CPU_ALU] |363| 
    2889                      ; branchcc occurs ; [] |363| 
    2890 0000022d 761F-         MOVW      DP,#_gMotorVars+19    ; [CPU_ARAU] 
         0000022e 0003 
    2891 0000022f 9213-         MOV       AL,@_gMotorVars+19    ; [CPU_ALU] |363| 
    2892 00000230 5206          CMPB      AL,#6                 ; [CPU_ALU] |363| 
    2893 00000231 6025          B         $C$L17,NEQ            ; [CPU_ALU] |363| 
    2894                      ; branchcc occurs ; [] |363| 
    2895 00000232 FF69          SPM       #0                    ; [CPU_ALU] 
    2896                      .dwpsn  file "D:/ti/motorware/motorware_1_01_00_18/sw/solutions/instaspin_foc/src/proj_lab05b.c",line
    2897              $C$DW$305       .dwtag  DW_TAG_TI_branch
    2898                      .dwattr $C$DW$305, DW_AT_low_pc(0x00)
    2899                      .dwattr $C$DW$305, DW_AT_name("_USER_softwareUpdate1p6")
    2900                      .dwattr $C$DW$305, DW_AT_TI_call
    2901              
    2902 00000233 7640!         LCR       #_USER_softwareUpdate1p6 ; [CPU_ALU] |368| 
         00000234 0000 
    2903                      ; call occurs [#_USER_softwareUpdate1p6] ; [] |368| 
    2904 00000235 6F21          B         $C$L17,UNC            ; [CPU_ALU] |368| 
    2905                      ; branch occurs ; [] |368| 
    2906 00000236       $C$L16:    
    2907                      .dwpsn  file "D:/ti/motorware/motorware_1_01_00_18/sw/modules/ctrl/src/32b/ctrl.h",line 1218,column 3
    2908 00000236 D0F0          MOVB      XAR0,#240             ; [CPU_ALU] |1218| 
    2909 00000237 761F-         MOVW      DP,#_gMotorVars       ; [CPU_ARAU] 
         00000238 0003 
TMS320C2000 Assembler PC v18.1.2 Sun Jun 17 14:52:32 2018

Tools Copyright (c) 1996-2017 Texas Instruments Incorporated
C:\Users\haowp\AppData\Local\Temp\{81472915-7FA4-430D-8ACB-BFB8F401620C} PAGE   58

    2910 00000239 2B94          MOV       *+XAR4[AR0],#0        ; [CPU_ALU] |1218| 
    2911                      .dwpsn  file "D:/ti/motorware/motorware_1_01_00_18/sw/solutions/instaspin_foc/src/proj_lab05b.c",line
    2912 0000023a 2B00-         MOV       @_gMotorVars,#0       ; [CPU_ALU] |301| 
    2913 0000023b 761F-         MOVW      DP,#_halHandle        ; [CPU_ARAU] 
         0000023c 0000 
    2914                      .dwpsn  file "D:/ti/motorware/motorware_1_01_00_18/sw/modules/hal/boards/boostxldrv8305_revA/f28x/f28
    2915 0000023d 8304-         MOVL      XAR5,@_halHandle      ; [CPU_ALU] |239| 
    2916 0000023e 8AA5          MOVL      XAR4,XAR5             ; [CPU_ALU] |239| 
    2917 0000023f DC7E          ADDB      XAR4,#126             ; [CPU_ALU] |239| 
    2918 00000240 7622   EALLOW
    2919                      .dwpsn  file "D:/ti/motorware/motorware_1_01_00_18/sw/drivers/pwm/src/32b/f28x/f2802x/pwm.h",line 156
    2920 00000241 0218          MOVB      ACC,#24               ; [CPU_ALU] |1567| 
    2921 00000242 D07C          MOVB      XAR0,#124             ; [CPU_ALU] |1567| 
    2922 00000243 0795          ADDL      ACC,*+XAR5[AR0]       ; [CPU_ALU] |1567| 
    2923 00000244 83A9          MOVL      XAR5,ACC              ; [CPU_ALU] |1567| 
    2924 00000245 1AC5          OR        *+XAR5[0],#0x0004     ; [CPU_ALU] |1567| 
         00000246 0004 
    2925 00000247 761A   EDIS
    2926 00000248 7622   EALLOW
    2927 00000249 0218          MOVB      ACC,#24               ; [CPU_ALU] |1567| 
    2928 0000024a 07C4          ADDL      ACC,*+XAR4[0]         ; [CPU_ALU] |1567| 
    2929 0000024b 83A9          MOVL      XAR5,ACC              ; [CPU_ALU] |1567| 
    2930 0000024c 1AC5          OR        *+XAR5[0],#0x0004     ; [CPU_ALU] |1567| 
         0000024d 0004 
    2931 0000024e 761A   EDIS
    2932 0000024f 7622   EALLOW
    2933 00000250 0218          MOVB      ACC,#24               ; [CPU_ALU] |1567| 
    2934 00000251 07D4          ADDL      ACC,*+XAR4[2]         ; [CPU_ALU] |1567| 
    2935 00000252 8AA9          MOVL      XAR4,ACC              ; [CPU_ALU] |1567| 
    2936 00000253 1AC4          OR        *+XAR4[0],#0x0004     ; [CPU_ALU] |1567| 
         00000254 0004 
    2937 00000255 761A   EDIS
    2938 00000256       $C$L17:    
    2939                      .dwpsn  file "D:/ti/motorware/motorware_1_01_00_18/sw/solutions/instaspin_foc/src/proj_lab05b.c",line
    2940 00000256 D018          MOVB      XAR0,#24              ; [CPU_ALU] |375| 
    2941 00000257 FF69          SPM       #0                    ; [CPU_ALU] 
    2942 00000258 8A91          MOVL      XAR4,*+XAR1[AR0]      ; [CPU_ALU] |375| 
    2943              $C$DW$306       .dwtag  DW_TAG_TI_branch
    2944                      .dwattr $C$DW$306, DW_AT_low_pc(0x00)
    2945                      .dwattr $C$DW$306, DW_AT_name("_EST_isMotorIdentified")
    2946                      .dwattr $C$DW$306, DW_AT_TI_call
    2947              
    2948 00000259 7640!         LCR       #_EST_isMotorIdentified ; [CPU_ALU] |375| 
         0000025a 0000 
    2949                      ; call occurs [#_EST_isMotorIdentified] ; [] |375| 
    2950 0000025b 5200          CMPB      AL,#0                 ; [CPU_ALU] |375| 
    2951 0000025c 613A          B         $C$L18,EQ             ; [CPU_ALU] |375| 
    2952                      ; branchcc occurs ; [] |375| 
    2953                      .dwpsn  file "D:/ti/motorware/motorware_1_01_00_18/sw/solutions/instaspin_foc/src/proj_lab05b.c",line
    2954 0000025d D018          MOVB      XAR0,#24              ; [CPU_ALU] |378| 
    2955 0000025e 761F-         MOVW      DP,#_gMaxCurrentSlope ; [CPU_ARAU] 
         0000025f 0000 
    2956 00000260 8A91          MOVL      XAR4,*+XAR1[AR0]      ; [CPU_ALU] |378| 
    2957 00000261 0608-         MOVL      ACC,@_gMaxCurrentSlope ; [CPU_ALU] |378| 
    2958              $C$DW$307       .dwtag  DW_TAG_TI_branch
TMS320C2000 Assembler PC v18.1.2 Sun Jun 17 14:52:32 2018

Tools Copyright (c) 1996-2017 Texas Instruments Incorporated
C:\Users\haowp\AppData\Local\Temp\{81472915-7FA4-430D-8ACB-BFB8F401620C} PAGE   59

    2959                      .dwattr $C$DW$307, DW_AT_low_pc(0x00)
    2960                      .dwattr $C$DW$307, DW_AT_name("_EST_setMaxCurrentSlope_pu")
    2961                      .dwattr $C$DW$307, DW_AT_TI_call
    2962              
    2963 00000262 7640!         LCR       #_EST_setMaxCurrentSlope_pu ; [CPU_ALU] |378| 
         00000263 0000 
    2964                      ; call occurs [#_EST_setMaxCurrentSlope_pu] ; [] |378| 
    2965                      .dwpsn  file "D:/ti/motorware/motorware_1_01_00_18/sw/solutions/instaspin_foc/src/proj_lab05b.c",line
    2966 00000264 8D80-         MOVL      XAR2,#_gMotorVars     ; [CPU_ARAU] |379| 
         00000265 00C0 
    2967 00000266 761F-         MOVW      DP,#_ctrlHandle       ; [CPU_ARAU] 
         00000267 0000 
    2968                      .dwpsn  file "D:/ti/motorware/motorware_1_01_00_18/sw/solutions/instaspin_foc/src/proj_lab05b.c",line
    2969 00000268 D01A          MOVB      XAR0,#26              ; [CPU_ALU] |382| 
    2970                      .dwpsn  file "D:/ti/motorware/motorware_1_01_00_18/sw/solutions/instaspin_foc/src/proj_lab05b.c",line
    2971 00000269 56BF          MOVB      *+XAR2[2],#1,UNC      ; [CPU_ALU] |379| 
         0000026a 01D2 
    2972                      .dwpsn  file "D:/ti/motorware/motorware_1_01_00_18/sw/solutions/instaspin_foc/src/proj_lab05b.c",line
    2973 0000026b 8A06-         MOVL      XAR4,@_ctrlHandle     ; [CPU_ALU] |382| 
    2974 0000026c 0692          MOVL      ACC,*+XAR2[AR0]       ; [CPU_ALU] |382| 
    2975              $C$DW$308       .dwtag  DW_TAG_TI_branch
    2976                      .dwattr $C$DW$308, DW_AT_low_pc(0x00)
    2977                      .dwattr $C$DW$308, DW_AT_name("_CTRL_setSpd_ref_krpm")
    2978                      .dwattr $C$DW$308, DW_AT_TI_call
    2979              
    2980 0000026d 7640!         LCR       #_CTRL_setSpd_ref_krpm ; [CPU_ALU] |382| 
         0000026e 0000 
    2981                      ; call occurs [#_CTRL_setSpd_ref_krpm] ; [] |382| 
    2982 0000026f 761F-         MOVW      DP,#_ctrlHandle       ; [CPU_ARAU] 
         00000270 0000 
    2983                      .dwpsn  file "D:/ti/motorware/motorware_1_01_00_18/sw/modules/ctrl/src/32b/ctrl.h",line 1557,column 1
    2984 00000271 D01E          MOVB      XAR0,#30              ; [CPU_ALU] |1557| 
    2985 00000272 8F40          MOVL      XAR5,#1398            ; [CPU_ARAU] |1557| 
         00000273 0576 
    2986 00000274 A0AC          MOVL      XT,XAR5               ; [CPU_ALU] |1557| 
    2987 00000275 8A06-         MOVL      XAR4,@_ctrlHandle     ; [CPU_ALU] |1557| 
    2988 00000276 5605          IMPYL     P,XT,*+XAR2[AR0]      ; [CPU_ALU] |1557| 
         00000277 0092 
    2989 00000278 5663          QMPYL     ACC,XT,*+XAR2[AR0]    ; [CPU_ALU] |1557| 
         00000279 0092 
    2990                      .dwpsn  file "D:/ti/motorware/motorware_1_01_00_18/sw/modules/ctrl/src/32b/ctrl.h",line 1560,column 3
    2991 0000027a D076          MOVB      XAR0,#118             ; [CPU_ALU] |1560| 
    2992                      .dwpsn  file "D:/ti/motorware/motorware_1_01_00_18/sw/modules/ctrl/src/32b/ctrl.h",line 1557,column 1
    2993 0000027b 56A7          LSL64     ACC:P,#8              ; [CPU_ALU] |1557| 
    2994                      .dwpsn  file "D:/ti/motorware/motorware_1_01_00_18/sw/modules/ctrl/src/32b/ctrl.h",line 1560,column 3
    2995 0000027c 1E94          MOVL      *+XAR4[AR0],ACC       ; [CPU_ALU] |1560| 
    2996                      .dwpsn  file "D:/ti/motorware/motorware_1_01_00_18/sw/solutions/instaspin_foc/src/proj_lab05b.c",line
    2997 0000027d 9202-         MOV       AL,@_Flag_Latch_softwareUpdate ; [CPU_ALU] |386| 
    2998 0000027e 6124          B         $C$L19,EQ             ; [CPU_ALU] |386| 
    2999                      ; branchcc occurs ; [] |386| 
    3000                      .dwpsn  file "D:/ti/motorware/motorware_1_01_00_18/sw/solutions/instaspin_foc/src/proj_lab05b.c",line
    3001 0000027f 2B02-         MOV       @_Flag_Latch_softwareUpdate,#0 ; [CPU_ALU] |388| 
    3002                      .dwpsn  file "D:/ti/motorware/motorware_1_01_00_18/sw/solutions/instaspin_foc/src/proj_lab05b.c",line
    3003              $C$DW$309       .dwtag  DW_TAG_TI_branch
    3004                      .dwattr $C$DW$309, DW_AT_low_pc(0x00)
TMS320C2000 Assembler PC v18.1.2 Sun Jun 17 14:52:32 2018

Tools Copyright (c) 1996-2017 Texas Instruments Incorporated
C:\Users\haowp\AppData\Local\Temp\{81472915-7FA4-430D-8ACB-BFB8F401620C} PAGE   60

    3005                      .dwattr $C$DW$309, DW_AT_name("_USER_calcPIgains")
    3006                      .dwattr $C$DW$309, DW_AT_TI_call
    3007              
    3008 00000280 7640!         LCR       #_USER_calcPIgains    ; [CPU_ALU] |390| 
         00000281 0000 
    3009                      ; call occurs [#_USER_calcPIgains] ; [] |390| 
    3010 00000282 761F-         MOVW      DP,#_ctrlHandle       ; [CPU_ARAU] 
         00000283 0000 
    3011                      .dwpsn  file "D:/ti/motorware/motorware_1_01_00_18/sw/modules/ctrl/src/32b/ctrl.h",line 500,column 1,
    3012 00000284 8A06-         MOVL      XAR4,@_ctrlHandle     ; [CPU_ALU] |500| 
    3013                      .dwpsn  file "D:/ti/motorware/motorware_1_01_00_18/sw/solutions/instaspin_foc/src/proj_lab05b.c",line
    3014 00000285 D0CA          MOVB      XAR0,#202             ; [CPU_ALU] |393| 
    3015 00000286 0694          MOVL      ACC,*+XAR4[AR0]       ; [CPU_ALU] |393| 
    3016 00000287 D04A          MOVB      XAR0,#74              ; [CPU_ALU] |393| 
    3017 00000288 1E92          MOVL      *+XAR2[AR0],ACC       ; [CPU_ALU] |393| 
    3018                      .dwpsn  file "D:/ti/motorware/motorware_1_01_00_18/sw/solutions/instaspin_foc/src/proj_lab05b.c",line
    3019 00000289 D0D0          MOVB      XAR0,#208             ; [CPU_ALU] |394| 
    3020 0000028a 0694          MOVL      ACC,*+XAR4[AR0]       ; [CPU_ALU] |394| 
    3021 0000028b D04C          MOVB      XAR0,#76              ; [CPU_ALU] |394| 
    3022 0000028c 1E92          MOVL      *+XAR2[AR0],ACC       ; [CPU_ALU] |394| 
    3023                      .dwpsn  file "D:/ti/motorware/motorware_1_01_00_18/sw/solutions/instaspin_foc/src/proj_lab05b.c",line
    3024 0000028d D0CE          MOVB      XAR0,#206             ; [CPU_ALU] |397| 
    3025 0000028e 0694          MOVL      ACC,*+XAR4[AR0]       ; [CPU_ALU] |397| 
    3026 0000028f D046          MOVB      XAR0,#70              ; [CPU_ALU] |397| 
    3027 00000290 1E92          MOVL      *+XAR2[AR0],ACC       ; [CPU_ALU] |397| 
    3028                      .dwpsn  file "D:/ti/motorware/motorware_1_01_00_18/sw/solutions/instaspin_foc/src/proj_lab05b.c",line
    3029 00000291 D0D4          MOVB      XAR0,#212             ; [CPU_ALU] |398| 
    3030 00000292 0694          MOVL      ACC,*+XAR4[AR0]       ; [CPU_ALU] |398| 
    3031 00000293 D048          MOVB      XAR0,#72              ; [CPU_ALU] |398| 
    3032 00000294 1E92          MOVL      *+XAR2[AR0],ACC       ; [CPU_ALU] |398| 
    3033 00000295 6F0D          B         $C$L19,UNC            ; [CPU_ALU] |398| 
    3034                      ; branch occurs ; [] |398| 
    3035 00000296       $C$L18:    
    3036 00000296 761F-         MOVW      DP,#_Flag_Latch_softwareUpdate ; [CPU_ARAU] 
         00000297 0000 
    3037                      .dwpsn  file "D:/ti/motorware/motorware_1_01_00_18/sw/solutions/instaspin_foc/src/proj_lab05b.c",line
    3038 00000298 D018          MOVB      XAR0,#24              ; [CPU_ALU] |407| 
    3039                      .dwpsn  file "D:/ti/motorware/motorware_1_01_00_18/sw/solutions/instaspin_foc/src/proj_lab05b.c",line
    3040 00000299 56BF-         MOVB      @_Flag_Latch_softwareUpdate,#1,UNC ; [CPU_ALU] |404| 
         0000029a 0102 
    3041                      .dwpsn  file "D:/ti/motorware/motorware_1_01_00_18/sw/solutions/instaspin_foc/src/proj_lab05b.c",line
    3042 0000029b 8A91          MOVL      XAR4,*+XAR1[AR0]      ; [CPU_ALU] |407| 
    3043              $C$DW$310       .dwtag  DW_TAG_TI_branch
    3044                      .dwattr $C$DW$310, DW_AT_low_pc(0x00)
    3045                      .dwattr $C$DW$310, DW_AT_name("_EST_getMaxCurrentSlope_pu")
    3046                      .dwattr $C$DW$310, DW_AT_TI_call
    3047              
    3048 0000029c 7640!         LCR       #_EST_getMaxCurrentSlope_pu ; [CPU_ALU] |407| 
         0000029d 0000 
    3049                      ; call occurs [#_EST_getMaxCurrentSlope_pu] ; [] |407| 
    3050 0000029e 761F-         MOVW      DP,#_gMaxCurrentSlope ; [CPU_ARAU] 
         0000029f 0000 
    3051 000002a0 1E08-         MOVL      @_gMaxCurrentSlope,ACC ; [CPU_ALU] |407| 
    3052 000002a1 8A06-         MOVL      XAR4,@_ctrlHandle     ; [CPU_ALU] |407| 
    3053 000002a2       $C$L19:    
TMS320C2000 Assembler PC v18.1.2 Sun Jun 17 14:52:32 2018

Tools Copyright (c) 1996-2017 Texas Instruments Incorporated
C:\Users\haowp\AppData\Local\Temp\{81472915-7FA4-430D-8ACB-BFB8F401620C} PAGE   61

    3054                      .dwpsn  file "D:/ti/motorware/motorware_1_01_00_18/sw/solutions/instaspin_foc/src/proj_lab05b.c",line
    3055 000002a2 9201-         MOV       AL,@_gCounter_updateGlobals ; [CPU_ALU] |412| 
    3056 000002a3 6107          B         $C$L20,EQ             ; [CPU_ALU] |412| 
    3057                      ; branchcc occurs ; [] |412| 
    3058                      .dwpsn  file "D:/ti/motorware/motorware_1_01_00_18/sw/solutions/instaspin_foc/src/proj_lab05b.c",line
    3059 000002a4 2B01-         MOV       @_gCounter_updateGlobals,#0 ; [CPU_ALU] |415| 
    3060                      .dwpsn  file "D:/ti/motorware/motorware_1_01_00_18/sw/solutions/instaspin_foc/src/proj_lab05b.c",line
    3061              $C$DW$311       .dwtag  DW_TAG_TI_branch
    3062                      .dwattr $C$DW$311, DW_AT_low_pc(0x00)
    3063                      .dwattr $C$DW$311, DW_AT_name("_updateGlobalVariables_motor")
    3064                      .dwattr $C$DW$311, DW_AT_TI_call
    3065              
    3066 000002a5 7640'         LCR       #_updateGlobalVariables_motor ; [CPU_ALU] |417| 
         000002a6 0022 
    3067                      ; call occurs [#_updateGlobalVariables_motor] ; [] |417| 
    3068 000002a7 761F-         MOVW      DP,#_ctrlHandle       ; [CPU_ARAU] 
         000002a8 0000 
    3069 000002a9 8A06-         MOVL      XAR4,@_ctrlHandle     ; [CPU_ALU] |417| 
    3070 000002aa       $C$L20:    
    3071                      .dwpsn  file "D:/ti/motorware/motorware_1_01_00_18/sw/solutions/instaspin_foc/src/proj_lab05b.c",line
    3072              $C$DW$312       .dwtag  DW_TAG_TI_branch
    3073                      .dwattr $C$DW$312, DW_AT_low_pc(0x00)
    3074                      .dwattr $C$DW$312, DW_AT_name("_updateKpKiGains")
    3075                      .dwattr $C$DW$312, DW_AT_TI_call
    3076              
    3077 000002aa 7640'         LCR       #_updateKpKiGains     ; [CPU_ALU] |422| 
         000002ab 0000 
    3078                      ; call occurs [#_updateKpKiGains] ; [] |422| 
    3079                      .dwpsn  file "D:/ti/motorware/motorware_1_01_00_18/sw/solutions/instaspin_foc/src/proj_lab05b.c",line
    3080 000002ac D018          MOVB      XAR0,#24              ; [CPU_ALU] |425| 
    3081 000002ad 8A91          MOVL      XAR4,*+XAR1[AR0]      ; [CPU_ALU] |425| 
    3082 000002ae 8D40-         MOVL      XAR1,#_gMotorVars     ; [CPU_ARAU] |425| 
         000002af 00C0 
    3083 000002b0 92D9          MOV       AL,*+XAR1[3]          ; [CPU_ALU] |425| 
    3084              $C$DW$313       .dwtag  DW_TAG_TI_branch
    3085                      .dwattr $C$DW$313, DW_AT_low_pc(0x00)
    3086                      .dwattr $C$DW$313, DW_AT_name("_EST_setFlag_enableForceAngle")
    3087                      .dwattr $C$DW$313, DW_AT_TI_call
    3088              
    3089 000002b1 7640!         LCR       #_EST_setFlag_enableForceAngle ; [CPU_ALU] |425| 
         000002b2 0000 
    3090                      ; call occurs [#_EST_setFlag_enableForceAngle] ; [] |425| 
    3091                      .dwpsn  file "D:/ti/motorware/motorware_1_01_00_18/sw/modules/ctrl/src/32b/ctrl.h",line 1259,column 1
    3092 000002b3 D008          MOVB      XAR0,#8               ; [CPU_ALU] |1259| 
    3093 000002b4 761F-         MOVW      DP,#_ctrlHandle       ; [CPU_ARAU] 
         000002b5 0000 
    3094                      .dwpsn  file "D:/ti/motorware/motorware_1_01_00_18/sw/modules/ctrl/src/32b/ctrl.h",line 1262,column 3
    3095 000002b6 02F2          MOVB      ACC,#242              ; [CPU_ALU] |1262| 
    3096                      .dwpsn  file "D:/ti/motorware/motorware_1_01_00_18/sw/modules/ctrl/src/32b/ctrl.h",line 1259,column 1
    3097 000002b7 8891          MOVZ      AR6,*+XAR1[AR0]       ; [CPU_ALU] |1259| 
    3098                      .dwpsn  file "D:/ti/motorware/motorware_1_01_00_18/sw/modules/ctrl/src/32b/ctrl.h",line 1262,column 3
    3099 000002b8 0706-         ADDL      ACC,@_ctrlHandle      ; [CPU_ALU] |1262| 
    3100 000002b9 8AA9          MOVL      XAR4,ACC              ; [CPU_ALU] |1262| 
    3101                      .dwpsn  file "D:/ti/motorware/motorware_1_01_00_18/sw/solutions/instaspin_foc/src/proj_lab05b.c",line
    3102 000002ba 83A3          MOVL      XAR5,XAR3             ; [CPU_ALU] |436| 
TMS320C2000 Assembler PC v18.1.2 Sun Jun 17 14:52:32 2018

Tools Copyright (c) 1996-2017 Texas Instruments Incorporated
C:\Users\haowp\AppData\Local\Temp\{81472915-7FA4-430D-8ACB-BFB8F401620C} PAGE   62

    3103                      .dwpsn  file "D:/ti/motorware/motorware_1_01_00_18/sw/modules/ctrl/src/32b/ctrl.h",line 1262,column 3
    3104 000002bb 7EC4          MOV       *+XAR4[0],AR6         ; [CPU_ALU] |1262| 
    3105                      .dwpsn  file "D:/ti/motorware/motorware_1_01_00_18/sw/solutions/instaspin_foc/src/proj_lab05b.c",line
    3106 000002bc 8A04-         MOVL      XAR4,@_halHandle      ; [CPU_ALU] |436| 
    3107              $C$DW$314       .dwtag  DW_TAG_TI_branch
    3108                      .dwattr $C$DW$314, DW_AT_low_pc(0x00)
    3109                      .dwattr $C$DW$314, DW_AT_name("_HAL_writeDrvData")
    3110                      .dwattr $C$DW$314, DW_AT_TI_call
    3111              
    3112 000002bd 7640!         LCR       #_HAL_writeDrvData    ; [CPU_ALU] |436| 
         000002be 0000 
    3113                      ; call occurs [#_HAL_writeDrvData] ; [] |436| 
    3114 000002bf 761F-         MOVW      DP,#_halHandle        ; [CPU_ARAU] 
         000002c0 0000 
    3115                      .dwpsn  file "D:/ti/motorware/motorware_1_01_00_18/sw/solutions/instaspin_foc/src/proj_lab05b.c",line
    3116 000002c1 83A3          MOVL      XAR5,XAR3             ; [CPU_ALU] |438| 
    3117 000002c2 8A04-         MOVL      XAR4,@_halHandle      ; [CPU_ALU] |438| 
    3118              $C$DW$315       .dwtag  DW_TAG_TI_branch
    3119                      .dwattr $C$DW$315, DW_AT_low_pc(0x00)
    3120                      .dwattr $C$DW$315, DW_AT_name("_HAL_readDrvData")
    3121                      .dwattr $C$DW$315, DW_AT_TI_call
    3122              
    3123 000002c3 7640!         LCR       #_HAL_readDrvData     ; [CPU_ALU] |438| 
         000002c4 0000 
    3124                      ; call occurs [#_HAL_readDrvData] ; [] |438| 
    3125 000002c5 761F-         MOVW      DP,#_ctrlHandle       ; [CPU_ARAU] 
         000002c6 0000 
    3126 000002c7 8B06-         MOVL      XAR1,@_ctrlHandle     ; [CPU_ALU] |438| 
    3127 000002c8       $C$L21:    
    3128                      .dwpsn  file "D:/ti/motorware/motorware_1_01_00_18/sw/solutions/instaspin_foc/src/proj_lab05b.c",line
    3129 000002c8 8D80-         MOVL      XAR2,#_gMotorVars     ; [CPU_ARAU] |278| 
         000002c9 00C0 
    3130 000002ca 92C2          MOV       AL,*+XAR2[0]          ; [CPU_ALU] |278| 
    3131 000002cb FFE0          B         $C$L5,NEQ             ; [CPU_ALU] |278| 
         000002cc FE81 
    3132                      ; branchcc occurs ; [] |278| 
    3133                      .dwpsn  file "D:/ti/motorware/motorware_1_01_00_18/sw/modules/hal/boards/boostxldrv8305_revA/f28x/f28
    3134 000002cd 8304-         MOVL      XAR5,@_halHandle      ; [CPU_ALU] |239| 
    3135 000002ce 8AA5          MOVL      XAR4,XAR5             ; [CPU_ALU] |239| 
    3136 000002cf DC7E          ADDB      XAR4,#126             ; [CPU_ALU] |239| 
    3137 000002d0 7622   EALLOW
    3138                      .dwpsn  file "D:/ti/motorware/motorware_1_01_00_18/sw/drivers/pwm/src/32b/f28x/f2802x/pwm.h",line 156
    3139 000002d1 D07C          MOVB      XAR0,#124             ; [CPU_ALU] |1567| 
    3140 000002d2 0218          MOVB      ACC,#24               ; [CPU_ALU] |1567| 
    3141 000002d3 0795          ADDL      ACC,*+XAR5[AR0]       ; [CPU_ALU] |1567| 
    3142 000002d4 83A9          MOVL      XAR5,ACC              ; [CPU_ALU] |1567| 
    3143 000002d5 1AC5          OR        *+XAR5[0],#0x0004     ; [CPU_ALU] |1567| 
         000002d6 0004 
    3144 000002d7 761A   EDIS
    3145 000002d8 7622   EALLOW
    3146 000002d9 0218          MOVB      ACC,#24               ; [CPU_ALU] |1567| 
    3147 000002da 07C4          ADDL      ACC,*+XAR4[0]         ; [CPU_ALU] |1567| 
    3148 000002db 83A9          MOVL      XAR5,ACC              ; [CPU_ALU] |1567| 
    3149 000002dc 1AC5          OR        *+XAR5[0],#0x0004     ; [CPU_ALU] |1567| 
         000002dd 0004 
TMS320C2000 Assembler PC v18.1.2 Sun Jun 17 14:52:32 2018

Tools Copyright (c) 1996-2017 Texas Instruments Incorporated
C:\Users\haowp\AppData\Local\Temp\{81472915-7FA4-430D-8ACB-BFB8F401620C} PAGE   63

    3150 000002de 761A   EDIS
    3151 000002df 7622   EALLOW
    3152 000002e0 0218          MOVB      ACC,#24               ; [CPU_ALU] |1567| 
    3153 000002e1 07D4          ADDL      ACC,*+XAR4[2]         ; [CPU_ALU] |1567| 
    3154 000002e2 8AA9          MOVL      XAR4,ACC              ; [CPU_ALU] |1567| 
    3155 000002e3 1AC4          OR        *+XAR4[0],#0x0004     ; [CPU_ALU] |1567| 
         000002e4 0004 
    3156 000002e5 761A   EDIS
    3157 000002e6 FF69          SPM       #0                    ; [CPU_ALU] 
    3158                      .dwpsn  file "D:/ti/motorware/motorware_1_01_00_18/sw/solutions/instaspin_foc/src/proj_lab05b.c",line
    3159 000002e7 8AA1          MOVL      XAR4,XAR1             ; [CPU_ALU] |447| 
    3160 000002e8 8348          MOVL      XAR5,*-SP[8]          ; [CPU_ALU] |447| 
    3161              $C$DW$316       .dwtag  DW_TAG_TI_branch
    3162                      .dwattr $C$DW$316, DW_AT_low_pc(0x00)
    3163                      .dwattr $C$DW$316, DW_AT_name("_CTRL_setParams")
    3164                      .dwattr $C$DW$316, DW_AT_TI_call
    3165              
    3166 000002e9 7640!         LCR       #_CTRL_setParams      ; [CPU_ALU] |447| 
         000002ea 0000 
    3167                      ; call occurs [#_CTRL_setParams] ; [] |447| 
    3168 000002eb 761F-         MOVW      DP,#_gMotorVars+1     ; [CPU_ARAU] 
         000002ec 0003 
    3169                      .dwpsn  file "D:/ti/motorware/motorware_1_01_00_18/sw/solutions/instaspin_foc/src/proj_lab05b.c",line
    3170 000002ed 2B01-         MOV       @_gMotorVars+1,#0     ; [CPU_ALU] |448| 
    3171                      .dwpsn  file "D:/ti/motorware/motorware_1_01_00_18/sw/solutions/instaspin_foc/src/proj_lab05b.c",line
    3172 000002ee FFEF          B         $C$L4,UNC             ; [CPU_ALU] |450| 
         000002ef FE52 
    3173                      ; branch occurs ; [] |450| 
    3174 000002f0       $C$L22:    
    3175 000002f0 761F-         MOVW      DP,#_gMotorVars       ; [CPU_ARAU] 
         000002f1 0003 
    3176                      .dwpsn  file "D:/ti/motorware/motorware_1_01_00_18/sw/solutions/instaspin_foc/src/proj_lab05b.c",line
    3177 000002f2 2B00-         MOV       @_gMotorVars,#0       ; [CPU_ALU] |183| 
    3178                      .dwpsn  file "D:/ti/motorware/motorware_1_01_00_18/sw/solutions/instaspin_foc/src/proj_lab05b.c",line
    3179 000002f3 6FFD          B         $C$L22,UNC            ; [CPU_ALU] |184| 
    3180                      ; branch occurs ; [] |184| 
    3181                      .dwattr $C$DW$266, DW_AT_TI_end_file("D:/ti/motorware/motorware_1_01_00_18/sw/solutions/instaspin_foc
    3182                      .dwattr $C$DW$266, DW_AT_TI_end_line(0x1c4)
    3183                      .dwattr $C$DW$266, DW_AT_TI_end_column(0x01)
    3184                      .dwendentry
    3185                      .dwendtag $C$DW$266
    3186              
    3187              ;**************************************************************
    3188              ;* UNDEFINED EXTERNAL REFERENCES                              *
    3189              ;**************************************************************
    3190                      .global _CTRL_run
    3191                      .global _HAL_readDrvData
    3192                      .global _USER_calcPIgains
    3193                      .global _CTRL_setSpd_ref_krpm
    3194                      .global _HAL_writeDrvData
    3195                      .global _EST_setFlag_enableForceAngle
    3196                      .global _CTRL_getVersion
    3197                      .global _CTRL_setParams
    3198                      .global _HAL_setParams
    3199                      .global _HAL_enableDrv
TMS320C2000 Assembler PC v18.1.2 Sun Jun 17 14:52:32 2018

Tools Copyright (c) 1996-2017 Texas Instruments Incorporated
C:\Users\haowp\AppData\Local\Temp\{81472915-7FA4-430D-8ACB-BFB8F401620C} PAGE   64

    3200                      .global _HAL_enableGlobalInts
    3201                      .global _HAL_enableDebugInt
    3202                      .global _HAL_setupFaults
    3203                      .global _HAL_enableAdcInts
    3204                      .global _EST_setFlag_enableRsRecalc
    3205                      .global _GPIO_toggle
    3206                      .global _EST_setMaxCurrentSlope_pu
    3207                      .global _USER_softwareUpdate1p6
    3208                      .global _USER_checkForErrors
    3209                      .global _USER_setParams
    3210                      .global _memCopy
    3211                      .global _CTRL_setup
    3212                      .global _HAL_setupDrvSpi
    3213                      .global _USER_getErrorCode
    3214                      .global _CTRL_updateState
    3215                      .global _EST_getState
    3216                      .global _EST_isMotorIdentified
    3217                      .global _EST_getRs_Ohm
    3218                      .global _EST_get_pu_to_krpm_sf
    3219                      .global _EST_getLs_d_H
    3220                      .global _USER_computeFlux_pu_to_Wb_sf
    3221                      .global _USER_computeTorque_Nm
    3222                      .global _USER_computeTorque_Ls_Id_Iq_pu_to_Nm_sf
    3223                      .global _USER_computeFlux_pu_to_VpHz_sf
    3224                      .global _EST_getMaxCurrentSlope_pu
    3225                      .global _EST_getSpeed_krpm
    3226                      .global _EST_getIdRated
    3227                      .global _EST_getRr_Ohm
    3228                      .global _USER_computeTorque_Flux_Iq_pu_to_Nm_sf
    3229                      .global _USER_computeFlux
    3230                      .global _EST_getFlux_VpHz
    3231                      .global _HAL_init
    3232                      .global _CTRL_initCtrl
    3233                      .global _RamfuncsLoadStart
    3234                      .global _EST_getLs_q_H
    3235                      .global _RamfuncsRunStart
    3236                      .global _RamfuncsLoadEnd
    3237                      .global _hal
    3238              
    3239              ;***************************************************************
    3240              ;* TYPE INFORMATION                                            *
    3241              ;***************************************************************
    3242              
    3243              $C$DW$T$38      .dwtag  DW_TAG_enumeration_type
    3244                      .dwattr $C$DW$T$38, DW_AT_byte_size(0x01)
    3245              $C$DW$317       .dwtag  DW_TAG_enumerator
    3246                      .dwattr $C$DW$317, DW_AT_name("CTRL_State_Error")
    3247                      .dwattr $C$DW$317, DW_AT_const_value(0x00)
    3248              
    3249              $C$DW$318       .dwtag  DW_TAG_enumerator
    3250                      .dwattr $C$DW$318, DW_AT_name("CTRL_State_Idle")
    3251                      .dwattr $C$DW$318, DW_AT_const_value(0x01)
    3252              
    3253              $C$DW$319       .dwtag  DW_TAG_enumerator
    3254                      .dwattr $C$DW$319, DW_AT_name("CTRL_State_OffLine")
TMS320C2000 Assembler PC v18.1.2 Sun Jun 17 14:52:32 2018

Tools Copyright (c) 1996-2017 Texas Instruments Incorporated
C:\Users\haowp\AppData\Local\Temp\{81472915-7FA4-430D-8ACB-BFB8F401620C} PAGE   65

    3255                      .dwattr $C$DW$319, DW_AT_const_value(0x02)
    3256              
    3257              $C$DW$320       .dwtag  DW_TAG_enumerator
    3258                      .dwattr $C$DW$320, DW_AT_name("CTRL_State_OnLine")
    3259                      .dwattr $C$DW$320, DW_AT_const_value(0x03)
    3260              
    3261              $C$DW$321       .dwtag  DW_TAG_enumerator
    3262                      .dwattr $C$DW$321, DW_AT_name("CTRL_numStates")
    3263                      .dwattr $C$DW$321, DW_AT_const_value(0x04)
    3264              
    3265                      .dwendtag $C$DW$T$38
    3266              
    3267              $C$DW$T$39      .dwtag  DW_TAG_typedef
    3268                      .dwattr $C$DW$T$39, DW_AT_name("CTRL_State_e")
    3269                      .dwattr $C$DW$T$39, DW_AT_type(*$C$DW$T$38)
    3270                      .dwattr $C$DW$T$39, DW_AT_language(DW_LANG_C)
    3271              
    3272              
    3273              $C$DW$T$40      .dwtag  DW_TAG_enumeration_type
    3274                      .dwattr $C$DW$T$40, DW_AT_byte_size(0x01)
    3275              $C$DW$322       .dwtag  DW_TAG_enumerator
    3276                      .dwattr $C$DW$322, DW_AT_name("CTRL_ErrorCode_NoError")
    3277                      .dwattr $C$DW$322, DW_AT_const_value(0x00)
    3278              
    3279              $C$DW$323       .dwtag  DW_TAG_enumerator
    3280                      .dwattr $C$DW$323, DW_AT_name("CTRL_ErrorCode_IdClip")
    3281                      .dwattr $C$DW$323, DW_AT_const_value(0x01)
    3282              
    3283              $C$DW$324       .dwtag  DW_TAG_enumerator
    3284                      .dwattr $C$DW$324, DW_AT_name("CTRL_ErrorCode_EstError")
    3285                      .dwattr $C$DW$324, DW_AT_const_value(0x02)
    3286              
    3287              $C$DW$325       .dwtag  DW_TAG_enumerator
    3288                      .dwattr $C$DW$325, DW_AT_name("CTRL_numErrorCodes")
    3289                      .dwattr $C$DW$325, DW_AT_const_value(0x03)
    3290              
    3291                      .dwendtag $C$DW$T$40
    3292              
    3293              $C$DW$T$41      .dwtag  DW_TAG_typedef
    3294                      .dwattr $C$DW$T$41, DW_AT_name("CTRL_ErrorCode_e")
    3295                      .dwattr $C$DW$T$41, DW_AT_type(*$C$DW$T$40)
    3296                      .dwattr $C$DW$T$41, DW_AT_language(DW_LANG_C)
    3297              
    3298              
    3299              $C$DW$T$71      .dwtag  DW_TAG_enumeration_type
    3300                      .dwattr $C$DW$T$71, DW_AT_byte_size(0x01)
    3301              $C$DW$326       .dwtag  DW_TAG_enumerator
    3302                      .dwattr $C$DW$326, DW_AT_name("CTRL_TargetProc_2806x")
    3303                      .dwattr $C$DW$326, DW_AT_const_value(0x00)
    3304              
    3305              $C$DW$327       .dwtag  DW_TAG_enumerator
    3306                      .dwattr $C$DW$327, DW_AT_name("CTRL_TargetProc_2805x")
    3307                      .dwattr $C$DW$327, DW_AT_const_value(0x01)
    3308              
    3309              $C$DW$328       .dwtag  DW_TAG_enumerator
TMS320C2000 Assembler PC v18.1.2 Sun Jun 17 14:52:32 2018

Tools Copyright (c) 1996-2017 Texas Instruments Incorporated
C:\Users\haowp\AppData\Local\Temp\{81472915-7FA4-430D-8ACB-BFB8F401620C} PAGE   66

    3310                      .dwattr $C$DW$328, DW_AT_name("CTRL_TargetProc_2803x")
    3311                      .dwattr $C$DW$328, DW_AT_const_value(0x02)
    3312              
    3313              $C$DW$329       .dwtag  DW_TAG_enumerator
    3314                      .dwattr $C$DW$329, DW_AT_name("CTRL_TargetProc_2802x")
    3315                      .dwattr $C$DW$329, DW_AT_const_value(0x03)
    3316              
    3317              $C$DW$330       .dwtag  DW_TAG_enumerator
    3318                      .dwattr $C$DW$330, DW_AT_name("CTRL_TargetProc_Unknown")
    3319                      .dwattr $C$DW$330, DW_AT_const_value(0x04)
    3320              
    3321                      .dwendtag $C$DW$T$71
    3322              
    3323              $C$DW$T$72      .dwtag  DW_TAG_typedef
    3324                      .dwattr $C$DW$T$72, DW_AT_name("CTRL_TargetProc_e")
    3325                      .dwattr $C$DW$T$72, DW_AT_type(*$C$DW$T$71)
    3326                      .dwattr $C$DW$T$72, DW_AT_language(DW_LANG_C)
    3327              
    3328              
    3329              $C$DW$T$78      .dwtag  DW_TAG_enumeration_type
    3330                      .dwattr $C$DW$T$78, DW_AT_byte_size(0x01)
    3331              $C$DW$331       .dwtag  DW_TAG_enumerator
    3332                      .dwattr $C$DW$331, DW_AT_name("GPIO_Number_0")
    3333                      .dwattr $C$DW$331, DW_AT_const_value(0x00)
    3334              
    3335              $C$DW$332       .dwtag  DW_TAG_enumerator
    3336                      .dwattr $C$DW$332, DW_AT_name("GPIO_Number_1")
    3337                      .dwattr $C$DW$332, DW_AT_const_value(0x01)
    3338              
    3339              $C$DW$333       .dwtag  DW_TAG_enumerator
    3340                      .dwattr $C$DW$333, DW_AT_name("GPIO_Number_2")
    3341                      .dwattr $C$DW$333, DW_AT_const_value(0x02)
    3342              
    3343              $C$DW$334       .dwtag  DW_TAG_enumerator
    3344                      .dwattr $C$DW$334, DW_AT_name("GPIO_Number_3")
    3345                      .dwattr $C$DW$334, DW_AT_const_value(0x03)
    3346              
    3347              $C$DW$335       .dwtag  DW_TAG_enumerator
    3348                      .dwattr $C$DW$335, DW_AT_name("GPIO_Number_4")
    3349                      .dwattr $C$DW$335, DW_AT_const_value(0x04)
    3350              
    3351              $C$DW$336       .dwtag  DW_TAG_enumerator
    3352                      .dwattr $C$DW$336, DW_AT_name("GPIO_Number_5")
    3353                      .dwattr $C$DW$336, DW_AT_const_value(0x05)
    3354              
    3355              $C$DW$337       .dwtag  DW_TAG_enumerator
    3356                      .dwattr $C$DW$337, DW_AT_name("GPIO_Number_6")
    3357                      .dwattr $C$DW$337, DW_AT_const_value(0x06)
    3358              
    3359              $C$DW$338       .dwtag  DW_TAG_enumerator
    3360                      .dwattr $C$DW$338, DW_AT_name("GPIO_Number_7")
    3361                      .dwattr $C$DW$338, DW_AT_const_value(0x07)
    3362              
    3363              $C$DW$339       .dwtag  DW_TAG_enumerator
    3364                      .dwattr $C$DW$339, DW_AT_name("GPIO_Rsvd_8")
TMS320C2000 Assembler PC v18.1.2 Sun Jun 17 14:52:32 2018

Tools Copyright (c) 1996-2017 Texas Instruments Incorporated
C:\Users\haowp\AppData\Local\Temp\{81472915-7FA4-430D-8ACB-BFB8F401620C} PAGE   67

    3365                      .dwattr $C$DW$339, DW_AT_const_value(0x08)
    3366              
    3367              $C$DW$340       .dwtag  DW_TAG_enumerator
    3368                      .dwattr $C$DW$340, DW_AT_name("GPIO_Rsvd_9")
    3369                      .dwattr $C$DW$340, DW_AT_const_value(0x09)
    3370              
    3371              $C$DW$341       .dwtag  DW_TAG_enumerator
    3372                      .dwattr $C$DW$341, DW_AT_name("GPIO_Rsvd_10")
    3373                      .dwattr $C$DW$341, DW_AT_const_value(0x0a)
    3374              
    3375              $C$DW$342       .dwtag  DW_TAG_enumerator
    3376                      .dwattr $C$DW$342, DW_AT_name("GPIO_Rsvd_11")
    3377                      .dwattr $C$DW$342, DW_AT_const_value(0x0b)
    3378              
    3379              $C$DW$343       .dwtag  DW_TAG_enumerator
    3380                      .dwattr $C$DW$343, DW_AT_name("GPIO_Number_12")
    3381                      .dwattr $C$DW$343, DW_AT_const_value(0x0c)
    3382              
    3383              $C$DW$344       .dwtag  DW_TAG_enumerator
    3384                      .dwattr $C$DW$344, DW_AT_name("GPIO_Rsvd_13")
    3385                      .dwattr $C$DW$344, DW_AT_const_value(0x0d)
    3386              
    3387              $C$DW$345       .dwtag  DW_TAG_enumerator
    3388                      .dwattr $C$DW$345, DW_AT_name("GPIO_Rsvd_14")
    3389                      .dwattr $C$DW$345, DW_AT_const_value(0x0e)
    3390              
    3391              $C$DW$346       .dwtag  DW_TAG_enumerator
    3392                      .dwattr $C$DW$346, DW_AT_name("GPIO_Rsvd_15")
    3393                      .dwattr $C$DW$346, DW_AT_const_value(0x0f)
    3394              
    3395              $C$DW$347       .dwtag  DW_TAG_enumerator
    3396                      .dwattr $C$DW$347, DW_AT_name("GPIO_Number_16")
    3397                      .dwattr $C$DW$347, DW_AT_const_value(0x10)
    3398              
    3399              $C$DW$348       .dwtag  DW_TAG_enumerator
    3400                      .dwattr $C$DW$348, DW_AT_name("GPIO_Number_17")
    3401                      .dwattr $C$DW$348, DW_AT_const_value(0x11)
    3402              
    3403              $C$DW$349       .dwtag  DW_TAG_enumerator
    3404                      .dwattr $C$DW$349, DW_AT_name("GPIO_Number_18")
    3405                      .dwattr $C$DW$349, DW_AT_const_value(0x12)
    3406              
    3407              $C$DW$350       .dwtag  DW_TAG_enumerator
    3408                      .dwattr $C$DW$350, DW_AT_name("GPIO_Number_19")
    3409                      .dwattr $C$DW$350, DW_AT_const_value(0x13)
    3410              
    3411              $C$DW$351       .dwtag  DW_TAG_enumerator
    3412                      .dwattr $C$DW$351, DW_AT_name("GPIO_Rsvd_20")
    3413                      .dwattr $C$DW$351, DW_AT_const_value(0x14)
    3414              
    3415              $C$DW$352       .dwtag  DW_TAG_enumerator
    3416                      .dwattr $C$DW$352, DW_AT_name("GPIO_Rsvd_21")
    3417                      .dwattr $C$DW$352, DW_AT_const_value(0x15)
    3418              
    3419              $C$DW$353       .dwtag  DW_TAG_enumerator
TMS320C2000 Assembler PC v18.1.2 Sun Jun 17 14:52:32 2018

Tools Copyright (c) 1996-2017 Texas Instruments Incorporated
C:\Users\haowp\AppData\Local\Temp\{81472915-7FA4-430D-8ACB-BFB8F401620C} PAGE   68

    3420                      .dwattr $C$DW$353, DW_AT_name("GPIO_Rsvd_22")
    3421                      .dwattr $C$DW$353, DW_AT_const_value(0x16)
    3422              
    3423              $C$DW$354       .dwtag  DW_TAG_enumerator
    3424                      .dwattr $C$DW$354, DW_AT_name("GPIO_Rsvd_23")
    3425                      .dwattr $C$DW$354, DW_AT_const_value(0x17)
    3426              
    3427              $C$DW$355       .dwtag  DW_TAG_enumerator
    3428                      .dwattr $C$DW$355, DW_AT_name("GPIO_Rsvd_24")
    3429                      .dwattr $C$DW$355, DW_AT_const_value(0x18)
    3430              
    3431              $C$DW$356       .dwtag  DW_TAG_enumerator
    3432                      .dwattr $C$DW$356, DW_AT_name("GPIO_Rsvd_25")
    3433                      .dwattr $C$DW$356, DW_AT_const_value(0x19)
    3434              
    3435              $C$DW$357       .dwtag  DW_TAG_enumerator
    3436                      .dwattr $C$DW$357, DW_AT_name("GPIO_Rsvd_26")
    3437                      .dwattr $C$DW$357, DW_AT_const_value(0x1a)
    3438              
    3439              $C$DW$358       .dwtag  DW_TAG_enumerator
    3440                      .dwattr $C$DW$358, DW_AT_name("GPIO_Rsvd_27")
    3441                      .dwattr $C$DW$358, DW_AT_const_value(0x1b)
    3442              
    3443              $C$DW$359       .dwtag  DW_TAG_enumerator
    3444                      .dwattr $C$DW$359, DW_AT_name("GPIO_Number_28")
    3445                      .dwattr $C$DW$359, DW_AT_const_value(0x1c)
    3446              
    3447              $C$DW$360       .dwtag  DW_TAG_enumerator
    3448                      .dwattr $C$DW$360, DW_AT_name("GPIO_Number_29")
    3449                      .dwattr $C$DW$360, DW_AT_const_value(0x1d)
    3450              
    3451              $C$DW$361       .dwtag  DW_TAG_enumerator
    3452                      .dwattr $C$DW$361, DW_AT_name("GPIO_Rsvd_30")
    3453                      .dwattr $C$DW$361, DW_AT_const_value(0x1e)
    3454              
    3455              $C$DW$362       .dwtag  DW_TAG_enumerator
    3456                      .dwattr $C$DW$362, DW_AT_name("GPIO_Rsvd_31")
    3457                      .dwattr $C$DW$362, DW_AT_const_value(0x1f)
    3458              
    3459              $C$DW$363       .dwtag  DW_TAG_enumerator
    3460                      .dwattr $C$DW$363, DW_AT_name("GPIO_Number_32")
    3461                      .dwattr $C$DW$363, DW_AT_const_value(0x20)
    3462              
    3463              $C$DW$364       .dwtag  DW_TAG_enumerator
    3464                      .dwattr $C$DW$364, DW_AT_name("GPIO_Number_33")
    3465                      .dwattr $C$DW$364, DW_AT_const_value(0x21)
    3466              
    3467              $C$DW$365       .dwtag  DW_TAG_enumerator
    3468                      .dwattr $C$DW$365, DW_AT_name("GPIO_Number_34")
    3469                      .dwattr $C$DW$365, DW_AT_const_value(0x22)
    3470              
    3471              $C$DW$366       .dwtag  DW_TAG_enumerator
    3472                      .dwattr $C$DW$366, DW_AT_name("GPIO_Number_35")
    3473                      .dwattr $C$DW$366, DW_AT_const_value(0x23)
    3474              
TMS320C2000 Assembler PC v18.1.2 Sun Jun 17 14:52:32 2018

Tools Copyright (c) 1996-2017 Texas Instruments Incorporated
C:\Users\haowp\AppData\Local\Temp\{81472915-7FA4-430D-8ACB-BFB8F401620C} PAGE   69

    3475              $C$DW$367       .dwtag  DW_TAG_enumerator
    3476                      .dwattr $C$DW$367, DW_AT_name("GPIO_Number_36")
    3477                      .dwattr $C$DW$367, DW_AT_const_value(0x24)
    3478              
    3479              $C$DW$368       .dwtag  DW_TAG_enumerator
    3480                      .dwattr $C$DW$368, DW_AT_name("GPIO_Number_37")
    3481                      .dwattr $C$DW$368, DW_AT_const_value(0x25)
    3482              
    3483              $C$DW$369       .dwtag  DW_TAG_enumerator
    3484                      .dwattr $C$DW$369, DW_AT_name("GPIO_Number_38")
    3485                      .dwattr $C$DW$369, DW_AT_const_value(0x26)
    3486              
    3487              $C$DW$370       .dwtag  DW_TAG_enumerator
    3488                      .dwattr $C$DW$370, DW_AT_name("GPIO_numGpios")
    3489                      .dwattr $C$DW$370, DW_AT_const_value(0x27)
    3490              
    3491                      .dwendtag $C$DW$T$78
    3492              
    3493              $C$DW$T$79      .dwtag  DW_TAG_typedef
    3494                      .dwattr $C$DW$T$79, DW_AT_name("GPIO_Number_e")
    3495                      .dwattr $C$DW$T$79, DW_AT_type(*$C$DW$T$78)
    3496                      .dwattr $C$DW$T$79, DW_AT_language(DW_LANG_C)
    3497              
    3498              $C$DW$371       .dwtag  DW_TAG_TI_far_type
    3499                      .dwattr $C$DW$371, DW_AT_type(*$C$DW$T$79)
    3500              
    3501              $C$DW$T$239     .dwtag  DW_TAG_const_type
    3502                      .dwattr $C$DW$T$239, DW_AT_type(*$C$DW$371)
    3503              
    3504              
    3505              $C$DW$T$81      .dwtag  DW_TAG_enumeration_type
    3506                      .dwattr $C$DW$T$81, DW_AT_byte_size(0x01)
    3507              $C$DW$372       .dwtag  DW_TAG_enumerator
    3508                      .dwattr $C$DW$372, DW_AT_name("ISour_HS_0p010_A")
    3509                      .dwattr $C$DW$372, DW_AT_const_value(0x00)
    3510              
    3511              $C$DW$373       .dwtag  DW_TAG_enumerator
    3512                      .dwattr $C$DW$373, DW_AT_name("ISour_HS_0p020_A")
    3513                      .dwattr $C$DW$373, DW_AT_const_value(0x01)
    3514              
    3515              $C$DW$374       .dwtag  DW_TAG_enumerator
    3516                      .dwattr $C$DW$374, DW_AT_name("ISour_HS_0p030_A")
    3517                      .dwattr $C$DW$374, DW_AT_const_value(0x02)
    3518              
    3519              $C$DW$375       .dwtag  DW_TAG_enumerator
    3520                      .dwattr $C$DW$375, DW_AT_name("ISour_HS_0p040_A")
    3521                      .dwattr $C$DW$375, DW_AT_const_value(0x03)
    3522              
    3523              $C$DW$376       .dwtag  DW_TAG_enumerator
    3524                      .dwattr $C$DW$376, DW_AT_name("ISour_HS_0p050_A")
    3525                      .dwattr $C$DW$376, DW_AT_const_value(0x04)
    3526              
    3527              $C$DW$377       .dwtag  DW_TAG_enumerator
    3528                      .dwattr $C$DW$377, DW_AT_name("ISour_HS_0p060_A")
    3529                      .dwattr $C$DW$377, DW_AT_const_value(0x05)
TMS320C2000 Assembler PC v18.1.2 Sun Jun 17 14:52:32 2018

Tools Copyright (c) 1996-2017 Texas Instruments Incorporated
C:\Users\haowp\AppData\Local\Temp\{81472915-7FA4-430D-8ACB-BFB8F401620C} PAGE   70

    3530              
    3531              $C$DW$378       .dwtag  DW_TAG_enumerator
    3532                      .dwattr $C$DW$378, DW_AT_name("ISour_HS_0p070_A")
    3533                      .dwattr $C$DW$378, DW_AT_const_value(0x06)
    3534              
    3535              $C$DW$379       .dwtag  DW_TAG_enumerator
    3536                      .dwattr $C$DW$379, DW_AT_name("ISour_HS_0p125_A")
    3537                      .dwattr $C$DW$379, DW_AT_const_value(0x07)
    3538              
    3539              $C$DW$380       .dwtag  DW_TAG_enumerator
    3540                      .dwattr $C$DW$380, DW_AT_name("ISour_HS_0p250_A")
    3541                      .dwattr $C$DW$380, DW_AT_const_value(0x08)
    3542              
    3543              $C$DW$381       .dwtag  DW_TAG_enumerator
    3544                      .dwattr $C$DW$381, DW_AT_name("ISour_HS_0p500_A")
    3545                      .dwattr $C$DW$381, DW_AT_const_value(0x09)
    3546              
    3547              $C$DW$382       .dwtag  DW_TAG_enumerator
    3548                      .dwattr $C$DW$382, DW_AT_name("ISour_HS_0p750_A")
    3549                      .dwattr $C$DW$382, DW_AT_const_value(0x0a)
    3550              
    3551              $C$DW$383       .dwtag  DW_TAG_enumerator
    3552                      .dwattr $C$DW$383, DW_AT_name("ISour_HS_1p000_A")
    3553                      .dwattr $C$DW$383, DW_AT_const_value(0x0b)
    3554              
    3555                      .dwendtag $C$DW$T$81
    3556              
    3557              $C$DW$T$82      .dwtag  DW_TAG_typedef
    3558                      .dwattr $C$DW$T$82, DW_AT_name("DRV8305_CTRL05_PeakSourCurHS_e")
    3559                      .dwattr $C$DW$T$82, DW_AT_type(*$C$DW$T$81)
    3560                      .dwattr $C$DW$T$82, DW_AT_language(DW_LANG_C)
    3561              
    3562              
    3563              $C$DW$T$83      .dwtag  DW_TAG_enumeration_type
    3564                      .dwattr $C$DW$T$83, DW_AT_byte_size(0x01)
    3565              $C$DW$384       .dwtag  DW_TAG_enumerator
    3566                      .dwattr $C$DW$384, DW_AT_name("ISink_HS_0p020_A")
    3567                      .dwattr $C$DW$384, DW_AT_const_value(0x00)
    3568              
    3569              $C$DW$385       .dwtag  DW_TAG_enumerator
    3570                      .dwattr $C$DW$385, DW_AT_name("ISink_HS_0p030_A")
    3571                      .dwattr $C$DW$385, DW_AT_const_value(0x10)
    3572              
    3573              $C$DW$386       .dwtag  DW_TAG_enumerator
    3574                      .dwattr $C$DW$386, DW_AT_name("ISink_HS_0p040_A")
    3575                      .dwattr $C$DW$386, DW_AT_const_value(0x20)
    3576              
    3577              $C$DW$387       .dwtag  DW_TAG_enumerator
    3578                      .dwattr $C$DW$387, DW_AT_name("ISink_HS_0p050_A")
    3579                      .dwattr $C$DW$387, DW_AT_const_value(0x30)
    3580              
    3581              $C$DW$388       .dwtag  DW_TAG_enumerator
    3582                      .dwattr $C$DW$388, DW_AT_name("ISink_HS_0p060_A")
    3583                      .dwattr $C$DW$388, DW_AT_const_value(0x40)
    3584              
TMS320C2000 Assembler PC v18.1.2 Sun Jun 17 14:52:32 2018

Tools Copyright (c) 1996-2017 Texas Instruments Incorporated
C:\Users\haowp\AppData\Local\Temp\{81472915-7FA4-430D-8ACB-BFB8F401620C} PAGE   71

    3585              $C$DW$389       .dwtag  DW_TAG_enumerator
    3586                      .dwattr $C$DW$389, DW_AT_name("ISink_HS_0p070_A")
    3587                      .dwattr $C$DW$389, DW_AT_const_value(0x50)
    3588              
    3589              $C$DW$390       .dwtag  DW_TAG_enumerator
    3590                      .dwattr $C$DW$390, DW_AT_name("ISink_HS_0p125_A")
    3591                      .dwattr $C$DW$390, DW_AT_const_value(0x60)
    3592              
    3593              $C$DW$391       .dwtag  DW_TAG_enumerator
    3594                      .dwattr $C$DW$391, DW_AT_name("ISink_HS_0p250_A")
    3595                      .dwattr $C$DW$391, DW_AT_const_value(0x70)
    3596              
    3597              $C$DW$392       .dwtag  DW_TAG_enumerator
    3598                      .dwattr $C$DW$392, DW_AT_name("ISink_HS_0p500_A")
    3599                      .dwattr $C$DW$392, DW_AT_const_value(0x80)
    3600              
    3601              $C$DW$393       .dwtag  DW_TAG_enumerator
    3602                      .dwattr $C$DW$393, DW_AT_name("ISink_HS_0p750_A")
    3603                      .dwattr $C$DW$393, DW_AT_const_value(0x90)
    3604              
    3605              $C$DW$394       .dwtag  DW_TAG_enumerator
    3606                      .dwattr $C$DW$394, DW_AT_name("ISink_HS_1p000_A")
    3607                      .dwattr $C$DW$394, DW_AT_const_value(0xa0)
    3608              
    3609              $C$DW$395       .dwtag  DW_TAG_enumerator
    3610                      .dwattr $C$DW$395, DW_AT_name("ISink_HS_1p250_A")
    3611                      .dwattr $C$DW$395, DW_AT_const_value(0xb0)
    3612              
    3613                      .dwendtag $C$DW$T$83
    3614              
    3615              $C$DW$T$84      .dwtag  DW_TAG_typedef
    3616                      .dwattr $C$DW$T$84, DW_AT_name("DRV8305_CTRL05_PeakSinkCurHS_e")
    3617                      .dwattr $C$DW$T$84, DW_AT_type(*$C$DW$T$83)
    3618                      .dwattr $C$DW$T$84, DW_AT_language(DW_LANG_C)
    3619              
    3620              
    3621              $C$DW$T$85      .dwtag  DW_TAG_enumeration_type
    3622                      .dwattr $C$DW$T$85, DW_AT_byte_size(0x01)
    3623              $C$DW$396       .dwtag  DW_TAG_enumerator
    3624                      .dwattr $C$DW$396, DW_AT_name("TSour_250_ns")
    3625                      .dwattr $C$DW$396, DW_AT_const_value(0x00)
    3626              
    3627              $C$DW$397       .dwtag  DW_TAG_enumerator
    3628                      .dwattr $C$DW$397, DW_AT_name("TSour_500_ns")
    3629                      .dwattr $C$DW$397, DW_AT_const_value(0x100)
    3630              
    3631              $C$DW$398       .dwtag  DW_TAG_enumerator
    3632                      .dwattr $C$DW$398, DW_AT_name("TSour_1000_ns")
    3633                      .dwattr $C$DW$398, DW_AT_const_value(0x200)
    3634              
    3635              $C$DW$399       .dwtag  DW_TAG_enumerator
    3636                      .dwattr $C$DW$399, DW_AT_name("TSour_2000_ns")
    3637                      .dwattr $C$DW$399, DW_AT_const_value(0x300)
    3638              
    3639                      .dwendtag $C$DW$T$85
TMS320C2000 Assembler PC v18.1.2 Sun Jun 17 14:52:32 2018

Tools Copyright (c) 1996-2017 Texas Instruments Incorporated
C:\Users\haowp\AppData\Local\Temp\{81472915-7FA4-430D-8ACB-BFB8F401620C} PAGE   72

    3640              
    3641              $C$DW$T$86      .dwtag  DW_TAG_typedef
    3642                      .dwattr $C$DW$T$86, DW_AT_name("DRV8305_CTRL05_PeakSourTime_e")
    3643                      .dwattr $C$DW$T$86, DW_AT_type(*$C$DW$T$85)
    3644                      .dwattr $C$DW$T$86, DW_AT_language(DW_LANG_C)
    3645              
    3646              
    3647              $C$DW$T$88      .dwtag  DW_TAG_enumeration_type
    3648                      .dwattr $C$DW$T$88, DW_AT_byte_size(0x01)
    3649              $C$DW$400       .dwtag  DW_TAG_enumerator
    3650                      .dwattr $C$DW$400, DW_AT_name("ISour_LS_0p010_A")
    3651                      .dwattr $C$DW$400, DW_AT_const_value(0x00)
    3652              
    3653              $C$DW$401       .dwtag  DW_TAG_enumerator
    3654                      .dwattr $C$DW$401, DW_AT_name("ISour_LS_0p020_A")
    3655                      .dwattr $C$DW$401, DW_AT_const_value(0x01)
    3656              
    3657              $C$DW$402       .dwtag  DW_TAG_enumerator
    3658                      .dwattr $C$DW$402, DW_AT_name("ISour_LS_0p030_A")
    3659                      .dwattr $C$DW$402, DW_AT_const_value(0x02)
    3660              
    3661              $C$DW$403       .dwtag  DW_TAG_enumerator
    3662                      .dwattr $C$DW$403, DW_AT_name("ISour_LS_0p040_A")
    3663                      .dwattr $C$DW$403, DW_AT_const_value(0x03)
    3664              
    3665              $C$DW$404       .dwtag  DW_TAG_enumerator
    3666                      .dwattr $C$DW$404, DW_AT_name("ISour_LS_0p050_A")
    3667                      .dwattr $C$DW$404, DW_AT_const_value(0x04)
    3668              
    3669              $C$DW$405       .dwtag  DW_TAG_enumerator
    3670                      .dwattr $C$DW$405, DW_AT_name("ISour_LS_0p060_A")
    3671                      .dwattr $C$DW$405, DW_AT_const_value(0x05)
    3672              
    3673              $C$DW$406       .dwtag  DW_TAG_enumerator
    3674                      .dwattr $C$DW$406, DW_AT_name("ISour_LS_0p070_A")
    3675                      .dwattr $C$DW$406, DW_AT_const_value(0x06)
    3676              
    3677              $C$DW$407       .dwtag  DW_TAG_enumerator
    3678                      .dwattr $C$DW$407, DW_AT_name("ISour_LS_0p125_A")
    3679                      .dwattr $C$DW$407, DW_AT_const_value(0x07)
    3680              
    3681              $C$DW$408       .dwtag  DW_TAG_enumerator
    3682                      .dwattr $C$DW$408, DW_AT_name("ISour_LS_0p250_A")
    3683                      .dwattr $C$DW$408, DW_AT_const_value(0x08)
    3684              
    3685              $C$DW$409       .dwtag  DW_TAG_enumerator
    3686                      .dwattr $C$DW$409, DW_AT_name("ISour_LS_0p500_A")
    3687                      .dwattr $C$DW$409, DW_AT_const_value(0x09)
    3688              
    3689              $C$DW$410       .dwtag  DW_TAG_enumerator
    3690                      .dwattr $C$DW$410, DW_AT_name("ISour_LS_0p750_A")
    3691                      .dwattr $C$DW$410, DW_AT_const_value(0x0a)
    3692              
    3693              $C$DW$411       .dwtag  DW_TAG_enumerator
    3694                      .dwattr $C$DW$411, DW_AT_name("ISour_LS_1p000_A")
TMS320C2000 Assembler PC v18.1.2 Sun Jun 17 14:52:32 2018

Tools Copyright (c) 1996-2017 Texas Instruments Incorporated
C:\Users\haowp\AppData\Local\Temp\{81472915-7FA4-430D-8ACB-BFB8F401620C} PAGE   73

    3695                      .dwattr $C$DW$411, DW_AT_const_value(0x0b)
    3696              
    3697                      .dwendtag $C$DW$T$88
    3698              
    3699              $C$DW$T$89      .dwtag  DW_TAG_typedef
    3700                      .dwattr $C$DW$T$89, DW_AT_name("DRV8305_CTRL06_PeakSourCurLS_e")
    3701                      .dwattr $C$DW$T$89, DW_AT_type(*$C$DW$T$88)
    3702                      .dwattr $C$DW$T$89, DW_AT_language(DW_LANG_C)
    3703              
    3704              
    3705              $C$DW$T$90      .dwtag  DW_TAG_enumeration_type
    3706                      .dwattr $C$DW$T$90, DW_AT_byte_size(0x01)
    3707              $C$DW$412       .dwtag  DW_TAG_enumerator
    3708                      .dwattr $C$DW$412, DW_AT_name("ISink_LS_0p020_A")
    3709                      .dwattr $C$DW$412, DW_AT_const_value(0x00)
    3710              
    3711              $C$DW$413       .dwtag  DW_TAG_enumerator
    3712                      .dwattr $C$DW$413, DW_AT_name("ISink_LS_0p030_A")
    3713                      .dwattr $C$DW$413, DW_AT_const_value(0x10)
    3714              
    3715              $C$DW$414       .dwtag  DW_TAG_enumerator
    3716                      .dwattr $C$DW$414, DW_AT_name("ISink_LS_0p040_A")
    3717                      .dwattr $C$DW$414, DW_AT_const_value(0x20)
    3718              
    3719              $C$DW$415       .dwtag  DW_TAG_enumerator
    3720                      .dwattr $C$DW$415, DW_AT_name("ISink_LS_0p050_A")
    3721                      .dwattr $C$DW$415, DW_AT_const_value(0x30)
    3722              
    3723              $C$DW$416       .dwtag  DW_TAG_enumerator
    3724                      .dwattr $C$DW$416, DW_AT_name("ISink_LS_0p060_A")
    3725                      .dwattr $C$DW$416, DW_AT_const_value(0x40)
    3726              
    3727              $C$DW$417       .dwtag  DW_TAG_enumerator
    3728                      .dwattr $C$DW$417, DW_AT_name("ISink_LS_0p070_A")
    3729                      .dwattr $C$DW$417, DW_AT_const_value(0x50)
    3730              
    3731              $C$DW$418       .dwtag  DW_TAG_enumerator
    3732                      .dwattr $C$DW$418, DW_AT_name("ISink_LS_0p125_A")
    3733                      .dwattr $C$DW$418, DW_AT_const_value(0x60)
    3734              
    3735              $C$DW$419       .dwtag  DW_TAG_enumerator
    3736                      .dwattr $C$DW$419, DW_AT_name("ISink_LS_0p250_A")
    3737                      .dwattr $C$DW$419, DW_AT_const_value(0x70)
    3738              
    3739              $C$DW$420       .dwtag  DW_TAG_enumerator
    3740                      .dwattr $C$DW$420, DW_AT_name("ISink_LS_0p500_A")
    3741                      .dwattr $C$DW$420, DW_AT_const_value(0x80)
    3742              
    3743              $C$DW$421       .dwtag  DW_TAG_enumerator
    3744                      .dwattr $C$DW$421, DW_AT_name("ISink_LS_0p750_A")
    3745                      .dwattr $C$DW$421, DW_AT_const_value(0x90)
    3746              
    3747              $C$DW$422       .dwtag  DW_TAG_enumerator
    3748                      .dwattr $C$DW$422, DW_AT_name("ISink_LS_1p000_A")
    3749                      .dwattr $C$DW$422, DW_AT_const_value(0xa0)
TMS320C2000 Assembler PC v18.1.2 Sun Jun 17 14:52:32 2018

Tools Copyright (c) 1996-2017 Texas Instruments Incorporated
C:\Users\haowp\AppData\Local\Temp\{81472915-7FA4-430D-8ACB-BFB8F401620C} PAGE   74

    3750              
    3751              $C$DW$423       .dwtag  DW_TAG_enumerator
    3752                      .dwattr $C$DW$423, DW_AT_name("ISink_LS_1p250_A")
    3753                      .dwattr $C$DW$423, DW_AT_const_value(0xb0)
    3754              
    3755                      .dwendtag $C$DW$T$90
    3756              
    3757              $C$DW$T$91      .dwtag  DW_TAG_typedef
    3758                      .dwattr $C$DW$T$91, DW_AT_name("DRV8305_CTRL06_PeakSinkCurLS_e")
    3759                      .dwattr $C$DW$T$91, DW_AT_type(*$C$DW$T$90)
    3760                      .dwattr $C$DW$T$91, DW_AT_language(DW_LANG_C)
    3761              
    3762              
    3763              $C$DW$T$92      .dwtag  DW_TAG_enumeration_type
    3764                      .dwattr $C$DW$T$92, DW_AT_byte_size(0x01)
    3765              $C$DW$424       .dwtag  DW_TAG_enumerator
    3766                      .dwattr $C$DW$424, DW_AT_name("TSink_250_ns")
    3767                      .dwattr $C$DW$424, DW_AT_const_value(0x00)
    3768              
    3769              $C$DW$425       .dwtag  DW_TAG_enumerator
    3770                      .dwattr $C$DW$425, DW_AT_name("TSink_500_ns")
    3771                      .dwattr $C$DW$425, DW_AT_const_value(0x100)
    3772              
    3773              $C$DW$426       .dwtag  DW_TAG_enumerator
    3774                      .dwattr $C$DW$426, DW_AT_name("TSink_1000_ns")
    3775                      .dwattr $C$DW$426, DW_AT_const_value(0x200)
    3776              
    3777              $C$DW$427       .dwtag  DW_TAG_enumerator
    3778                      .dwattr $C$DW$427, DW_AT_name("TSink_2000_ns")
    3779                      .dwattr $C$DW$427, DW_AT_const_value(0x300)
    3780              
    3781                      .dwendtag $C$DW$T$92
    3782              
    3783              $C$DW$T$93      .dwtag  DW_TAG_typedef
    3784                      .dwattr $C$DW$T$93, DW_AT_name("DRV8305_CTRL06_PeakSinkTime_e")
    3785                      .dwattr $C$DW$T$93, DW_AT_type(*$C$DW$T$92)
    3786                      .dwattr $C$DW$T$93, DW_AT_language(DW_LANG_C)
    3787              
    3788              
    3789              $C$DW$T$95      .dwtag  DW_TAG_enumeration_type
    3790                      .dwattr $C$DW$T$95, DW_AT_byte_size(0x01)
    3791              $C$DW$428       .dwtag  DW_TAG_enumerator
    3792                      .dwattr $C$DW$428, DW_AT_name("VDSDeg_0_us")
    3793                      .dwattr $C$DW$428, DW_AT_const_value(0x00)
    3794              
    3795              $C$DW$429       .dwtag  DW_TAG_enumerator
    3796                      .dwattr $C$DW$429, DW_AT_name("VDSDeg_2_us")
    3797                      .dwattr $C$DW$429, DW_AT_const_value(0x01)
    3798              
    3799              $C$DW$430       .dwtag  DW_TAG_enumerator
    3800                      .dwattr $C$DW$430, DW_AT_name("VDSDeg_4_us")
    3801                      .dwattr $C$DW$430, DW_AT_const_value(0x02)
    3802              
    3803              $C$DW$431       .dwtag  DW_TAG_enumerator
    3804                      .dwattr $C$DW$431, DW_AT_name("VDSDeg_8_us")
TMS320C2000 Assembler PC v18.1.2 Sun Jun 17 14:52:32 2018

Tools Copyright (c) 1996-2017 Texas Instruments Incorporated
C:\Users\haowp\AppData\Local\Temp\{81472915-7FA4-430D-8ACB-BFB8F401620C} PAGE   75

    3805                      .dwattr $C$DW$431, DW_AT_const_value(0x03)
    3806              
    3807                      .dwendtag $C$DW$T$95
    3808              
    3809              $C$DW$T$96      .dwtag  DW_TAG_typedef
    3810                      .dwattr $C$DW$T$96, DW_AT_name("DRV8305_CTRL07_VDSDeglitch_e")
    3811                      .dwattr $C$DW$T$96, DW_AT_type(*$C$DW$T$95)
    3812                      .dwattr $C$DW$T$96, DW_AT_language(DW_LANG_C)
    3813              
    3814              
    3815              $C$DW$T$97      .dwtag  DW_TAG_enumeration_type
    3816                      .dwattr $C$DW$T$97, DW_AT_byte_size(0x01)
    3817              $C$DW$432       .dwtag  DW_TAG_enumerator
    3818                      .dwattr $C$DW$432, DW_AT_name("VDSBlnk_0_us")
    3819                      .dwattr $C$DW$432, DW_AT_const_value(0x00)
    3820              
    3821              $C$DW$433       .dwtag  DW_TAG_enumerator
    3822                      .dwattr $C$DW$433, DW_AT_name("VDSBlnk_2_us")
    3823                      .dwattr $C$DW$433, DW_AT_const_value(0x04)
    3824              
    3825              $C$DW$434       .dwtag  DW_TAG_enumerator
    3826                      .dwattr $C$DW$434, DW_AT_name("VDSBlnk_4_us")
    3827                      .dwattr $C$DW$434, DW_AT_const_value(0x08)
    3828              
    3829              $C$DW$435       .dwtag  DW_TAG_enumerator
    3830                      .dwattr $C$DW$435, DW_AT_name("VDSBlnk_8_us")
    3831                      .dwattr $C$DW$435, DW_AT_const_value(0x0c)
    3832              
    3833                      .dwendtag $C$DW$T$97
    3834              
    3835              $C$DW$T$98      .dwtag  DW_TAG_typedef
    3836                      .dwattr $C$DW$T$98, DW_AT_name("DRV8305_CTRL07_VDSBlanking_e")
    3837                      .dwattr $C$DW$T$98, DW_AT_type(*$C$DW$T$97)
    3838                      .dwattr $C$DW$T$98, DW_AT_language(DW_LANG_C)
    3839              
    3840              
    3841              $C$DW$T$99      .dwtag  DW_TAG_enumeration_type
    3842                      .dwattr $C$DW$T$99, DW_AT_byte_size(0x01)
    3843              $C$DW$436       .dwtag  DW_TAG_enumerator
    3844                      .dwattr $C$DW$436, DW_AT_name("DeadTime_40_ns")
    3845                      .dwattr $C$DW$436, DW_AT_const_value(0x00)
    3846              
    3847              $C$DW$437       .dwtag  DW_TAG_enumerator
    3848                      .dwattr $C$DW$437, DW_AT_name("DeadTime_60_ns")
    3849                      .dwattr $C$DW$437, DW_AT_const_value(0x10)
    3850              
    3851              $C$DW$438       .dwtag  DW_TAG_enumerator
    3852                      .dwattr $C$DW$438, DW_AT_name("DeadTime_100_ns")
    3853                      .dwattr $C$DW$438, DW_AT_const_value(0x20)
    3854              
    3855              $C$DW$439       .dwtag  DW_TAG_enumerator
    3856                      .dwattr $C$DW$439, DW_AT_name("DeadTime_500_ns")
    3857                      .dwattr $C$DW$439, DW_AT_const_value(0x30)
    3858              
    3859              $C$DW$440       .dwtag  DW_TAG_enumerator
TMS320C2000 Assembler PC v18.1.2 Sun Jun 17 14:52:32 2018

Tools Copyright (c) 1996-2017 Texas Instruments Incorporated
C:\Users\haowp\AppData\Local\Temp\{81472915-7FA4-430D-8ACB-BFB8F401620C} PAGE   76

    3860                      .dwattr $C$DW$440, DW_AT_name("DeadTime_1000_ns")
    3861                      .dwattr $C$DW$440, DW_AT_const_value(0x40)
    3862              
    3863              $C$DW$441       .dwtag  DW_TAG_enumerator
    3864                      .dwattr $C$DW$441, DW_AT_name("DeadTime_2000_ns")
    3865                      .dwattr $C$DW$441, DW_AT_const_value(0x50)
    3866              
    3867              $C$DW$442       .dwtag  DW_TAG_enumerator
    3868                      .dwattr $C$DW$442, DW_AT_name("DeadTime_4000_ns")
    3869                      .dwattr $C$DW$442, DW_AT_const_value(0x60)
    3870              
    3871              $C$DW$443       .dwtag  DW_TAG_enumerator
    3872                      .dwattr $C$DW$443, DW_AT_name("DeadTime_6000_ns")
    3873                      .dwattr $C$DW$443, DW_AT_const_value(0x70)
    3874              
    3875                      .dwendtag $C$DW$T$99
    3876              
    3877              $C$DW$T$100     .dwtag  DW_TAG_typedef
    3878                      .dwattr $C$DW$T$100, DW_AT_name("DRV8305_CTRL07_DeadTime_e")
    3879                      .dwattr $C$DW$T$100, DW_AT_type(*$C$DW$T$99)
    3880                      .dwattr $C$DW$T$100, DW_AT_language(DW_LANG_C)
    3881              
    3882              
    3883              $C$DW$T$101     .dwtag  DW_TAG_enumeration_type
    3884                      .dwattr $C$DW$T$101, DW_AT_byte_size(0x01)
    3885              $C$DW$444       .dwtag  DW_TAG_enumerator
    3886                      .dwattr $C$DW$444, DW_AT_name("PwmMode_6")
    3887                      .dwattr $C$DW$444, DW_AT_const_value(0x00)
    3888              
    3889              $C$DW$445       .dwtag  DW_TAG_enumerator
    3890                      .dwattr $C$DW$445, DW_AT_name("PwmMode_3")
    3891                      .dwattr $C$DW$445, DW_AT_const_value(0x80)
    3892              
    3893              $C$DW$446       .dwtag  DW_TAG_enumerator
    3894                      .dwattr $C$DW$446, DW_AT_name("PwmMode_1")
    3895                      .dwattr $C$DW$446, DW_AT_const_value(0x100)
    3896              
    3897                      .dwendtag $C$DW$T$101
    3898              
    3899              $C$DW$T$102     .dwtag  DW_TAG_typedef
    3900                      .dwattr $C$DW$T$102, DW_AT_name("DRV8305_CTRL07_PwmMode_e")
    3901                      .dwattr $C$DW$T$102, DW_AT_type(*$C$DW$T$101)
    3902                      .dwattr $C$DW$T$102, DW_AT_language(DW_LANG_C)
    3903              
    3904              
    3905              $C$DW$T$103     .dwtag  DW_TAG_enumeration_type
    3906                      .dwattr $C$DW$T$103, DW_AT_byte_size(0x01)
    3907              $C$DW$447       .dwtag  DW_TAG_enumerator
    3908                      .dwattr $C$DW$447, DW_AT_name("Diod")
    3909                      .dwattr $C$DW$447, DW_AT_const_value(0x00)
    3910              
    3911              $C$DW$448       .dwtag  DW_TAG_enumerator
    3912                      .dwattr $C$DW$448, DW_AT_name("Actv")
    3913                      .dwattr $C$DW$448, DW_AT_const_value(0x200)
    3914              
TMS320C2000 Assembler PC v18.1.2 Sun Jun 17 14:52:32 2018

Tools Copyright (c) 1996-2017 Texas Instruments Incorporated
C:\Users\haowp\AppData\Local\Temp\{81472915-7FA4-430D-8ACB-BFB8F401620C} PAGE   77

    3915                      .dwendtag $C$DW$T$103
    3916              
    3917              $C$DW$T$104     .dwtag  DW_TAG_typedef
    3918                      .dwattr $C$DW$T$104, DW_AT_name("DRV8305_CTRL07_CommOption_e")
    3919                      .dwattr $C$DW$T$104, DW_AT_type(*$C$DW$T$103)
    3920                      .dwattr $C$DW$T$104, DW_AT_language(DW_LANG_C)
    3921              
    3922              
    3923              $C$DW$T$107     .dwtag  DW_TAG_enumeration_type
    3924                      .dwattr $C$DW$T$107, DW_AT_byte_size(0x01)
    3925              $C$DW$449       .dwtag  DW_TAG_enumerator
    3926                      .dwattr $C$DW$449, DW_AT_name("WD_Dly_10_ms")
    3927                      .dwattr $C$DW$449, DW_AT_const_value(0x00)
    3928              
    3929              $C$DW$450       .dwtag  DW_TAG_enumerator
    3930                      .dwattr $C$DW$450, DW_AT_name("WD_Dly_20_ms")
    3931                      .dwattr $C$DW$450, DW_AT_const_value(0x20)
    3932              
    3933              $C$DW$451       .dwtag  DW_TAG_enumerator
    3934                      .dwattr $C$DW$451, DW_AT_name("WD_Dly_50_ms")
    3935                      .dwattr $C$DW$451, DW_AT_const_value(0x40)
    3936              
    3937              $C$DW$452       .dwtag  DW_TAG_enumerator
    3938                      .dwattr $C$DW$452, DW_AT_name("WD_Dly_100_ms")
    3939                      .dwattr $C$DW$452, DW_AT_const_value(0x60)
    3940              
    3941                      .dwendtag $C$DW$T$107
    3942              
    3943              $C$DW$T$108     .dwtag  DW_TAG_typedef
    3944                      .dwattr $C$DW$T$108, DW_AT_name("DRV8305_CTRL09_WatchDelay_e")
    3945                      .dwattr $C$DW$T$108, DW_AT_type(*$C$DW$T$107)
    3946                      .dwattr $C$DW$T$108, DW_AT_language(DW_LANG_C)
    3947              
    3948              
    3949              $C$DW$T$110     .dwtag  DW_TAG_enumeration_type
    3950                      .dwattr $C$DW$T$110, DW_AT_byte_size(0x01)
    3951              $C$DW$453       .dwtag  DW_TAG_enumerator
    3952                      .dwattr $C$DW$453, DW_AT_name("Gain1_10VpV")
    3953                      .dwattr $C$DW$453, DW_AT_const_value(0x00)
    3954              
    3955              $C$DW$454       .dwtag  DW_TAG_enumerator
    3956                      .dwattr $C$DW$454, DW_AT_name("Gain1_20VpV")
    3957                      .dwattr $C$DW$454, DW_AT_const_value(0x01)
    3958              
    3959              $C$DW$455       .dwtag  DW_TAG_enumerator
    3960                      .dwattr $C$DW$455, DW_AT_name("Gain1_40VpV")
    3961                      .dwattr $C$DW$455, DW_AT_const_value(0x02)
    3962              
    3963              $C$DW$456       .dwtag  DW_TAG_enumerator
    3964                      .dwattr $C$DW$456, DW_AT_name("Gain1_80VpV")
    3965                      .dwattr $C$DW$456, DW_AT_const_value(0x03)
    3966              
    3967                      .dwendtag $C$DW$T$110
    3968              
    3969              $C$DW$T$111     .dwtag  DW_TAG_typedef
TMS320C2000 Assembler PC v18.1.2 Sun Jun 17 14:52:32 2018

Tools Copyright (c) 1996-2017 Texas Instruments Incorporated
C:\Users\haowp\AppData\Local\Temp\{81472915-7FA4-430D-8ACB-BFB8F401620C} PAGE   78

    3970                      .dwattr $C$DW$T$111, DW_AT_name("DRV8305_CTRL0A_CSGain1_e")
    3971                      .dwattr $C$DW$T$111, DW_AT_type(*$C$DW$T$110)
    3972                      .dwattr $C$DW$T$111, DW_AT_language(DW_LANG_C)
    3973              
    3974              
    3975              $C$DW$T$112     .dwtag  DW_TAG_enumeration_type
    3976                      .dwattr $C$DW$T$112, DW_AT_byte_size(0x01)
    3977              $C$DW$457       .dwtag  DW_TAG_enumerator
    3978                      .dwattr $C$DW$457, DW_AT_name("Gain2_10VpV")
    3979                      .dwattr $C$DW$457, DW_AT_const_value(0x00)
    3980              
    3981              $C$DW$458       .dwtag  DW_TAG_enumerator
    3982                      .dwattr $C$DW$458, DW_AT_name("Gain2_20VpV")
    3983                      .dwattr $C$DW$458, DW_AT_const_value(0x04)
    3984              
    3985              $C$DW$459       .dwtag  DW_TAG_enumerator
    3986                      .dwattr $C$DW$459, DW_AT_name("Gain2_40VpV")
    3987                      .dwattr $C$DW$459, DW_AT_const_value(0x08)
    3988              
    3989              $C$DW$460       .dwtag  DW_TAG_enumerator
    3990                      .dwattr $C$DW$460, DW_AT_name("Gain2_80VpV")
    3991                      .dwattr $C$DW$460, DW_AT_const_value(0x0c)
    3992              
    3993                      .dwendtag $C$DW$T$112
    3994              
    3995              $C$DW$T$113     .dwtag  DW_TAG_typedef
    3996                      .dwattr $C$DW$T$113, DW_AT_name("DRV8305_CTRL0A_CSGain2_e")
    3997                      .dwattr $C$DW$T$113, DW_AT_type(*$C$DW$T$112)
    3998                      .dwattr $C$DW$T$113, DW_AT_language(DW_LANG_C)
    3999              
    4000              
    4001              $C$DW$T$114     .dwtag  DW_TAG_enumeration_type
    4002                      .dwattr $C$DW$T$114, DW_AT_byte_size(0x01)
    4003              $C$DW$461       .dwtag  DW_TAG_enumerator
    4004                      .dwattr $C$DW$461, DW_AT_name("Gain3_10VpV")
    4005                      .dwattr $C$DW$461, DW_AT_const_value(0x00)
    4006              
    4007              $C$DW$462       .dwtag  DW_TAG_enumerator
    4008                      .dwattr $C$DW$462, DW_AT_name("Gain3_20VpV")
    4009                      .dwattr $C$DW$462, DW_AT_const_value(0x10)
    4010              
    4011              $C$DW$463       .dwtag  DW_TAG_enumerator
    4012                      .dwattr $C$DW$463, DW_AT_name("Gain3_40VpV")
    4013                      .dwattr $C$DW$463, DW_AT_const_value(0x20)
    4014              
    4015              $C$DW$464       .dwtag  DW_TAG_enumerator
    4016                      .dwattr $C$DW$464, DW_AT_name("Gain3_80VpV")
    4017                      .dwattr $C$DW$464, DW_AT_const_value(0x30)
    4018              
    4019                      .dwendtag $C$DW$T$114
    4020              
    4021              $C$DW$T$115     .dwtag  DW_TAG_typedef
    4022                      .dwattr $C$DW$T$115, DW_AT_name("DRV8305_CTRL0A_CSGain3_e")
    4023                      .dwattr $C$DW$T$115, DW_AT_type(*$C$DW$T$114)
    4024                      .dwattr $C$DW$T$115, DW_AT_language(DW_LANG_C)
TMS320C2000 Assembler PC v18.1.2 Sun Jun 17 14:52:32 2018

Tools Copyright (c) 1996-2017 Texas Instruments Incorporated
C:\Users\haowp\AppData\Local\Temp\{81472915-7FA4-430D-8ACB-BFB8F401620C} PAGE   79

    4025              
    4026              
    4027              $C$DW$T$116     .dwtag  DW_TAG_enumeration_type
    4028                      .dwattr $C$DW$T$116, DW_AT_byte_size(0x01)
    4029              $C$DW$465       .dwtag  DW_TAG_enumerator
    4030                      .dwattr $C$DW$465, DW_AT_name("Blank_0p00_us")
    4031                      .dwattr $C$DW$465, DW_AT_const_value(0x00)
    4032              
    4033              $C$DW$466       .dwtag  DW_TAG_enumerator
    4034                      .dwattr $C$DW$466, DW_AT_name("Blank_0p50_us")
    4035                      .dwattr $C$DW$466, DW_AT_const_value(0x40)
    4036              
    4037              $C$DW$467       .dwtag  DW_TAG_enumerator
    4038                      .dwattr $C$DW$467, DW_AT_name("Blank_2p50_us")
    4039                      .dwattr $C$DW$467, DW_AT_const_value(0x80)
    4040              
    4041              $C$DW$468       .dwtag  DW_TAG_enumerator
    4042                      .dwattr $C$DW$468, DW_AT_name("Blank_10p0_us")
    4043                      .dwattr $C$DW$468, DW_AT_const_value(0xc0)
    4044              
    4045                      .dwendtag $C$DW$T$116
    4046              
    4047              $C$DW$T$117     .dwtag  DW_TAG_typedef
    4048                      .dwattr $C$DW$T$117, DW_AT_name("DRV8305_CTRL0A_CSBlank_e")
    4049                      .dwattr $C$DW$T$117, DW_AT_type(*$C$DW$T$116)
    4050                      .dwattr $C$DW$T$117, DW_AT_language(DW_LANG_C)
    4051              
    4052              
    4053              $C$DW$T$119     .dwtag  DW_TAG_enumeration_type
    4054                      .dwattr $C$DW$T$119, DW_AT_byte_size(0x01)
    4055              $C$DW$469       .dwtag  DW_TAG_enumerator
    4056                      .dwattr $C$DW$469, DW_AT_name("UvLevel_10")
    4057                      .dwattr $C$DW$469, DW_AT_const_value(0x00)
    4058              
    4059              $C$DW$470       .dwtag  DW_TAG_enumerator
    4060                      .dwattr $C$DW$470, DW_AT_name("UvLevel_20")
    4061                      .dwattr $C$DW$470, DW_AT_const_value(0x01)
    4062              
    4063              $C$DW$471       .dwtag  DW_TAG_enumerator
    4064                      .dwattr $C$DW$471, DW_AT_name("UvLevel_30")
    4065                      .dwattr $C$DW$471, DW_AT_const_value(0x02)
    4066              
    4067                      .dwendtag $C$DW$T$119
    4068              
    4069              $C$DW$T$120     .dwtag  DW_TAG_typedef
    4070                      .dwattr $C$DW$T$120, DW_AT_name("DRV8305_CTRL0B_VregUvLevel_e")
    4071                      .dwattr $C$DW$T$120, DW_AT_type(*$C$DW$T$119)
    4072                      .dwattr $C$DW$T$120, DW_AT_language(DW_LANG_C)
    4073              
    4074              
    4075              $C$DW$T$121     .dwtag  DW_TAG_enumeration_type
    4076                      .dwattr $C$DW$T$121, DW_AT_byte_size(0x01)
    4077              $C$DW$472       .dwtag  DW_TAG_enumerator
    4078                      .dwattr $C$DW$472, DW_AT_name("SleepDly_0_us")
    4079                      .dwattr $C$DW$472, DW_AT_const_value(0x00)
TMS320C2000 Assembler PC v18.1.2 Sun Jun 17 14:52:32 2018

Tools Copyright (c) 1996-2017 Texas Instruments Incorporated
C:\Users\haowp\AppData\Local\Temp\{81472915-7FA4-430D-8ACB-BFB8F401620C} PAGE   80

    4080              
    4081              $C$DW$473       .dwtag  DW_TAG_enumerator
    4082                      .dwattr $C$DW$473, DW_AT_name("SleepDly_10_us")
    4083                      .dwattr $C$DW$473, DW_AT_const_value(0x08)
    4084              
    4085              $C$DW$474       .dwtag  DW_TAG_enumerator
    4086                      .dwattr $C$DW$474, DW_AT_name("SleepDly_50_us")
    4087                      .dwattr $C$DW$474, DW_AT_const_value(0x10)
    4088              
    4089              $C$DW$475       .dwtag  DW_TAG_enumerator
    4090                      .dwattr $C$DW$475, DW_AT_name("SleepDly_1_ms")
    4091                      .dwattr $C$DW$475, DW_AT_const_value(0x18)
    4092              
    4093                      .dwendtag $C$DW$T$121
    4094              
    4095              $C$DW$T$122     .dwtag  DW_TAG_typedef
    4096                      .dwattr $C$DW$T$122, DW_AT_name("DRV8305_CTRL0B_SleepDelay_e")
    4097                      .dwattr $C$DW$T$122, DW_AT_type(*$C$DW$T$121)
    4098                      .dwattr $C$DW$T$122, DW_AT_language(DW_LANG_C)
    4099              
    4100              
    4101              $C$DW$T$123     .dwtag  DW_TAG_enumeration_type
    4102                      .dwattr $C$DW$T$123, DW_AT_byte_size(0x01)
    4103              $C$DW$476       .dwtag  DW_TAG_enumerator
    4104                      .dwattr $C$DW$476, DW_AT_name("Scaling_k_1")
    4105                      .dwattr $C$DW$476, DW_AT_const_value(0x00)
    4106              
    4107              $C$DW$477       .dwtag  DW_TAG_enumerator
    4108                      .dwattr $C$DW$477, DW_AT_name("Scaling_k_2")
    4109                      .dwattr $C$DW$477, DW_AT_const_value(0x100)
    4110              
    4111              $C$DW$478       .dwtag  DW_TAG_enumerator
    4112                      .dwattr $C$DW$478, DW_AT_name("Scaling_k_4")
    4113                      .dwattr $C$DW$478, DW_AT_const_value(0x200)
    4114              
    4115                      .dwendtag $C$DW$T$123
    4116              
    4117              $C$DW$T$124     .dwtag  DW_TAG_typedef
    4118                      .dwattr $C$DW$T$124, DW_AT_name("DRV8305_CTRL0B_VrefScaling_e")
    4119                      .dwattr $C$DW$T$124, DW_AT_type(*$C$DW$T$123)
    4120                      .dwattr $C$DW$T$124, DW_AT_language(DW_LANG_C)
    4121              
    4122              
    4123              $C$DW$T$126     .dwtag  DW_TAG_enumeration_type
    4124                      .dwattr $C$DW$T$126, DW_AT_byte_size(0x01)
    4125              $C$DW$479       .dwtag  DW_TAG_enumerator
    4126                      .dwattr $C$DW$479, DW_AT_name("Latched_Shutdown")
    4127                      .dwattr $C$DW$479, DW_AT_const_value(0x00)
    4128              
    4129              $C$DW$480       .dwtag  DW_TAG_enumerator
    4130                      .dwattr $C$DW$480, DW_AT_name("Report_Only")
    4131                      .dwattr $C$DW$480, DW_AT_const_value(0x01)
    4132              
    4133              $C$DW$481       .dwtag  DW_TAG_enumerator
    4134                      .dwattr $C$DW$481, DW_AT_name("Disable_VDS")
TMS320C2000 Assembler PC v18.1.2 Sun Jun 17 14:52:32 2018

Tools Copyright (c) 1996-2017 Texas Instruments Incorporated
C:\Users\haowp\AppData\Local\Temp\{81472915-7FA4-430D-8ACB-BFB8F401620C} PAGE   81

    4135                      .dwattr $C$DW$481, DW_AT_const_value(0x02)
    4136              
    4137                      .dwendtag $C$DW$T$126
    4138              
    4139              $C$DW$T$127     .dwtag  DW_TAG_typedef
    4140                      .dwattr $C$DW$T$127, DW_AT_name("DRV8305_CTRL0C_VDSMode_e")
    4141                      .dwattr $C$DW$T$127, DW_AT_type(*$C$DW$T$126)
    4142                      .dwattr $C$DW$T$127, DW_AT_language(DW_LANG_C)
    4143              
    4144              
    4145              $C$DW$T$128     .dwtag  DW_TAG_enumeration_type
    4146                      .dwattr $C$DW$T$128, DW_AT_byte_size(0x01)
    4147              $C$DW$482       .dwtag  DW_TAG_enumerator
    4148                      .dwattr $C$DW$482, DW_AT_name("VDS_Level_0p060_V")
    4149                      .dwattr $C$DW$482, DW_AT_const_value(0x00)
    4150              
    4151              $C$DW$483       .dwtag  DW_TAG_enumerator
    4152                      .dwattr $C$DW$483, DW_AT_name("VDS_Level_0p068_V")
    4153                      .dwattr $C$DW$483, DW_AT_const_value(0x08)
    4154              
    4155              $C$DW$484       .dwtag  DW_TAG_enumerator
    4156                      .dwattr $C$DW$484, DW_AT_name("VDS_Level_0p076_V")
    4157                      .dwattr $C$DW$484, DW_AT_const_value(0x10)
    4158              
    4159              $C$DW$485       .dwtag  DW_TAG_enumerator
    4160                      .dwattr $C$DW$485, DW_AT_name("VDS_Level_0p086_V")
    4161                      .dwattr $C$DW$485, DW_AT_const_value(0x18)
    4162              
    4163              $C$DW$486       .dwtag  DW_TAG_enumerator
    4164                      .dwattr $C$DW$486, DW_AT_name("VDS_Level_0p097_V")
    4165                      .dwattr $C$DW$486, DW_AT_const_value(0x20)
    4166              
    4167              $C$DW$487       .dwtag  DW_TAG_enumerator
    4168                      .dwattr $C$DW$487, DW_AT_name("VDS_Level_0p109_V")
    4169                      .dwattr $C$DW$487, DW_AT_const_value(0x28)
    4170              
    4171              $C$DW$488       .dwtag  DW_TAG_enumerator
    4172                      .dwattr $C$DW$488, DW_AT_name("VDS_Level_0p123_V")
    4173                      .dwattr $C$DW$488, DW_AT_const_value(0x30)
    4174              
    4175              $C$DW$489       .dwtag  DW_TAG_enumerator
    4176                      .dwattr $C$DW$489, DW_AT_name("VDS_Level_0p138_V")
    4177                      .dwattr $C$DW$489, DW_AT_const_value(0x38)
    4178              
    4179              $C$DW$490       .dwtag  DW_TAG_enumerator
    4180                      .dwattr $C$DW$490, DW_AT_name("VDS_Level_0p155_V")
    4181                      .dwattr $C$DW$490, DW_AT_const_value(0x40)
    4182              
    4183              $C$DW$491       .dwtag  DW_TAG_enumerator
    4184                      .dwattr $C$DW$491, DW_AT_name("VDS_Level_0p175_V")
    4185                      .dwattr $C$DW$491, DW_AT_const_value(0x48)
    4186              
    4187              $C$DW$492       .dwtag  DW_TAG_enumerator
    4188                      .dwattr $C$DW$492, DW_AT_name("VDS_Level_0p197_V")
    4189                      .dwattr $C$DW$492, DW_AT_const_value(0x50)
TMS320C2000 Assembler PC v18.1.2 Sun Jun 17 14:52:32 2018

Tools Copyright (c) 1996-2017 Texas Instruments Incorporated
C:\Users\haowp\AppData\Local\Temp\{81472915-7FA4-430D-8ACB-BFB8F401620C} PAGE   82

    4190              
    4191              $C$DW$493       .dwtag  DW_TAG_enumerator
    4192                      .dwattr $C$DW$493, DW_AT_name("VDS_Level_0p222_V")
    4193                      .dwattr $C$DW$493, DW_AT_const_value(0x58)
    4194              
    4195              $C$DW$494       .dwtag  DW_TAG_enumerator
    4196                      .dwattr $C$DW$494, DW_AT_name("VDS_Level_0p250_V")
    4197                      .dwattr $C$DW$494, DW_AT_const_value(0x60)
    4198              
    4199              $C$DW$495       .dwtag  DW_TAG_enumerator
    4200                      .dwattr $C$DW$495, DW_AT_name("VDS_Level_0p282_V")
    4201                      .dwattr $C$DW$495, DW_AT_const_value(0x68)
    4202              
    4203              $C$DW$496       .dwtag  DW_TAG_enumerator
    4204                      .dwattr $C$DW$496, DW_AT_name("VDS_Level_0p317_V")
    4205                      .dwattr $C$DW$496, DW_AT_const_value(0x70)
    4206              
    4207              $C$DW$497       .dwtag  DW_TAG_enumerator
    4208                      .dwattr $C$DW$497, DW_AT_name("VDS_Level_0p358_V")
    4209                      .dwattr $C$DW$497, DW_AT_const_value(0x78)
    4210              
    4211              $C$DW$498       .dwtag  DW_TAG_enumerator
    4212                      .dwattr $C$DW$498, DW_AT_name("VDS_Level_0p403_V")
    4213                      .dwattr $C$DW$498, DW_AT_const_value(0x80)
    4214              
    4215              $C$DW$499       .dwtag  DW_TAG_enumerator
    4216                      .dwattr $C$DW$499, DW_AT_name("VDS_Level_0p454_V")
    4217                      .dwattr $C$DW$499, DW_AT_const_value(0x88)
    4218              
    4219              $C$DW$500       .dwtag  DW_TAG_enumerator
    4220                      .dwattr $C$DW$500, DW_AT_name("VDS_Level_0p511_V")
    4221                      .dwattr $C$DW$500, DW_AT_const_value(0x90)
    4222              
    4223              $C$DW$501       .dwtag  DW_TAG_enumerator
    4224                      .dwattr $C$DW$501, DW_AT_name("VDS_Level_0p576_V")
    4225                      .dwattr $C$DW$501, DW_AT_const_value(0x98)
    4226              
    4227              $C$DW$502       .dwtag  DW_TAG_enumerator
    4228                      .dwattr $C$DW$502, DW_AT_name("VDS_Level_0p648_V")
    4229                      .dwattr $C$DW$502, DW_AT_const_value(0xa0)
    4230              
    4231              $C$DW$503       .dwtag  DW_TAG_enumerator
    4232                      .dwattr $C$DW$503, DW_AT_name("VDS_Level_0p730_V")
    4233                      .dwattr $C$DW$503, DW_AT_const_value(0xa8)
    4234              
    4235              $C$DW$504       .dwtag  DW_TAG_enumerator
    4236                      .dwattr $C$DW$504, DW_AT_name("VDS_Level_0p822_V")
    4237                      .dwattr $C$DW$504, DW_AT_const_value(0xb0)
    4238              
    4239              $C$DW$505       .dwtag  DW_TAG_enumerator
    4240                      .dwattr $C$DW$505, DW_AT_name("VDS_Level_0p926_V")
    4241                      .dwattr $C$DW$505, DW_AT_const_value(0xb8)
    4242              
    4243              $C$DW$506       .dwtag  DW_TAG_enumerator
    4244                      .dwattr $C$DW$506, DW_AT_name("VDS_Level_1p043_V")
TMS320C2000 Assembler PC v18.1.2 Sun Jun 17 14:52:32 2018

Tools Copyright (c) 1996-2017 Texas Instruments Incorporated
C:\Users\haowp\AppData\Local\Temp\{81472915-7FA4-430D-8ACB-BFB8F401620C} PAGE   83

    4245                      .dwattr $C$DW$506, DW_AT_const_value(0xc0)
    4246              
    4247              $C$DW$507       .dwtag  DW_TAG_enumerator
    4248                      .dwattr $C$DW$507, DW_AT_name("VDS_Level_1p175_V")
    4249                      .dwattr $C$DW$507, DW_AT_const_value(0xc8)
    4250              
    4251              $C$DW$508       .dwtag  DW_TAG_enumerator
    4252                      .dwattr $C$DW$508, DW_AT_name("VDS_Level_1p324_V")
    4253                      .dwattr $C$DW$508, DW_AT_const_value(0xd0)
    4254              
    4255              $C$DW$509       .dwtag  DW_TAG_enumerator
    4256                      .dwattr $C$DW$509, DW_AT_name("VDS_Level_1p491_V")
    4257                      .dwattr $C$DW$509, DW_AT_const_value(0xd8)
    4258              
    4259              $C$DW$510       .dwtag  DW_TAG_enumerator
    4260                      .dwattr $C$DW$510, DW_AT_name("VDS_Level_1p679_V")
    4261                      .dwattr $C$DW$510, DW_AT_const_value(0xe0)
    4262              
    4263              $C$DW$511       .dwtag  DW_TAG_enumerator
    4264                      .dwattr $C$DW$511, DW_AT_name("VDS_Level_1p892_V")
    4265                      .dwattr $C$DW$511, DW_AT_const_value(0xe8)
    4266              
    4267              $C$DW$512       .dwtag  DW_TAG_enumerator
    4268                      .dwattr $C$DW$512, DW_AT_name("VDS_Level_2p131_V")
    4269                      .dwattr $C$DW$512, DW_AT_const_value(0xf0)
    4270              
    4271                      .dwendtag $C$DW$T$128
    4272              
    4273              $C$DW$T$129     .dwtag  DW_TAG_typedef
    4274                      .dwattr $C$DW$T$129, DW_AT_name("DRV8305_CTRL0C_VDSLevel_e")
    4275                      .dwattr $C$DW$T$129, DW_AT_type(*$C$DW$T$128)
    4276                      .dwattr $C$DW$T$129, DW_AT_language(DW_LANG_C)
    4277              
    4278              
    4279              $C$DW$T$197     .dwtag  DW_TAG_enumeration_type
    4280                      .dwattr $C$DW$T$197, DW_AT_byte_size(0x01)
    4281              $C$DW$513       .dwtag  DW_TAG_enumerator
    4282                      .dwattr $C$DW$513, DW_AT_name("MOTOR_Type_Induction")
    4283                      .dwattr $C$DW$513, DW_AT_const_value(0x00)
    4284              
    4285              $C$DW$514       .dwtag  DW_TAG_enumerator
    4286                      .dwattr $C$DW$514, DW_AT_name("MOTOR_Type_Pm")
    4287                      .dwattr $C$DW$514, DW_AT_const_value(0x01)
    4288              
    4289                      .dwendtag $C$DW$T$197
    4290              
    4291              $C$DW$T$198     .dwtag  DW_TAG_typedef
    4292                      .dwattr $C$DW$T$198, DW_AT_name("MOTOR_Type_e")
    4293                      .dwattr $C$DW$T$198, DW_AT_type(*$C$DW$T$197)
    4294                      .dwattr $C$DW$T$198, DW_AT_language(DW_LANG_C)
    4295              
    4296              
    4297              $C$DW$T$200     .dwtag  DW_TAG_enumeration_type
    4298                      .dwattr $C$DW$T$200, DW_AT_byte_size(0x01)
    4299              $C$DW$515       .dwtag  DW_TAG_enumerator
TMS320C2000 Assembler PC v18.1.2 Sun Jun 17 14:52:32 2018

Tools Copyright (c) 1996-2017 Texas Instruments Incorporated
C:\Users\haowp\AppData\Local\Temp\{81472915-7FA4-430D-8ACB-BFB8F401620C} PAGE   84

    4300                      .dwattr $C$DW$515, DW_AT_name("EST_State_Error")
    4301                      .dwattr $C$DW$515, DW_AT_const_value(0x00)
    4302              
    4303              $C$DW$516       .dwtag  DW_TAG_enumerator
    4304                      .dwattr $C$DW$516, DW_AT_name("EST_State_Idle")
    4305                      .dwattr $C$DW$516, DW_AT_const_value(0x01)
    4306              
    4307              $C$DW$517       .dwtag  DW_TAG_enumerator
    4308                      .dwattr $C$DW$517, DW_AT_name("EST_State_RoverL")
    4309                      .dwattr $C$DW$517, DW_AT_const_value(0x02)
    4310              
    4311              $C$DW$518       .dwtag  DW_TAG_enumerator
    4312                      .dwattr $C$DW$518, DW_AT_name("EST_State_Rs")
    4313                      .dwattr $C$DW$518, DW_AT_const_value(0x03)
    4314              
    4315              $C$DW$519       .dwtag  DW_TAG_enumerator
    4316                      .dwattr $C$DW$519, DW_AT_name("EST_State_RampUp")
    4317                      .dwattr $C$DW$519, DW_AT_const_value(0x04)
    4318              
    4319              $C$DW$520       .dwtag  DW_TAG_enumerator
    4320                      .dwattr $C$DW$520, DW_AT_name("EST_State_IdRated")
    4321                      .dwattr $C$DW$520, DW_AT_const_value(0x05)
    4322              
    4323              $C$DW$521       .dwtag  DW_TAG_enumerator
    4324                      .dwattr $C$DW$521, DW_AT_name("EST_State_RatedFlux_OL")
    4325                      .dwattr $C$DW$521, DW_AT_const_value(0x06)
    4326              
    4327              $C$DW$522       .dwtag  DW_TAG_enumerator
    4328                      .dwattr $C$DW$522, DW_AT_name("EST_State_RatedFlux")
    4329                      .dwattr $C$DW$522, DW_AT_const_value(0x07)
    4330              
    4331              $C$DW$523       .dwtag  DW_TAG_enumerator
    4332                      .dwattr $C$DW$523, DW_AT_name("EST_State_RampDown")
    4333                      .dwattr $C$DW$523, DW_AT_const_value(0x08)
    4334              
    4335              $C$DW$524       .dwtag  DW_TAG_enumerator
    4336                      .dwattr $C$DW$524, DW_AT_name("EST_State_LockRotor")
    4337                      .dwattr $C$DW$524, DW_AT_const_value(0x09)
    4338              
    4339              $C$DW$525       .dwtag  DW_TAG_enumerator
    4340                      .dwattr $C$DW$525, DW_AT_name("EST_State_Ls")
    4341                      .dwattr $C$DW$525, DW_AT_const_value(0x0a)
    4342              
    4343              $C$DW$526       .dwtag  DW_TAG_enumerator
    4344                      .dwattr $C$DW$526, DW_AT_name("EST_State_Rr")
    4345                      .dwattr $C$DW$526, DW_AT_const_value(0x0b)
    4346              
    4347              $C$DW$527       .dwtag  DW_TAG_enumerator
    4348                      .dwattr $C$DW$527, DW_AT_name("EST_State_MotorIdentified")
    4349                      .dwattr $C$DW$527, DW_AT_const_value(0x0c)
    4350              
    4351              $C$DW$528       .dwtag  DW_TAG_enumerator
    4352                      .dwattr $C$DW$528, DW_AT_name("EST_State_OnLine")
    4353                      .dwattr $C$DW$528, DW_AT_const_value(0x0d)
    4354              
TMS320C2000 Assembler PC v18.1.2 Sun Jun 17 14:52:32 2018

Tools Copyright (c) 1996-2017 Texas Instruments Incorporated
C:\Users\haowp\AppData\Local\Temp\{81472915-7FA4-430D-8ACB-BFB8F401620C} PAGE   85

    4355              $C$DW$529       .dwtag  DW_TAG_enumerator
    4356                      .dwattr $C$DW$529, DW_AT_name("EST_numStates")
    4357                      .dwattr $C$DW$529, DW_AT_const_value(0x0e)
    4358              
    4359                      .dwendtag $C$DW$T$200
    4360              
    4361              $C$DW$T$201     .dwtag  DW_TAG_typedef
    4362                      .dwattr $C$DW$T$201, DW_AT_name("EST_State_e")
    4363                      .dwattr $C$DW$T$201, DW_AT_type(*$C$DW$T$200)
    4364                      .dwattr $C$DW$T$201, DW_AT_language(DW_LANG_C)
    4365              
    4366              
    4367              $C$DW$T$202     .dwtag  DW_TAG_enumeration_type
    4368                      .dwattr $C$DW$T$202, DW_AT_byte_size(0x01)
    4369              $C$DW$530       .dwtag  DW_TAG_enumerator
    4370                      .dwattr $C$DW$530, DW_AT_name("USER_ErrorCode_NoError")
    4371                      .dwattr $C$DW$530, DW_AT_const_value(0x00)
    4372              
    4373              $C$DW$531       .dwtag  DW_TAG_enumerator
    4374                      .dwattr $C$DW$531, DW_AT_name("USER_ErrorCode_iqFullScaleCurrent_A_High")
    4375                      .dwattr $C$DW$531, DW_AT_const_value(0x01)
    4376              
    4377              $C$DW$532       .dwtag  DW_TAG_enumerator
    4378                      .dwattr $C$DW$532, DW_AT_name("USER_ErrorCode_iqFullScaleCurrent_A_Low")
    4379                      .dwattr $C$DW$532, DW_AT_const_value(0x02)
    4380              
    4381              $C$DW$533       .dwtag  DW_TAG_enumerator
    4382                      .dwattr $C$DW$533, DW_AT_name("USER_ErrorCode_iqFullScaleVoltage_V_High")
    4383                      .dwattr $C$DW$533, DW_AT_const_value(0x03)
    4384              
    4385              $C$DW$534       .dwtag  DW_TAG_enumerator
    4386                      .dwattr $C$DW$534, DW_AT_name("USER_ErrorCode_iqFullScaleVoltage_V_Low")
    4387                      .dwattr $C$DW$534, DW_AT_const_value(0x04)
    4388              
    4389              $C$DW$535       .dwtag  DW_TAG_enumerator
    4390                      .dwattr $C$DW$535, DW_AT_name("USER_ErrorCode_iqFullScaleFreq_Hz_High")
    4391                      .dwattr $C$DW$535, DW_AT_const_value(0x05)
    4392              
    4393              $C$DW$536       .dwtag  DW_TAG_enumerator
    4394                      .dwattr $C$DW$536, DW_AT_name("USER_ErrorCode_iqFullScaleFreq_Hz_Low")
    4395                      .dwattr $C$DW$536, DW_AT_const_value(0x06)
    4396              
    4397              $C$DW$537       .dwtag  DW_TAG_enumerator
    4398                      .dwattr $C$DW$537, DW_AT_name("USER_ErrorCode_numPwmTicksPerIsrTick_High")
    4399                      .dwattr $C$DW$537, DW_AT_const_value(0x07)
    4400              
    4401              $C$DW$538       .dwtag  DW_TAG_enumerator
    4402                      .dwattr $C$DW$538, DW_AT_name("USER_ErrorCode_numPwmTicksPerIsrTick_Low")
    4403                      .dwattr $C$DW$538, DW_AT_const_value(0x08)
    4404              
    4405              $C$DW$539       .dwtag  DW_TAG_enumerator
    4406                      .dwattr $C$DW$539, DW_AT_name("USER_ErrorCode_numIsrTicksPerCtrlTick_High")
    4407                      .dwattr $C$DW$539, DW_AT_const_value(0x09)
    4408              
    4409              $C$DW$540       .dwtag  DW_TAG_enumerator
TMS320C2000 Assembler PC v18.1.2 Sun Jun 17 14:52:32 2018

Tools Copyright (c) 1996-2017 Texas Instruments Incorporated
C:\Users\haowp\AppData\Local\Temp\{81472915-7FA4-430D-8ACB-BFB8F401620C} PAGE   86

    4410                      .dwattr $C$DW$540, DW_AT_name("USER_ErrorCode_numIsrTicksPerCtrlTick_Low")
    4411                      .dwattr $C$DW$540, DW_AT_const_value(0x0a)
    4412              
    4413              $C$DW$541       .dwtag  DW_TAG_enumerator
    4414                      .dwattr $C$DW$541, DW_AT_name("USER_ErrorCode_numCtrlTicksPerCurrentTick_High")
    4415                      .dwattr $C$DW$541, DW_AT_const_value(0x0b)
    4416              
    4417              $C$DW$542       .dwtag  DW_TAG_enumerator
    4418                      .dwattr $C$DW$542, DW_AT_name("USER_ErrorCode_numCtrlTicksPerCurrentTick_Low")
    4419                      .dwattr $C$DW$542, DW_AT_const_value(0x0c)
    4420              
    4421              $C$DW$543       .dwtag  DW_TAG_enumerator
    4422                      .dwattr $C$DW$543, DW_AT_name("USER_ErrorCode_numCtrlTicksPerEstTick_High")
    4423                      .dwattr $C$DW$543, DW_AT_const_value(0x0d)
    4424              
    4425              $C$DW$544       .dwtag  DW_TAG_enumerator
    4426                      .dwattr $C$DW$544, DW_AT_name("USER_ErrorCode_numCtrlTicksPerEstTick_Low")
    4427                      .dwattr $C$DW$544, DW_AT_const_value(0x0e)
    4428              
    4429              $C$DW$545       .dwtag  DW_TAG_enumerator
    4430                      .dwattr $C$DW$545, DW_AT_name("USER_ErrorCode_numCtrlTicksPerSpeedTick_High")
    4431                      .dwattr $C$DW$545, DW_AT_const_value(0x0f)
    4432              
    4433              $C$DW$546       .dwtag  DW_TAG_enumerator
    4434                      .dwattr $C$DW$546, DW_AT_name("USER_ErrorCode_numCtrlTicksPerSpeedTick_Low")
    4435                      .dwattr $C$DW$546, DW_AT_const_value(0x10)
    4436              
    4437              $C$DW$547       .dwtag  DW_TAG_enumerator
    4438                      .dwattr $C$DW$547, DW_AT_name("USER_ErrorCode_numCtrlTicksPerTrajTick_High")
    4439                      .dwattr $C$DW$547, DW_AT_const_value(0x11)
    4440              
    4441              $C$DW$548       .dwtag  DW_TAG_enumerator
    4442                      .dwattr $C$DW$548, DW_AT_name("USER_ErrorCode_numCtrlTicksPerTrajTick_Low")
    4443                      .dwattr $C$DW$548, DW_AT_const_value(0x12)
    4444              
    4445              $C$DW$549       .dwtag  DW_TAG_enumerator
    4446                      .dwattr $C$DW$549, DW_AT_name("USER_ErrorCode_numCurrentSensors_High")
    4447                      .dwattr $C$DW$549, DW_AT_const_value(0x13)
    4448              
    4449              $C$DW$550       .dwtag  DW_TAG_enumerator
    4450                      .dwattr $C$DW$550, DW_AT_name("USER_ErrorCode_numCurrentSensors_Low")
    4451                      .dwattr $C$DW$550, DW_AT_const_value(0x14)
    4452              
    4453              $C$DW$551       .dwtag  DW_TAG_enumerator
    4454                      .dwattr $C$DW$551, DW_AT_name("USER_ErrorCode_numVoltageSensors_High")
    4455                      .dwattr $C$DW$551, DW_AT_const_value(0x15)
    4456              
    4457              $C$DW$552       .dwtag  DW_TAG_enumerator
    4458                      .dwattr $C$DW$552, DW_AT_name("USER_ErrorCode_numVoltageSensors_Low")
    4459                      .dwattr $C$DW$552, DW_AT_const_value(0x16)
    4460              
    4461              $C$DW$553       .dwtag  DW_TAG_enumerator
    4462                      .dwattr $C$DW$553, DW_AT_name("USER_ErrorCode_offsetPole_rps_High")
    4463                      .dwattr $C$DW$553, DW_AT_const_value(0x17)
    4464              
TMS320C2000 Assembler PC v18.1.2 Sun Jun 17 14:52:32 2018

Tools Copyright (c) 1996-2017 Texas Instruments Incorporated
C:\Users\haowp\AppData\Local\Temp\{81472915-7FA4-430D-8ACB-BFB8F401620C} PAGE   87

    4465              $C$DW$554       .dwtag  DW_TAG_enumerator
    4466                      .dwattr $C$DW$554, DW_AT_name("USER_ErrorCode_offsetPole_rps_Low")
    4467                      .dwattr $C$DW$554, DW_AT_const_value(0x18)
    4468              
    4469              $C$DW$555       .dwtag  DW_TAG_enumerator
    4470                      .dwattr $C$DW$555, DW_AT_name("USER_ErrorCode_fluxPole_rps_High")
    4471                      .dwattr $C$DW$555, DW_AT_const_value(0x19)
    4472              
    4473              $C$DW$556       .dwtag  DW_TAG_enumerator
    4474                      .dwattr $C$DW$556, DW_AT_name("USER_ErrorCode_fluxPole_rps_Low")
    4475                      .dwattr $C$DW$556, DW_AT_const_value(0x1a)
    4476              
    4477              $C$DW$557       .dwtag  DW_TAG_enumerator
    4478                      .dwattr $C$DW$557, DW_AT_name("USER_ErrorCode_zeroSpeedLimit_High")
    4479                      .dwattr $C$DW$557, DW_AT_const_value(0x1b)
    4480              
    4481              $C$DW$558       .dwtag  DW_TAG_enumerator
    4482                      .dwattr $C$DW$558, DW_AT_name("USER_ErrorCode_zeroSpeedLimit_Low")
    4483                      .dwattr $C$DW$558, DW_AT_const_value(0x1c)
    4484              
    4485              $C$DW$559       .dwtag  DW_TAG_enumerator
    4486                      .dwattr $C$DW$559, DW_AT_name("USER_ErrorCode_forceAngleFreq_Hz_High")
    4487                      .dwattr $C$DW$559, DW_AT_const_value(0x1d)
    4488              
    4489              $C$DW$560       .dwtag  DW_TAG_enumerator
    4490                      .dwattr $C$DW$560, DW_AT_name("USER_ErrorCode_forceAngleFreq_Hz_Low")
    4491                      .dwattr $C$DW$560, DW_AT_const_value(0x1e)
    4492              
    4493              $C$DW$561       .dwtag  DW_TAG_enumerator
    4494                      .dwattr $C$DW$561, DW_AT_name("USER_ErrorCode_maxAccel_Hzps_High")
    4495                      .dwattr $C$DW$561, DW_AT_const_value(0x1f)
    4496              
    4497              $C$DW$562       .dwtag  DW_TAG_enumerator
    4498                      .dwattr $C$DW$562, DW_AT_name("USER_ErrorCode_maxAccel_Hzps_Low")
    4499                      .dwattr $C$DW$562, DW_AT_const_value(0x20)
    4500              
    4501              $C$DW$563       .dwtag  DW_TAG_enumerator
    4502                      .dwattr $C$DW$563, DW_AT_name("USER_ErrorCode_maxAccel_est_Hzps_High")
    4503                      .dwattr $C$DW$563, DW_AT_const_value(0x21)
    4504              
    4505              $C$DW$564       .dwtag  DW_TAG_enumerator
    4506                      .dwattr $C$DW$564, DW_AT_name("USER_ErrorCode_maxAccel_est_Hzps_Low")
    4507                      .dwattr $C$DW$564, DW_AT_const_value(0x22)
    4508              
    4509              $C$DW$565       .dwtag  DW_TAG_enumerator
    4510                      .dwattr $C$DW$565, DW_AT_name("USER_ErrorCode_directionPole_rps_High")
    4511                      .dwattr $C$DW$565, DW_AT_const_value(0x23)
    4512              
    4513              $C$DW$566       .dwtag  DW_TAG_enumerator
    4514                      .dwattr $C$DW$566, DW_AT_name("USER_ErrorCode_directionPole_rps_Low")
    4515                      .dwattr $C$DW$566, DW_AT_const_value(0x24)
    4516              
    4517              $C$DW$567       .dwtag  DW_TAG_enumerator
    4518                      .dwattr $C$DW$567, DW_AT_name("USER_ErrorCode_speedPole_rps_High")
    4519                      .dwattr $C$DW$567, DW_AT_const_value(0x25)
TMS320C2000 Assembler PC v18.1.2 Sun Jun 17 14:52:32 2018

Tools Copyright (c) 1996-2017 Texas Instruments Incorporated
C:\Users\haowp\AppData\Local\Temp\{81472915-7FA4-430D-8ACB-BFB8F401620C} PAGE   88

    4520              
    4521              $C$DW$568       .dwtag  DW_TAG_enumerator
    4522                      .dwattr $C$DW$568, DW_AT_name("USER_ErrorCode_speedPole_rps_Low")
    4523                      .dwattr $C$DW$568, DW_AT_const_value(0x26)
    4524              
    4525              $C$DW$569       .dwtag  DW_TAG_enumerator
    4526                      .dwattr $C$DW$569, DW_AT_name("USER_ErrorCode_dcBusPole_rps_High")
    4527                      .dwattr $C$DW$569, DW_AT_const_value(0x27)
    4528              
    4529              $C$DW$570       .dwtag  DW_TAG_enumerator
    4530                      .dwattr $C$DW$570, DW_AT_name("USER_ErrorCode_dcBusPole_rps_Low")
    4531                      .dwattr $C$DW$570, DW_AT_const_value(0x28)
    4532              
    4533              $C$DW$571       .dwtag  DW_TAG_enumerator
    4534                      .dwattr $C$DW$571, DW_AT_name("USER_ErrorCode_fluxFraction_High")
    4535                      .dwattr $C$DW$571, DW_AT_const_value(0x29)
    4536              
    4537              $C$DW$572       .dwtag  DW_TAG_enumerator
    4538                      .dwattr $C$DW$572, DW_AT_name("USER_ErrorCode_fluxFraction_Low")
    4539                      .dwattr $C$DW$572, DW_AT_const_value(0x2a)
    4540              
    4541              $C$DW$573       .dwtag  DW_TAG_enumerator
    4542                      .dwattr $C$DW$573, DW_AT_name("USER_ErrorCode_indEst_speedMaxFraction_High")
    4543                      .dwattr $C$DW$573, DW_AT_const_value(0x2b)
    4544              
    4545              $C$DW$574       .dwtag  DW_TAG_enumerator
    4546                      .dwattr $C$DW$574, DW_AT_name("USER_ErrorCode_indEst_speedMaxFraction_Low")
    4547                      .dwattr $C$DW$574, DW_AT_const_value(0x2c)
    4548              
    4549              $C$DW$575       .dwtag  DW_TAG_enumerator
    4550                      .dwattr $C$DW$575, DW_AT_name("USER_ErrorCode_powerWarpGain_High")
    4551                      .dwattr $C$DW$575, DW_AT_const_value(0x2d)
    4552              
    4553              $C$DW$576       .dwtag  DW_TAG_enumerator
    4554                      .dwattr $C$DW$576, DW_AT_name("USER_ErrorCode_powerWarpGain_Low")
    4555                      .dwattr $C$DW$576, DW_AT_const_value(0x2e)
    4556              
    4557              $C$DW$577       .dwtag  DW_TAG_enumerator
    4558                      .dwattr $C$DW$577, DW_AT_name("USER_ErrorCode_systemFreq_MHz_High")
    4559                      .dwattr $C$DW$577, DW_AT_const_value(0x2f)
    4560              
    4561              $C$DW$578       .dwtag  DW_TAG_enumerator
    4562                      .dwattr $C$DW$578, DW_AT_name("USER_ErrorCode_systemFreq_MHz_Low")
    4563                      .dwattr $C$DW$578, DW_AT_const_value(0x30)
    4564              
    4565              $C$DW$579       .dwtag  DW_TAG_enumerator
    4566                      .dwattr $C$DW$579, DW_AT_name("USER_ErrorCode_pwmFreq_kHz_High")
    4567                      .dwattr $C$DW$579, DW_AT_const_value(0x31)
    4568              
    4569              $C$DW$580       .dwtag  DW_TAG_enumerator
    4570                      .dwattr $C$DW$580, DW_AT_name("USER_ErrorCode_pwmFreq_kHz_Low")
    4571                      .dwattr $C$DW$580, DW_AT_const_value(0x32)
    4572              
    4573              $C$DW$581       .dwtag  DW_TAG_enumerator
    4574                      .dwattr $C$DW$581, DW_AT_name("USER_ErrorCode_voltage_sf_High")
TMS320C2000 Assembler PC v18.1.2 Sun Jun 17 14:52:32 2018

Tools Copyright (c) 1996-2017 Texas Instruments Incorporated
C:\Users\haowp\AppData\Local\Temp\{81472915-7FA4-430D-8ACB-BFB8F401620C} PAGE   89

    4575                      .dwattr $C$DW$581, DW_AT_const_value(0x33)
    4576              
    4577              $C$DW$582       .dwtag  DW_TAG_enumerator
    4578                      .dwattr $C$DW$582, DW_AT_name("USER_ErrorCode_voltage_sf_Low")
    4579                      .dwattr $C$DW$582, DW_AT_const_value(0x34)
    4580              
    4581              $C$DW$583       .dwtag  DW_TAG_enumerator
    4582                      .dwattr $C$DW$583, DW_AT_name("USER_ErrorCode_current_sf_High")
    4583                      .dwattr $C$DW$583, DW_AT_const_value(0x35)
    4584              
    4585              $C$DW$584       .dwtag  DW_TAG_enumerator
    4586                      .dwattr $C$DW$584, DW_AT_name("USER_ErrorCode_current_sf_Low")
    4587                      .dwattr $C$DW$584, DW_AT_const_value(0x36)
    4588              
    4589              $C$DW$585       .dwtag  DW_TAG_enumerator
    4590                      .dwattr $C$DW$585, DW_AT_name("USER_ErrorCode_voltageFilterPole_Hz_High")
    4591                      .dwattr $C$DW$585, DW_AT_const_value(0x37)
    4592              
    4593              $C$DW$586       .dwtag  DW_TAG_enumerator
    4594                      .dwattr $C$DW$586, DW_AT_name("USER_ErrorCode_voltageFilterPole_Hz_Low")
    4595                      .dwattr $C$DW$586, DW_AT_const_value(0x38)
    4596              
    4597              $C$DW$587       .dwtag  DW_TAG_enumerator
    4598                      .dwattr $C$DW$587, DW_AT_name("USER_ErrorCode_maxVsMag_pu_High")
    4599                      .dwattr $C$DW$587, DW_AT_const_value(0x39)
    4600              
    4601              $C$DW$588       .dwtag  DW_TAG_enumerator
    4602                      .dwattr $C$DW$588, DW_AT_name("USER_ErrorCode_maxVsMag_pu_Low")
    4603                      .dwattr $C$DW$588, DW_AT_const_value(0x3a)
    4604              
    4605              $C$DW$589       .dwtag  DW_TAG_enumerator
    4606                      .dwattr $C$DW$589, DW_AT_name("USER_ErrorCode_estKappa_High")
    4607                      .dwattr $C$DW$589, DW_AT_const_value(0x3b)
    4608              
    4609              $C$DW$590       .dwtag  DW_TAG_enumerator
    4610                      .dwattr $C$DW$590, DW_AT_name("USER_ErrorCode_estKappa_Low")
    4611                      .dwattr $C$DW$590, DW_AT_const_value(0x3c)
    4612              
    4613              $C$DW$591       .dwtag  DW_TAG_enumerator
    4614                      .dwattr $C$DW$591, DW_AT_name("USER_ErrorCode_motor_type_Unknown")
    4615                      .dwattr $C$DW$591, DW_AT_const_value(0x3d)
    4616              
    4617              $C$DW$592       .dwtag  DW_TAG_enumerator
    4618                      .dwattr $C$DW$592, DW_AT_name("USER_ErrorCode_motor_numPolePairs_High")
    4619                      .dwattr $C$DW$592, DW_AT_const_value(0x3e)
    4620              
    4621              $C$DW$593       .dwtag  DW_TAG_enumerator
    4622                      .dwattr $C$DW$593, DW_AT_name("USER_ErrorCode_motor_numPolePairs_Low")
    4623                      .dwattr $C$DW$593, DW_AT_const_value(0x3f)
    4624              
    4625              $C$DW$594       .dwtag  DW_TAG_enumerator
    4626                      .dwattr $C$DW$594, DW_AT_name("USER_ErrorCode_motor_ratedFlux_High")
    4627                      .dwattr $C$DW$594, DW_AT_const_value(0x40)
    4628              
    4629              $C$DW$595       .dwtag  DW_TAG_enumerator
TMS320C2000 Assembler PC v18.1.2 Sun Jun 17 14:52:32 2018

Tools Copyright (c) 1996-2017 Texas Instruments Incorporated
C:\Users\haowp\AppData\Local\Temp\{81472915-7FA4-430D-8ACB-BFB8F401620C} PAGE   90

    4630                      .dwattr $C$DW$595, DW_AT_name("USER_ErrorCode_motor_ratedFlux_Low")
    4631                      .dwattr $C$DW$595, DW_AT_const_value(0x41)
    4632              
    4633              $C$DW$596       .dwtag  DW_TAG_enumerator
    4634                      .dwattr $C$DW$596, DW_AT_name("USER_ErrorCode_motor_Rr_High")
    4635                      .dwattr $C$DW$596, DW_AT_const_value(0x42)
    4636              
    4637              $C$DW$597       .dwtag  DW_TAG_enumerator
    4638                      .dwattr $C$DW$597, DW_AT_name("USER_ErrorCode_motor_Rr_Low")
    4639                      .dwattr $C$DW$597, DW_AT_const_value(0x43)
    4640              
    4641              $C$DW$598       .dwtag  DW_TAG_enumerator
    4642                      .dwattr $C$DW$598, DW_AT_name("USER_ErrorCode_motor_Rs_High")
    4643                      .dwattr $C$DW$598, DW_AT_const_value(0x44)
    4644              
    4645              $C$DW$599       .dwtag  DW_TAG_enumerator
    4646                      .dwattr $C$DW$599, DW_AT_name("USER_ErrorCode_motor_Rs_Low")
    4647                      .dwattr $C$DW$599, DW_AT_const_value(0x45)
    4648              
    4649              $C$DW$600       .dwtag  DW_TAG_enumerator
    4650                      .dwattr $C$DW$600, DW_AT_name("USER_ErrorCode_motor_Ls_d_High")
    4651                      .dwattr $C$DW$600, DW_AT_const_value(0x46)
    4652              
    4653              $C$DW$601       .dwtag  DW_TAG_enumerator
    4654                      .dwattr $C$DW$601, DW_AT_name("USER_ErrorCode_motor_Ls_d_Low")
    4655                      .dwattr $C$DW$601, DW_AT_const_value(0x47)
    4656              
    4657              $C$DW$602       .dwtag  DW_TAG_enumerator
    4658                      .dwattr $C$DW$602, DW_AT_name("USER_ErrorCode_motor_Ls_q_High")
    4659                      .dwattr $C$DW$602, DW_AT_const_value(0x48)
    4660              
    4661              $C$DW$603       .dwtag  DW_TAG_enumerator
    4662                      .dwattr $C$DW$603, DW_AT_name("USER_ErrorCode_motor_Ls_q_Low")
    4663                      .dwattr $C$DW$603, DW_AT_const_value(0x49)
    4664              
    4665              $C$DW$604       .dwtag  DW_TAG_enumerator
    4666                      .dwattr $C$DW$604, DW_AT_name("USER_ErrorCode_maxCurrent_High")
    4667                      .dwattr $C$DW$604, DW_AT_const_value(0x4a)
    4668              
    4669              $C$DW$605       .dwtag  DW_TAG_enumerator
    4670                      .dwattr $C$DW$605, DW_AT_name("USER_ErrorCode_maxCurrent_Low")
    4671                      .dwattr $C$DW$605, DW_AT_const_value(0x4b)
    4672              
    4673              $C$DW$606       .dwtag  DW_TAG_enumerator
    4674                      .dwattr $C$DW$606, DW_AT_name("USER_ErrorCode_maxCurrent_resEst_High")
    4675                      .dwattr $C$DW$606, DW_AT_const_value(0x4c)
    4676              
    4677              $C$DW$607       .dwtag  DW_TAG_enumerator
    4678                      .dwattr $C$DW$607, DW_AT_name("USER_ErrorCode_maxCurrent_resEst_Low")
    4679                      .dwattr $C$DW$607, DW_AT_const_value(0x4d)
    4680              
    4681              $C$DW$608       .dwtag  DW_TAG_enumerator
    4682                      .dwattr $C$DW$608, DW_AT_name("USER_ErrorCode_maxCurrent_indEst_High")
    4683                      .dwattr $C$DW$608, DW_AT_const_value(0x4e)
    4684              
TMS320C2000 Assembler PC v18.1.2 Sun Jun 17 14:52:32 2018

Tools Copyright (c) 1996-2017 Texas Instruments Incorporated
C:\Users\haowp\AppData\Local\Temp\{81472915-7FA4-430D-8ACB-BFB8F401620C} PAGE   91

    4685              $C$DW$609       .dwtag  DW_TAG_enumerator
    4686                      .dwattr $C$DW$609, DW_AT_name("USER_ErrorCode_maxCurrent_indEst_Low")
    4687                      .dwattr $C$DW$609, DW_AT_const_value(0x4f)
    4688              
    4689              $C$DW$610       .dwtag  DW_TAG_enumerator
    4690                      .dwattr $C$DW$610, DW_AT_name("USER_ErrorCode_maxCurrentSlope_High")
    4691                      .dwattr $C$DW$610, DW_AT_const_value(0x50)
    4692              
    4693              $C$DW$611       .dwtag  DW_TAG_enumerator
    4694                      .dwattr $C$DW$611, DW_AT_name("USER_ErrorCode_maxCurrentSlope_Low")
    4695                      .dwattr $C$DW$611, DW_AT_const_value(0x51)
    4696              
    4697              $C$DW$612       .dwtag  DW_TAG_enumerator
    4698                      .dwattr $C$DW$612, DW_AT_name("USER_ErrorCode_maxCurrentSlope_powerWarp_High")
    4699                      .dwattr $C$DW$612, DW_AT_const_value(0x52)
    4700              
    4701              $C$DW$613       .dwtag  DW_TAG_enumerator
    4702                      .dwattr $C$DW$613, DW_AT_name("USER_ErrorCode_maxCurrentSlope_powerWarp_Low")
    4703                      .dwattr $C$DW$613, DW_AT_const_value(0x53)
    4704              
    4705              $C$DW$614       .dwtag  DW_TAG_enumerator
    4706                      .dwattr $C$DW$614, DW_AT_name("USER_ErrorCode_IdRated_High")
    4707                      .dwattr $C$DW$614, DW_AT_const_value(0x54)
    4708              
    4709              $C$DW$615       .dwtag  DW_TAG_enumerator
    4710                      .dwattr $C$DW$615, DW_AT_name("USER_ErrorCode_IdRated_Low")
    4711                      .dwattr $C$DW$615, DW_AT_const_value(0x55)
    4712              
    4713              $C$DW$616       .dwtag  DW_TAG_enumerator
    4714                      .dwattr $C$DW$616, DW_AT_name("USER_ErrorCode_IdRatedFraction_indEst_High")
    4715                      .dwattr $C$DW$616, DW_AT_const_value(0x56)
    4716              
    4717              $C$DW$617       .dwtag  DW_TAG_enumerator
    4718                      .dwattr $C$DW$617, DW_AT_name("USER_ErrorCode_IdRatedFraction_indEst_Low")
    4719                      .dwattr $C$DW$617, DW_AT_const_value(0x57)
    4720              
    4721              $C$DW$618       .dwtag  DW_TAG_enumerator
    4722                      .dwattr $C$DW$618, DW_AT_name("USER_ErrorCode_IdRatedFraction_ratedFlux_High")
    4723                      .dwattr $C$DW$618, DW_AT_const_value(0x58)
    4724              
    4725              $C$DW$619       .dwtag  DW_TAG_enumerator
    4726                      .dwattr $C$DW$619, DW_AT_name("USER_ErrorCode_IdRatedFraction_ratedFlux_Low")
    4727                      .dwattr $C$DW$619, DW_AT_const_value(0x59)
    4728              
    4729              $C$DW$620       .dwtag  DW_TAG_enumerator
    4730                      .dwattr $C$DW$620, DW_AT_name("USER_ErrorCode_IdRated_delta_High")
    4731                      .dwattr $C$DW$620, DW_AT_const_value(0x5a)
    4732              
    4733              $C$DW$621       .dwtag  DW_TAG_enumerator
    4734                      .dwattr $C$DW$621, DW_AT_name("USER_ErrorCode_IdRated_delta_Low")
    4735                      .dwattr $C$DW$621, DW_AT_const_value(0x5b)
    4736              
    4737              $C$DW$622       .dwtag  DW_TAG_enumerator
    4738                      .dwattr $C$DW$622, DW_AT_name("USER_ErrorCode_fluxEstFreq_Hz_High")
    4739                      .dwattr $C$DW$622, DW_AT_const_value(0x5c)
TMS320C2000 Assembler PC v18.1.2 Sun Jun 17 14:52:32 2018

Tools Copyright (c) 1996-2017 Texas Instruments Incorporated
C:\Users\haowp\AppData\Local\Temp\{81472915-7FA4-430D-8ACB-BFB8F401620C} PAGE   92

    4740              
    4741              $C$DW$623       .dwtag  DW_TAG_enumerator
    4742                      .dwattr $C$DW$623, DW_AT_name("USER_ErrorCode_fluxEstFreq_Hz_Low")
    4743                      .dwattr $C$DW$623, DW_AT_const_value(0x5d)
    4744              
    4745              $C$DW$624       .dwtag  DW_TAG_enumerator
    4746                      .dwattr $C$DW$624, DW_AT_name("USER_ErrorCode_ctrlFreq_Hz_High")
    4747                      .dwattr $C$DW$624, DW_AT_const_value(0x5e)
    4748              
    4749              $C$DW$625       .dwtag  DW_TAG_enumerator
    4750                      .dwattr $C$DW$625, DW_AT_name("USER_ErrorCode_ctrlFreq_Hz_Low")
    4751                      .dwattr $C$DW$625, DW_AT_const_value(0x5f)
    4752              
    4753              $C$DW$626       .dwtag  DW_TAG_enumerator
    4754                      .dwattr $C$DW$626, DW_AT_name("USER_ErrorCode_estFreq_Hz_High")
    4755                      .dwattr $C$DW$626, DW_AT_const_value(0x60)
    4756              
    4757              $C$DW$627       .dwtag  DW_TAG_enumerator
    4758                      .dwattr $C$DW$627, DW_AT_name("USER_ErrorCode_estFreq_Hz_Low")
    4759                      .dwattr $C$DW$627, DW_AT_const_value(0x61)
    4760              
    4761              $C$DW$628       .dwtag  DW_TAG_enumerator
    4762                      .dwattr $C$DW$628, DW_AT_name("USER_ErrorCode_RoverL_estFreq_Hz_High")
    4763                      .dwattr $C$DW$628, DW_AT_const_value(0x62)
    4764              
    4765              $C$DW$629       .dwtag  DW_TAG_enumerator
    4766                      .dwattr $C$DW$629, DW_AT_name("USER_ErrorCode_RoverL_estFreq_Hz_Low")
    4767                      .dwattr $C$DW$629, DW_AT_const_value(0x63)
    4768              
    4769              $C$DW$630       .dwtag  DW_TAG_enumerator
    4770                      .dwattr $C$DW$630, DW_AT_name("USER_ErrorCode_trajFreq_Hz_High")
    4771                      .dwattr $C$DW$630, DW_AT_const_value(0x64)
    4772              
    4773              $C$DW$631       .dwtag  DW_TAG_enumerator
    4774                      .dwattr $C$DW$631, DW_AT_name("USER_ErrorCode_trajFreq_Hz_Low")
    4775                      .dwattr $C$DW$631, DW_AT_const_value(0x65)
    4776              
    4777              $C$DW$632       .dwtag  DW_TAG_enumerator
    4778                      .dwattr $C$DW$632, DW_AT_name("USER_ErrorCode_ctrlPeriod_sec_High")
    4779                      .dwattr $C$DW$632, DW_AT_const_value(0x66)
    4780              
    4781              $C$DW$633       .dwtag  DW_TAG_enumerator
    4782                      .dwattr $C$DW$633, DW_AT_name("USER_ErrorCode_ctrlPeriod_sec_Low")
    4783                      .dwattr $C$DW$633, DW_AT_const_value(0x67)
    4784              
    4785              $C$DW$634       .dwtag  DW_TAG_enumerator
    4786                      .dwattr $C$DW$634, DW_AT_name("USER_ErrorCode_maxNegativeIdCurrent_a_High")
    4787                      .dwattr $C$DW$634, DW_AT_const_value(0x68)
    4788              
    4789              $C$DW$635       .dwtag  DW_TAG_enumerator
    4790                      .dwattr $C$DW$635, DW_AT_name("USER_ErrorCode_maxNegativeIdCurrent_a_Low")
    4791                      .dwattr $C$DW$635, DW_AT_const_value(0x69)
    4792              
    4793              $C$DW$636       .dwtag  DW_TAG_enumerator
    4794                      .dwattr $C$DW$636, DW_AT_name("USER_numErrorCodes")
TMS320C2000 Assembler PC v18.1.2 Sun Jun 17 14:52:32 2018

Tools Copyright (c) 1996-2017 Texas Instruments Incorporated
C:\Users\haowp\AppData\Local\Temp\{81472915-7FA4-430D-8ACB-BFB8F401620C} PAGE   93

    4795                      .dwattr $C$DW$636, DW_AT_const_value(0x6a)
    4796              
    4797                      .dwendtag $C$DW$T$202
    4798              
    4799              $C$DW$T$203     .dwtag  DW_TAG_typedef
    4800                      .dwattr $C$DW$T$203, DW_AT_name("USER_ErrorCode_e")
    4801                      .dwattr $C$DW$T$203, DW_AT_type(*$C$DW$T$202)
    4802                      .dwattr $C$DW$T$203, DW_AT_language(DW_LANG_C)
    4803              
    4804              
    4805              $C$DW$T$248     .dwtag  DW_TAG_enumeration_type
    4806                      .dwattr $C$DW$T$248, DW_AT_byte_size(0x01)
    4807              $C$DW$637       .dwtag  DW_TAG_enumerator
    4808                      .dwattr $C$DW$637, DW_AT_name("ADC_IntNumber_1")
    4809                      .dwattr $C$DW$637, DW_AT_const_value(0x00)
    4810              
    4811              $C$DW$638       .dwtag  DW_TAG_enumerator
    4812                      .dwattr $C$DW$638, DW_AT_name("ADC_IntNumber_2")
    4813                      .dwattr $C$DW$638, DW_AT_const_value(0x01)
    4814              
    4815              $C$DW$639       .dwtag  DW_TAG_enumerator
    4816                      .dwattr $C$DW$639, DW_AT_name("ADC_IntNumber_3")
    4817                      .dwattr $C$DW$639, DW_AT_const_value(0x02)
    4818              
    4819              $C$DW$640       .dwtag  DW_TAG_enumerator
    4820                      .dwattr $C$DW$640, DW_AT_name("ADC_IntNumber_4")
    4821                      .dwattr $C$DW$640, DW_AT_const_value(0x03)
    4822              
    4823              $C$DW$641       .dwtag  DW_TAG_enumerator
    4824                      .dwattr $C$DW$641, DW_AT_name("ADC_IntNumber_5")
    4825                      .dwattr $C$DW$641, DW_AT_const_value(0x04)
    4826              
    4827              $C$DW$642       .dwtag  DW_TAG_enumerator
    4828                      .dwattr $C$DW$642, DW_AT_name("ADC_IntNumber_6")
    4829                      .dwattr $C$DW$642, DW_AT_const_value(0x05)
    4830              
    4831              $C$DW$643       .dwtag  DW_TAG_enumerator
    4832                      .dwattr $C$DW$643, DW_AT_name("ADC_IntNumber_7")
    4833                      .dwattr $C$DW$643, DW_AT_const_value(0x06)
    4834              
    4835              $C$DW$644       .dwtag  DW_TAG_enumerator
    4836                      .dwattr $C$DW$644, DW_AT_name("ADC_IntNumber_8")
    4837                      .dwattr $C$DW$644, DW_AT_const_value(0x07)
    4838              
    4839              $C$DW$645       .dwtag  DW_TAG_enumerator
    4840                      .dwattr $C$DW$645, DW_AT_name("ADC_IntNumber_9")
    4841                      .dwattr $C$DW$645, DW_AT_const_value(0x08)
    4842              
    4843              $C$DW$646       .dwtag  DW_TAG_enumerator
    4844                      .dwattr $C$DW$646, DW_AT_name("ADC_IntNumber_1HP")
    4845                      .dwattr $C$DW$646, DW_AT_const_value(0x09)
    4846              
    4847              $C$DW$647       .dwtag  DW_TAG_enumerator
    4848                      .dwattr $C$DW$647, DW_AT_name("ADC_IntNumber_2HP")
    4849                      .dwattr $C$DW$647, DW_AT_const_value(0x0a)
TMS320C2000 Assembler PC v18.1.2 Sun Jun 17 14:52:32 2018

Tools Copyright (c) 1996-2017 Texas Instruments Incorporated
C:\Users\haowp\AppData\Local\Temp\{81472915-7FA4-430D-8ACB-BFB8F401620C} PAGE   94

    4850              
    4851              $C$DW$648       .dwtag  DW_TAG_enumerator
    4852                      .dwattr $C$DW$648, DW_AT_name("ADC_IntNumber_9HP")
    4853                      .dwattr $C$DW$648, DW_AT_const_value(0x0e)
    4854              
    4855                      .dwendtag $C$DW$T$248
    4856              
    4857              $C$DW$T$249     .dwtag  DW_TAG_typedef
    4858                      .dwattr $C$DW$T$249, DW_AT_name("ADC_IntNumber_e")
    4859                      .dwattr $C$DW$T$249, DW_AT_type(*$C$DW$T$248)
    4860                      .dwattr $C$DW$T$249, DW_AT_language(DW_LANG_C)
    4861              
    4862              $C$DW$649       .dwtag  DW_TAG_TI_far_type
    4863                      .dwattr $C$DW$649, DW_AT_type(*$C$DW$T$249)
    4864              
    4865              $C$DW$T$250     .dwtag  DW_TAG_const_type
    4866                      .dwattr $C$DW$T$250, DW_AT_type(*$C$DW$649)
    4867              
    4868              
    4869              $C$DW$T$251     .dwtag  DW_TAG_enumeration_type
    4870                      .dwattr $C$DW$T$251, DW_AT_byte_size(0x01)
    4871              $C$DW$650       .dwtag  DW_TAG_enumerator
    4872                      .dwattr $C$DW$650, DW_AT_name("ADC_ResultNumber_0")
    4873                      .dwattr $C$DW$650, DW_AT_const_value(0x00)
    4874              
    4875              $C$DW$651       .dwtag  DW_TAG_enumerator
    4876                      .dwattr $C$DW$651, DW_AT_name("ADC_ResultNumber_1")
    4877                      .dwattr $C$DW$651, DW_AT_const_value(0x01)
    4878              
    4879              $C$DW$652       .dwtag  DW_TAG_enumerator
    4880                      .dwattr $C$DW$652, DW_AT_name("ADC_ResultNumber_2")
    4881                      .dwattr $C$DW$652, DW_AT_const_value(0x02)
    4882              
    4883              $C$DW$653       .dwtag  DW_TAG_enumerator
    4884                      .dwattr $C$DW$653, DW_AT_name("ADC_ResultNumber_3")
    4885                      .dwattr $C$DW$653, DW_AT_const_value(0x03)
    4886              
    4887              $C$DW$654       .dwtag  DW_TAG_enumerator
    4888                      .dwattr $C$DW$654, DW_AT_name("ADC_ResultNumber_4")
    4889                      .dwattr $C$DW$654, DW_AT_const_value(0x04)
    4890              
    4891              $C$DW$655       .dwtag  DW_TAG_enumerator
    4892                      .dwattr $C$DW$655, DW_AT_name("ADC_ResultNumber_5")
    4893                      .dwattr $C$DW$655, DW_AT_const_value(0x05)
    4894              
    4895              $C$DW$656       .dwtag  DW_TAG_enumerator
    4896                      .dwattr $C$DW$656, DW_AT_name("ADC_ResultNumber_6")
    4897                      .dwattr $C$DW$656, DW_AT_const_value(0x06)
    4898              
    4899              $C$DW$657       .dwtag  DW_TAG_enumerator
    4900                      .dwattr $C$DW$657, DW_AT_name("ADC_ResultNumber_7")
    4901                      .dwattr $C$DW$657, DW_AT_const_value(0x07)
    4902              
    4903              $C$DW$658       .dwtag  DW_TAG_enumerator
    4904                      .dwattr $C$DW$658, DW_AT_name("ADC_ResultNumber_8")
TMS320C2000 Assembler PC v18.1.2 Sun Jun 17 14:52:32 2018

Tools Copyright (c) 1996-2017 Texas Instruments Incorporated
C:\Users\haowp\AppData\Local\Temp\{81472915-7FA4-430D-8ACB-BFB8F401620C} PAGE   95

    4905                      .dwattr $C$DW$658, DW_AT_const_value(0x08)
    4906              
    4907              $C$DW$659       .dwtag  DW_TAG_enumerator
    4908                      .dwattr $C$DW$659, DW_AT_name("ADC_ResultNumber_9")
    4909                      .dwattr $C$DW$659, DW_AT_const_value(0x09)
    4910              
    4911              $C$DW$660       .dwtag  DW_TAG_enumerator
    4912                      .dwattr $C$DW$660, DW_AT_name("ADC_ResultNumber_10")
    4913                      .dwattr $C$DW$660, DW_AT_const_value(0x0a)
    4914              
    4915              $C$DW$661       .dwtag  DW_TAG_enumerator
    4916                      .dwattr $C$DW$661, DW_AT_name("ADC_ResultNumber_11")
    4917                      .dwattr $C$DW$661, DW_AT_const_value(0x0b)
    4918              
    4919              $C$DW$662       .dwtag  DW_TAG_enumerator
    4920                      .dwattr $C$DW$662, DW_AT_name("ADC_ResultNumber_12")
    4921                      .dwattr $C$DW$662, DW_AT_const_value(0x0c)
    4922              
    4923              $C$DW$663       .dwtag  DW_TAG_enumerator
    4924                      .dwattr $C$DW$663, DW_AT_name("ADC_ResultNumber_13")
    4925                      .dwattr $C$DW$663, DW_AT_const_value(0x0d)
    4926              
    4927              $C$DW$664       .dwtag  DW_TAG_enumerator
    4928                      .dwattr $C$DW$664, DW_AT_name("ADC_ResultNumber_14")
    4929                      .dwattr $C$DW$664, DW_AT_const_value(0x0e)
    4930              
    4931              $C$DW$665       .dwtag  DW_TAG_enumerator
    4932                      .dwattr $C$DW$665, DW_AT_name("ADC_ResultNumber_15")
    4933                      .dwattr $C$DW$665, DW_AT_const_value(0x0f)
    4934              
    4935                      .dwendtag $C$DW$T$251
    4936              
    4937              $C$DW$T$252     .dwtag  DW_TAG_typedef
    4938                      .dwattr $C$DW$T$252, DW_AT_name("ADC_ResultNumber_e")
    4939                      .dwattr $C$DW$T$252, DW_AT_type(*$C$DW$T$251)
    4940                      .dwattr $C$DW$T$252, DW_AT_language(DW_LANG_C)
    4941              
    4942              $C$DW$666       .dwtag  DW_TAG_TI_far_type
    4943                      .dwattr $C$DW$666, DW_AT_type(*$C$DW$T$252)
    4944              
    4945              $C$DW$T$253     .dwtag  DW_TAG_const_type
    4946                      .dwattr $C$DW$T$253, DW_AT_type(*$C$DW$666)
    4947              
    4948              
    4949              $C$DW$T$254     .dwtag  DW_TAG_enumeration_type
    4950                      .dwattr $C$DW$T$254, DW_AT_byte_size(0x01)
    4951              $C$DW$667       .dwtag  DW_TAG_enumerator
    4952                      .dwattr $C$DW$667, DW_AT_name("PIE_GroupNumber_1")
    4953                      .dwattr $C$DW$667, DW_AT_const_value(0x00)
    4954              
    4955              $C$DW$668       .dwtag  DW_TAG_enumerator
    4956                      .dwattr $C$DW$668, DW_AT_name("PIE_GroupNumber_2")
    4957                      .dwattr $C$DW$668, DW_AT_const_value(0x01)
    4958              
    4959              $C$DW$669       .dwtag  DW_TAG_enumerator
TMS320C2000 Assembler PC v18.1.2 Sun Jun 17 14:52:32 2018

Tools Copyright (c) 1996-2017 Texas Instruments Incorporated
C:\Users\haowp\AppData\Local\Temp\{81472915-7FA4-430D-8ACB-BFB8F401620C} PAGE   96

    4960                      .dwattr $C$DW$669, DW_AT_name("PIE_GroupNumber_3")
    4961                      .dwattr $C$DW$669, DW_AT_const_value(0x02)
    4962              
    4963              $C$DW$670       .dwtag  DW_TAG_enumerator
    4964                      .dwattr $C$DW$670, DW_AT_name("PIE_GroupNumber_4")
    4965                      .dwattr $C$DW$670, DW_AT_const_value(0x03)
    4966              
    4967              $C$DW$671       .dwtag  DW_TAG_enumerator
    4968                      .dwattr $C$DW$671, DW_AT_name("PIE_GroupNumber_5")
    4969                      .dwattr $C$DW$671, DW_AT_const_value(0x04)
    4970              
    4971              $C$DW$672       .dwtag  DW_TAG_enumerator
    4972                      .dwattr $C$DW$672, DW_AT_name("PIE_GroupNumber_6")
    4973                      .dwattr $C$DW$672, DW_AT_const_value(0x05)
    4974              
    4975              $C$DW$673       .dwtag  DW_TAG_enumerator
    4976                      .dwattr $C$DW$673, DW_AT_name("PIE_GroupNumber_7")
    4977                      .dwattr $C$DW$673, DW_AT_const_value(0x06)
    4978              
    4979              $C$DW$674       .dwtag  DW_TAG_enumerator
    4980                      .dwattr $C$DW$674, DW_AT_name("PIE_GroupNumber_8")
    4981                      .dwattr $C$DW$674, DW_AT_const_value(0x07)
    4982              
    4983              $C$DW$675       .dwtag  DW_TAG_enumerator
    4984                      .dwattr $C$DW$675, DW_AT_name("PIE_GroupNumber_9")
    4985                      .dwattr $C$DW$675, DW_AT_const_value(0x08)
    4986              
    4987              $C$DW$676       .dwtag  DW_TAG_enumerator
    4988                      .dwattr $C$DW$676, DW_AT_name("PIE_GroupNumber_10")
    4989                      .dwattr $C$DW$676, DW_AT_const_value(0x09)
    4990              
    4991              $C$DW$677       .dwtag  DW_TAG_enumerator
    4992                      .dwattr $C$DW$677, DW_AT_name("PIE_GroupNumber_11")
    4993                      .dwattr $C$DW$677, DW_AT_const_value(0x0a)
    4994              
    4995              $C$DW$678       .dwtag  DW_TAG_enumerator
    4996                      .dwattr $C$DW$678, DW_AT_name("PIE_GroupNumber_12")
    4997                      .dwattr $C$DW$678, DW_AT_const_value(0x0b)
    4998              
    4999                      .dwendtag $C$DW$T$254
    5000              
    5001              $C$DW$T$255     .dwtag  DW_TAG_typedef
    5002                      .dwattr $C$DW$T$255, DW_AT_name("PIE_GroupNumber_e")
    5003                      .dwattr $C$DW$T$255, DW_AT_type(*$C$DW$T$254)
    5004                      .dwattr $C$DW$T$255, DW_AT_language(DW_LANG_C)
    5005              
    5006              $C$DW$679       .dwtag  DW_TAG_TI_far_type
    5007                      .dwattr $C$DW$679, DW_AT_type(*$C$DW$T$255)
    5008              
    5009              $C$DW$T$256     .dwtag  DW_TAG_const_type
    5010                      .dwattr $C$DW$T$256, DW_AT_type(*$C$DW$679)
    5011              
    5012              
    5013              $C$DW$T$257     .dwtag  DW_TAG_enumeration_type
    5014                      .dwattr $C$DW$T$257, DW_AT_byte_size(0x01)
TMS320C2000 Assembler PC v18.1.2 Sun Jun 17 14:52:32 2018

Tools Copyright (c) 1996-2017 Texas Instruments Incorporated
C:\Users\haowp\AppData\Local\Temp\{81472915-7FA4-430D-8ACB-BFB8F401620C} PAGE   97

    5015              $C$DW$680       .dwtag  DW_TAG_enumerator
    5016                      .dwattr $C$DW$680, DW_AT_name("CTRL_Type_PID_spd")
    5017                      .dwattr $C$DW$680, DW_AT_const_value(0x00)
    5018              
    5019              $C$DW$681       .dwtag  DW_TAG_enumerator
    5020                      .dwattr $C$DW$681, DW_AT_name("CTRL_Type_PID_Id")
    5021                      .dwattr $C$DW$681, DW_AT_const_value(0x01)
    5022              
    5023              $C$DW$682       .dwtag  DW_TAG_enumerator
    5024                      .dwattr $C$DW$682, DW_AT_name("CTRL_Type_PID_Iq")
    5025                      .dwattr $C$DW$682, DW_AT_const_value(0x02)
    5026              
    5027                      .dwendtag $C$DW$T$257
    5028              
    5029              $C$DW$T$258     .dwtag  DW_TAG_typedef
    5030                      .dwattr $C$DW$T$258, DW_AT_name("CTRL_Type_e")
    5031                      .dwattr $C$DW$T$258, DW_AT_type(*$C$DW$T$257)
    5032                      .dwattr $C$DW$T$258, DW_AT_language(DW_LANG_C)
    5033              
    5034              $C$DW$683       .dwtag  DW_TAG_TI_far_type
    5035                      .dwattr $C$DW$683, DW_AT_type(*$C$DW$T$258)
    5036              
    5037              $C$DW$T$259     .dwtag  DW_TAG_const_type
    5038                      .dwattr $C$DW$T$259, DW_AT_type(*$C$DW$683)
    5039              
    5040              
    5041              $C$DW$T$260     .dwtag  DW_TAG_enumeration_type
    5042                      .dwattr $C$DW$T$260, DW_AT_byte_size(0x01)
    5043              $C$DW$684       .dwtag  DW_TAG_enumerator
    5044                      .dwattr $C$DW$684, DW_AT_name("HAL_SensorType_Current")
    5045                      .dwattr $C$DW$684, DW_AT_const_value(0x00)
    5046              
    5047              $C$DW$685       .dwtag  DW_TAG_enumerator
    5048                      .dwattr $C$DW$685, DW_AT_name("HAL_SensorType_Voltage")
    5049                      .dwattr $C$DW$685, DW_AT_const_value(0x01)
    5050              
    5051                      .dwendtag $C$DW$T$260
    5052              
    5053              $C$DW$T$261     .dwtag  DW_TAG_typedef
    5054                      .dwattr $C$DW$T$261, DW_AT_name("HAL_SensorType_e")
    5055                      .dwattr $C$DW$T$261, DW_AT_type(*$C$DW$T$260)
    5056                      .dwattr $C$DW$T$261, DW_AT_language(DW_LANG_C)
    5057              
    5058              $C$DW$686       .dwtag  DW_TAG_TI_far_type
    5059                      .dwattr $C$DW$686, DW_AT_type(*$C$DW$T$261)
    5060              
    5061              $C$DW$T$262     .dwtag  DW_TAG_const_type
    5062                      .dwattr $C$DW$T$262, DW_AT_type(*$C$DW$686)
    5063              
    5064              
    5065              $C$DW$T$30      .dwtag  DW_TAG_structure_type
    5066                      .dwattr $C$DW$T$30, DW_AT_name("_ADC_Obj_")
    5067                      .dwattr $C$DW$T$30, DW_AT_byte_size(0x6650)
    5068              $C$DW$687       .dwtag  DW_TAG_member
    5069                      .dwattr $C$DW$687, DW_AT_type(*$C$DW$T$24)
TMS320C2000 Assembler PC v18.1.2 Sun Jun 17 14:52:32 2018

Tools Copyright (c) 1996-2017 Texas Instruments Incorporated
C:\Users\haowp\AppData\Local\Temp\{81472915-7FA4-430D-8ACB-BFB8F401620C} PAGE   98

    5070                      .dwattr $C$DW$687, DW_AT_name("ADCRESULT")
    5071                      .dwattr $C$DW$687, DW_AT_TI_symbol_name("_ADCRESULT")
    5072                      .dwattr $C$DW$687, DW_AT_data_member_location[DW_OP_plus_uconst 0x0]
    5073                      .dwattr $C$DW$687, DW_AT_accessibility(DW_ACCESS_public)
    5074              
    5075              $C$DW$688       .dwtag  DW_TAG_member
    5076                      .dwattr $C$DW$688, DW_AT_type(*$C$DW$T$25)
    5077                      .dwattr $C$DW$688, DW_AT_name("resvd_1")
    5078                      .dwattr $C$DW$688, DW_AT_TI_symbol_name("_resvd_1")
    5079                      .dwattr $C$DW$688, DW_AT_data_member_location[DW_OP_plus_uconst 0x10]
    5080                      .dwattr $C$DW$688, DW_AT_accessibility(DW_ACCESS_public)
    5081              
    5082              $C$DW$689       .dwtag  DW_TAG_member
    5083                      .dwattr $C$DW$689, DW_AT_type(*$C$DW$T$23)
    5084                      .dwattr $C$DW$689, DW_AT_name("ADCCTL1")
    5085                      .dwattr $C$DW$689, DW_AT_TI_symbol_name("_ADCCTL1")
    5086                      .dwattr $C$DW$689, DW_AT_data_member_location[DW_OP_plus_uconst 0x6600]
    5087                      .dwattr $C$DW$689, DW_AT_accessibility(DW_ACCESS_public)
    5088              
    5089              $C$DW$690       .dwtag  DW_TAG_member
    5090                      .dwattr $C$DW$690, DW_AT_type(*$C$DW$T$23)
    5091                      .dwattr $C$DW$690, DW_AT_name("ADCCTL2")
    5092                      .dwattr $C$DW$690, DW_AT_TI_symbol_name("_ADCCTL2")
    5093                      .dwattr $C$DW$690, DW_AT_data_member_location[DW_OP_plus_uconst 0x6601]
    5094                      .dwattr $C$DW$690, DW_AT_accessibility(DW_ACCESS_public)
    5095              
    5096              $C$DW$691       .dwtag  DW_TAG_member
    5097                      .dwattr $C$DW$691, DW_AT_type(*$C$DW$T$26)
    5098                      .dwattr $C$DW$691, DW_AT_name("rsvd_2")
    5099                      .dwattr $C$DW$691, DW_AT_TI_symbol_name("_rsvd_2")
    5100                      .dwattr $C$DW$691, DW_AT_data_member_location[DW_OP_plus_uconst 0x6602]
    5101                      .dwattr $C$DW$691, DW_AT_accessibility(DW_ACCESS_public)
    5102              
    5103              $C$DW$692       .dwtag  DW_TAG_member
    5104                      .dwattr $C$DW$692, DW_AT_type(*$C$DW$T$23)
    5105                      .dwattr $C$DW$692, DW_AT_name("ADCINTFLG")
    5106                      .dwattr $C$DW$692, DW_AT_TI_symbol_name("_ADCINTFLG")
    5107                      .dwattr $C$DW$692, DW_AT_data_member_location[DW_OP_plus_uconst 0x6604]
    5108                      .dwattr $C$DW$692, DW_AT_accessibility(DW_ACCESS_public)
    5109              
    5110              $C$DW$693       .dwtag  DW_TAG_member
    5111                      .dwattr $C$DW$693, DW_AT_type(*$C$DW$T$23)
    5112                      .dwattr $C$DW$693, DW_AT_name("ADCINTFLGCLR")
    5113                      .dwattr $C$DW$693, DW_AT_TI_symbol_name("_ADCINTFLGCLR")
    5114                      .dwattr $C$DW$693, DW_AT_data_member_location[DW_OP_plus_uconst 0x6605]
    5115                      .dwattr $C$DW$693, DW_AT_accessibility(DW_ACCESS_public)
    5116              
    5117              $C$DW$694       .dwtag  DW_TAG_member
    5118                      .dwattr $C$DW$694, DW_AT_type(*$C$DW$T$23)
    5119                      .dwattr $C$DW$694, DW_AT_name("ADCINTOVF")
    5120                      .dwattr $C$DW$694, DW_AT_TI_symbol_name("_ADCINTOVF")
    5121                      .dwattr $C$DW$694, DW_AT_data_member_location[DW_OP_plus_uconst 0x6606]
    5122                      .dwattr $C$DW$694, DW_AT_accessibility(DW_ACCESS_public)
    5123              
    5124              $C$DW$695       .dwtag  DW_TAG_member
TMS320C2000 Assembler PC v18.1.2 Sun Jun 17 14:52:32 2018

Tools Copyright (c) 1996-2017 Texas Instruments Incorporated
C:\Users\haowp\AppData\Local\Temp\{81472915-7FA4-430D-8ACB-BFB8F401620C} PAGE   99

    5125                      .dwattr $C$DW$695, DW_AT_type(*$C$DW$T$23)
    5126                      .dwattr $C$DW$695, DW_AT_name("ADCINTOVFCLR")
    5127                      .dwattr $C$DW$695, DW_AT_TI_symbol_name("_ADCINTOVFCLR")
    5128                      .dwattr $C$DW$695, DW_AT_data_member_location[DW_OP_plus_uconst 0x6607]
    5129                      .dwattr $C$DW$695, DW_AT_accessibility(DW_ACCESS_public)
    5130              
    5131              $C$DW$696       .dwtag  DW_TAG_member
    5132                      .dwattr $C$DW$696, DW_AT_type(*$C$DW$T$27)
    5133                      .dwattr $C$DW$696, DW_AT_name("INTSELxNy")
    5134                      .dwattr $C$DW$696, DW_AT_TI_symbol_name("_INTSELxNy")
    5135                      .dwattr $C$DW$696, DW_AT_data_member_location[DW_OP_plus_uconst 0x6608]
    5136                      .dwattr $C$DW$696, DW_AT_accessibility(DW_ACCESS_public)
    5137              
    5138              $C$DW$697       .dwtag  DW_TAG_member
    5139                      .dwattr $C$DW$697, DW_AT_type(*$C$DW$T$28)
    5140                      .dwattr $C$DW$697, DW_AT_name("rsvd_3")
    5141                      .dwattr $C$DW$697, DW_AT_TI_symbol_name("_rsvd_3")
    5142                      .dwattr $C$DW$697, DW_AT_data_member_location[DW_OP_plus_uconst 0x660d]
    5143                      .dwattr $C$DW$697, DW_AT_accessibility(DW_ACCESS_public)
    5144              
    5145              $C$DW$698       .dwtag  DW_TAG_member
    5146                      .dwattr $C$DW$698, DW_AT_type(*$C$DW$T$23)
    5147                      .dwattr $C$DW$698, DW_AT_name("SOCPRICTRL")
    5148                      .dwattr $C$DW$698, DW_AT_TI_symbol_name("_SOCPRICTRL")
    5149                      .dwattr $C$DW$698, DW_AT_data_member_location[DW_OP_plus_uconst 0x6610]
    5150                      .dwattr $C$DW$698, DW_AT_accessibility(DW_ACCESS_public)
    5151              
    5152              $C$DW$699       .dwtag  DW_TAG_member
    5153                      .dwattr $C$DW$699, DW_AT_type(*$C$DW$T$23)
    5154                      .dwattr $C$DW$699, DW_AT_name("rsvd_4")
    5155                      .dwattr $C$DW$699, DW_AT_TI_symbol_name("_rsvd_4")
    5156                      .dwattr $C$DW$699, DW_AT_data_member_location[DW_OP_plus_uconst 0x6611]
    5157                      .dwattr $C$DW$699, DW_AT_accessibility(DW_ACCESS_public)
    5158              
    5159              $C$DW$700       .dwtag  DW_TAG_member
    5160                      .dwattr $C$DW$700, DW_AT_type(*$C$DW$T$23)
    5161                      .dwattr $C$DW$700, DW_AT_name("ADCSAMPLEMODE")
    5162                      .dwattr $C$DW$700, DW_AT_TI_symbol_name("_ADCSAMPLEMODE")
    5163                      .dwattr $C$DW$700, DW_AT_data_member_location[DW_OP_plus_uconst 0x6612]
    5164                      .dwattr $C$DW$700, DW_AT_accessibility(DW_ACCESS_public)
    5165              
    5166              $C$DW$701       .dwtag  DW_TAG_member
    5167                      .dwattr $C$DW$701, DW_AT_type(*$C$DW$T$23)
    5168                      .dwattr $C$DW$701, DW_AT_name("rsvd_5")
    5169                      .dwattr $C$DW$701, DW_AT_TI_symbol_name("_rsvd_5")
    5170                      .dwattr $C$DW$701, DW_AT_data_member_location[DW_OP_plus_uconst 0x6613]
    5171                      .dwattr $C$DW$701, DW_AT_accessibility(DW_ACCESS_public)
    5172              
    5173              $C$DW$702       .dwtag  DW_TAG_member
    5174                      .dwattr $C$DW$702, DW_AT_type(*$C$DW$T$23)
    5175                      .dwattr $C$DW$702, DW_AT_name("ADCINTSOCSEL1")
    5176                      .dwattr $C$DW$702, DW_AT_TI_symbol_name("_ADCINTSOCSEL1")
    5177                      .dwattr $C$DW$702, DW_AT_data_member_location[DW_OP_plus_uconst 0x6614]
    5178                      .dwattr $C$DW$702, DW_AT_accessibility(DW_ACCESS_public)
    5179              
TMS320C2000 Assembler PC v18.1.2 Sun Jun 17 14:52:32 2018

Tools Copyright (c) 1996-2017 Texas Instruments Incorporated
C:\Users\haowp\AppData\Local\Temp\{81472915-7FA4-430D-8ACB-BFB8F401620C} PAGE  100

    5180              $C$DW$703       .dwtag  DW_TAG_member
    5181                      .dwattr $C$DW$703, DW_AT_type(*$C$DW$T$23)
    5182                      .dwattr $C$DW$703, DW_AT_name("ADCINTSOCSEL2")
    5183                      .dwattr $C$DW$703, DW_AT_TI_symbol_name("_ADCINTSOCSEL2")
    5184                      .dwattr $C$DW$703, DW_AT_data_member_location[DW_OP_plus_uconst 0x6615]
    5185                      .dwattr $C$DW$703, DW_AT_accessibility(DW_ACCESS_public)
    5186              
    5187              $C$DW$704       .dwtag  DW_TAG_member
    5188                      .dwattr $C$DW$704, DW_AT_type(*$C$DW$T$26)
    5189                      .dwattr $C$DW$704, DW_AT_name("rsvd_6")
    5190                      .dwattr $C$DW$704, DW_AT_TI_symbol_name("_rsvd_6")
    5191                      .dwattr $C$DW$704, DW_AT_data_member_location[DW_OP_plus_uconst 0x6616]
    5192                      .dwattr $C$DW$704, DW_AT_accessibility(DW_ACCESS_public)
    5193              
    5194              $C$DW$705       .dwtag  DW_TAG_member
    5195                      .dwattr $C$DW$705, DW_AT_type(*$C$DW$T$23)
    5196                      .dwattr $C$DW$705, DW_AT_name("ADCSOCFLG1")
    5197                      .dwattr $C$DW$705, DW_AT_TI_symbol_name("_ADCSOCFLG1")
    5198                      .dwattr $C$DW$705, DW_AT_data_member_location[DW_OP_plus_uconst 0x6618]
    5199                      .dwattr $C$DW$705, DW_AT_accessibility(DW_ACCESS_public)
    5200              
    5201              $C$DW$706       .dwtag  DW_TAG_member
    5202                      .dwattr $C$DW$706, DW_AT_type(*$C$DW$T$23)
    5203                      .dwattr $C$DW$706, DW_AT_name("rsvd_7")
    5204                      .dwattr $C$DW$706, DW_AT_TI_symbol_name("_rsvd_7")
    5205                      .dwattr $C$DW$706, DW_AT_data_member_location[DW_OP_plus_uconst 0x6619]
    5206                      .dwattr $C$DW$706, DW_AT_accessibility(DW_ACCESS_public)
    5207              
    5208              $C$DW$707       .dwtag  DW_TAG_member
    5209                      .dwattr $C$DW$707, DW_AT_type(*$C$DW$T$23)
    5210                      .dwattr $C$DW$707, DW_AT_name("ADCSOCFRC1")
    5211                      .dwattr $C$DW$707, DW_AT_TI_symbol_name("_ADCSOCFRC1")
    5212                      .dwattr $C$DW$707, DW_AT_data_member_location[DW_OP_plus_uconst 0x661a]
    5213                      .dwattr $C$DW$707, DW_AT_accessibility(DW_ACCESS_public)
    5214              
    5215              $C$DW$708       .dwtag  DW_TAG_member
    5216                      .dwattr $C$DW$708, DW_AT_type(*$C$DW$T$23)
    5217                      .dwattr $C$DW$708, DW_AT_name("rsvd_8")
    5218                      .dwattr $C$DW$708, DW_AT_TI_symbol_name("_rsvd_8")
    5219                      .dwattr $C$DW$708, DW_AT_data_member_location[DW_OP_plus_uconst 0x661b]
    5220                      .dwattr $C$DW$708, DW_AT_accessibility(DW_ACCESS_public)
    5221              
    5222              $C$DW$709       .dwtag  DW_TAG_member
    5223                      .dwattr $C$DW$709, DW_AT_type(*$C$DW$T$23)
    5224                      .dwattr $C$DW$709, DW_AT_name("ADCSOCOVF1")
    5225                      .dwattr $C$DW$709, DW_AT_TI_symbol_name("_ADCSOCOVF1")
    5226                      .dwattr $C$DW$709, DW_AT_data_member_location[DW_OP_plus_uconst 0x661c]
    5227                      .dwattr $C$DW$709, DW_AT_accessibility(DW_ACCESS_public)
    5228              
    5229              $C$DW$710       .dwtag  DW_TAG_member
    5230                      .dwattr $C$DW$710, DW_AT_type(*$C$DW$T$23)
    5231                      .dwattr $C$DW$710, DW_AT_name("rsvd_9")
    5232                      .dwattr $C$DW$710, DW_AT_TI_symbol_name("_rsvd_9")
    5233                      .dwattr $C$DW$710, DW_AT_data_member_location[DW_OP_plus_uconst 0x661d]
    5234                      .dwattr $C$DW$710, DW_AT_accessibility(DW_ACCESS_public)
TMS320C2000 Assembler PC v18.1.2 Sun Jun 17 14:52:32 2018

Tools Copyright (c) 1996-2017 Texas Instruments Incorporated
C:\Users\haowp\AppData\Local\Temp\{81472915-7FA4-430D-8ACB-BFB8F401620C} PAGE  101

    5235              
    5236              $C$DW$711       .dwtag  DW_TAG_member
    5237                      .dwattr $C$DW$711, DW_AT_type(*$C$DW$T$23)
    5238                      .dwattr $C$DW$711, DW_AT_name("ADCSOCOVFCLR1")
    5239                      .dwattr $C$DW$711, DW_AT_TI_symbol_name("_ADCSOCOVFCLR1")
    5240                      .dwattr $C$DW$711, DW_AT_data_member_location[DW_OP_plus_uconst 0x661e]
    5241                      .dwattr $C$DW$711, DW_AT_accessibility(DW_ACCESS_public)
    5242              
    5243              $C$DW$712       .dwtag  DW_TAG_member
    5244                      .dwattr $C$DW$712, DW_AT_type(*$C$DW$T$23)
    5245                      .dwattr $C$DW$712, DW_AT_name("rsvd_10")
    5246                      .dwattr $C$DW$712, DW_AT_TI_symbol_name("_rsvd_10")
    5247                      .dwattr $C$DW$712, DW_AT_data_member_location[DW_OP_plus_uconst 0x661f]
    5248                      .dwattr $C$DW$712, DW_AT_accessibility(DW_ACCESS_public)
    5249              
    5250              $C$DW$713       .dwtag  DW_TAG_member
    5251                      .dwattr $C$DW$713, DW_AT_type(*$C$DW$T$24)
    5252                      .dwattr $C$DW$713, DW_AT_name("ADCSOCxCTL")
    5253                      .dwattr $C$DW$713, DW_AT_TI_symbol_name("_ADCSOCxCTL")
    5254                      .dwattr $C$DW$713, DW_AT_data_member_location[DW_OP_plus_uconst 0x6620]
    5255                      .dwattr $C$DW$713, DW_AT_accessibility(DW_ACCESS_public)
    5256              
    5257              $C$DW$714       .dwtag  DW_TAG_member
    5258                      .dwattr $C$DW$714, DW_AT_type(*$C$DW$T$24)
    5259                      .dwattr $C$DW$714, DW_AT_name("rsvd_11")
    5260                      .dwattr $C$DW$714, DW_AT_TI_symbol_name("_rsvd_11")
    5261                      .dwattr $C$DW$714, DW_AT_data_member_location[DW_OP_plus_uconst 0x6630]
    5262                      .dwattr $C$DW$714, DW_AT_accessibility(DW_ACCESS_public)
    5263              
    5264              $C$DW$715       .dwtag  DW_TAG_member
    5265                      .dwattr $C$DW$715, DW_AT_type(*$C$DW$T$23)
    5266                      .dwattr $C$DW$715, DW_AT_name("ADCREFTRIM")
    5267                      .dwattr $C$DW$715, DW_AT_TI_symbol_name("_ADCREFTRIM")
    5268                      .dwattr $C$DW$715, DW_AT_data_member_location[DW_OP_plus_uconst 0x6640]
    5269                      .dwattr $C$DW$715, DW_AT_accessibility(DW_ACCESS_public)
    5270              
    5271              $C$DW$716       .dwtag  DW_TAG_member
    5272                      .dwattr $C$DW$716, DW_AT_type(*$C$DW$T$23)
    5273                      .dwattr $C$DW$716, DW_AT_name("ADCOFFTRIM")
    5274                      .dwattr $C$DW$716, DW_AT_TI_symbol_name("_ADCOFFTRIM")
    5275                      .dwattr $C$DW$716, DW_AT_data_member_location[DW_OP_plus_uconst 0x6641]
    5276                      .dwattr $C$DW$716, DW_AT_accessibility(DW_ACCESS_public)
    5277              
    5278              $C$DW$717       .dwtag  DW_TAG_member
    5279                      .dwattr $C$DW$717, DW_AT_type(*$C$DW$T$29)
    5280                      .dwattr $C$DW$717, DW_AT_name("resvd_12")
    5281                      .dwattr $C$DW$717, DW_AT_TI_symbol_name("_resvd_12")
    5282                      .dwattr $C$DW$717, DW_AT_data_member_location[DW_OP_plus_uconst 0x6642]
    5283                      .dwattr $C$DW$717, DW_AT_accessibility(DW_ACCESS_public)
    5284              
    5285              $C$DW$718       .dwtag  DW_TAG_member
    5286                      .dwattr $C$DW$718, DW_AT_type(*$C$DW$T$23)
    5287                      .dwattr $C$DW$718, DW_AT_name("ADCREV")
    5288                      .dwattr $C$DW$718, DW_AT_TI_symbol_name("_ADCREV")
    5289                      .dwattr $C$DW$718, DW_AT_data_member_location[DW_OP_plus_uconst 0x664f]
TMS320C2000 Assembler PC v18.1.2 Sun Jun 17 14:52:32 2018

Tools Copyright (c) 1996-2017 Texas Instruments Incorporated
C:\Users\haowp\AppData\Local\Temp\{81472915-7FA4-430D-8ACB-BFB8F401620C} PAGE  102

    5290                      .dwattr $C$DW$718, DW_AT_accessibility(DW_ACCESS_public)
    5291              
    5292                      .dwendtag $C$DW$T$30
    5293              
    5294              $C$DW$T$263     .dwtag  DW_TAG_typedef
    5295                      .dwattr $C$DW$T$263, DW_AT_name("ADC_Obj")
    5296                      .dwattr $C$DW$T$263, DW_AT_type(*$C$DW$T$30)
    5297                      .dwattr $C$DW$T$263, DW_AT_language(DW_LANG_C)
    5298              
    5299              $C$DW$T$156     .dwtag  DW_TAG_pointer_type
    5300                      .dwattr $C$DW$T$156, DW_AT_type(*$C$DW$T$30)
    5301                      .dwattr $C$DW$T$156, DW_AT_address_class(0x20)
    5302              
    5303              $C$DW$T$157     .dwtag  DW_TAG_typedef
    5304                      .dwattr $C$DW$T$157, DW_AT_name("ADC_Handle")
    5305                      .dwattr $C$DW$T$157, DW_AT_type(*$C$DW$T$156)
    5306                      .dwattr $C$DW$T$157, DW_AT_language(DW_LANG_C)
    5307              
    5308              
    5309              $C$DW$T$33      .dwtag  DW_TAG_structure_type
    5310                      .dwattr $C$DW$T$33, DW_AT_name("_CLARKE_Obj_")
    5311                      .dwattr $C$DW$T$33, DW_AT_byte_size(0x06)
    5312              $C$DW$719       .dwtag  DW_TAG_member
    5313                      .dwattr $C$DW$719, DW_AT_type(*$C$DW$T$31)
    5314                      .dwattr $C$DW$719, DW_AT_name("alpha_sf")
    5315                      .dwattr $C$DW$719, DW_AT_TI_symbol_name("_alpha_sf")
    5316                      .dwattr $C$DW$719, DW_AT_data_member_location[DW_OP_plus_uconst 0x0]
    5317                      .dwattr $C$DW$719, DW_AT_accessibility(DW_ACCESS_public)
    5318              
    5319              $C$DW$720       .dwtag  DW_TAG_member
    5320                      .dwattr $C$DW$720, DW_AT_type(*$C$DW$T$31)
    5321                      .dwattr $C$DW$720, DW_AT_name("beta_sf")
    5322                      .dwattr $C$DW$720, DW_AT_TI_symbol_name("_beta_sf")
    5323                      .dwattr $C$DW$720, DW_AT_data_member_location[DW_OP_plus_uconst 0x2]
    5324                      .dwattr $C$DW$720, DW_AT_accessibility(DW_ACCESS_public)
    5325              
    5326              $C$DW$721       .dwtag  DW_TAG_member
    5327                      .dwattr $C$DW$721, DW_AT_type(*$C$DW$T$32)
    5328                      .dwattr $C$DW$721, DW_AT_name("numSensors")
    5329                      .dwattr $C$DW$721, DW_AT_TI_symbol_name("_numSensors")
    5330                      .dwattr $C$DW$721, DW_AT_data_member_location[DW_OP_plus_uconst 0x4]
    5331                      .dwattr $C$DW$721, DW_AT_accessibility(DW_ACCESS_public)
    5332              
    5333                      .dwendtag $C$DW$T$33
    5334              
    5335              $C$DW$T$44      .dwtag  DW_TAG_typedef
    5336                      .dwattr $C$DW$T$44, DW_AT_name("CLARKE_Obj")
    5337                      .dwattr $C$DW$T$44, DW_AT_type(*$C$DW$T$33)
    5338                      .dwattr $C$DW$T$44, DW_AT_language(DW_LANG_C)
    5339              
    5340              $C$DW$T$42      .dwtag  DW_TAG_pointer_type
    5341                      .dwattr $C$DW$T$42, DW_AT_type(*$C$DW$T$33)
    5342                      .dwattr $C$DW$T$42, DW_AT_address_class(0x20)
    5343              
    5344              $C$DW$T$43      .dwtag  DW_TAG_typedef
TMS320C2000 Assembler PC v18.1.2 Sun Jun 17 14:52:32 2018

Tools Copyright (c) 1996-2017 Texas Instruments Incorporated
C:\Users\haowp\AppData\Local\Temp\{81472915-7FA4-430D-8ACB-BFB8F401620C} PAGE  103

    5345                      .dwattr $C$DW$T$43, DW_AT_name("CLARKE_Handle")
    5346                      .dwattr $C$DW$T$43, DW_AT_type(*$C$DW$T$42)
    5347                      .dwattr $C$DW$T$43, DW_AT_language(DW_LANG_C)
    5348              
    5349              
    5350              $C$DW$T$35      .dwtag  DW_TAG_structure_type
    5351                      .dwattr $C$DW$T$35, DW_AT_name("_CLK_Obj_")
    5352                      .dwattr $C$DW$T$35, DW_AT_byte_size(0x11)
    5353              $C$DW$722       .dwtag  DW_TAG_member
    5354                      .dwattr $C$DW$722, DW_AT_type(*$C$DW$T$23)
    5355                      .dwattr $C$DW$722, DW_AT_name("XCLK")
    5356                      .dwattr $C$DW$722, DW_AT_TI_symbol_name("_XCLK")
    5357                      .dwattr $C$DW$722, DW_AT_data_member_location[DW_OP_plus_uconst 0x0]
    5358                      .dwattr $C$DW$722, DW_AT_accessibility(DW_ACCESS_public)
    5359              
    5360              $C$DW$723       .dwtag  DW_TAG_member
    5361                      .dwattr $C$DW$723, DW_AT_type(*$C$DW$T$23)
    5362                      .dwattr $C$DW$723, DW_AT_name("rsvd_1")
    5363                      .dwattr $C$DW$723, DW_AT_TI_symbol_name("_rsvd_1")
    5364                      .dwattr $C$DW$723, DW_AT_data_member_location[DW_OP_plus_uconst 0x1]
    5365                      .dwattr $C$DW$723, DW_AT_accessibility(DW_ACCESS_public)
    5366              
    5367              $C$DW$724       .dwtag  DW_TAG_member
    5368                      .dwattr $C$DW$724, DW_AT_type(*$C$DW$T$23)
    5369                      .dwattr $C$DW$724, DW_AT_name("CLKCTL")
    5370                      .dwattr $C$DW$724, DW_AT_TI_symbol_name("_CLKCTL")
    5371                      .dwattr $C$DW$724, DW_AT_data_member_location[DW_OP_plus_uconst 0x2]
    5372                      .dwattr $C$DW$724, DW_AT_accessibility(DW_ACCESS_public)
    5373              
    5374              $C$DW$725       .dwtag  DW_TAG_member
    5375                      .dwattr $C$DW$725, DW_AT_type(*$C$DW$T$34)
    5376                      .dwattr $C$DW$725, DW_AT_name("rsvd_2")
    5377                      .dwattr $C$DW$725, DW_AT_TI_symbol_name("_rsvd_2")
    5378                      .dwattr $C$DW$725, DW_AT_data_member_location[DW_OP_plus_uconst 0x3]
    5379                      .dwattr $C$DW$725, DW_AT_accessibility(DW_ACCESS_public)
    5380              
    5381              $C$DW$726       .dwtag  DW_TAG_member
    5382                      .dwattr $C$DW$726, DW_AT_type(*$C$DW$T$23)
    5383                      .dwattr $C$DW$726, DW_AT_name("LOSPCP")
    5384                      .dwattr $C$DW$726, DW_AT_TI_symbol_name("_LOSPCP")
    5385                      .dwattr $C$DW$726, DW_AT_data_member_location[DW_OP_plus_uconst 0xb]
    5386                      .dwattr $C$DW$726, DW_AT_accessibility(DW_ACCESS_public)
    5387              
    5388              $C$DW$727       .dwtag  DW_TAG_member
    5389                      .dwattr $C$DW$727, DW_AT_type(*$C$DW$T$23)
    5390                      .dwattr $C$DW$727, DW_AT_name("PCLKCR0")
    5391                      .dwattr $C$DW$727, DW_AT_TI_symbol_name("_PCLKCR0")
    5392                      .dwattr $C$DW$727, DW_AT_data_member_location[DW_OP_plus_uconst 0xc]
    5393                      .dwattr $C$DW$727, DW_AT_accessibility(DW_ACCESS_public)
    5394              
    5395              $C$DW$728       .dwtag  DW_TAG_member
    5396                      .dwattr $C$DW$728, DW_AT_type(*$C$DW$T$23)
    5397                      .dwattr $C$DW$728, DW_AT_name("PCLKCR1")
    5398                      .dwattr $C$DW$728, DW_AT_TI_symbol_name("_PCLKCR1")
    5399                      .dwattr $C$DW$728, DW_AT_data_member_location[DW_OP_plus_uconst 0xd]
TMS320C2000 Assembler PC v18.1.2 Sun Jun 17 14:52:32 2018

Tools Copyright (c) 1996-2017 Texas Instruments Incorporated
C:\Users\haowp\AppData\Local\Temp\{81472915-7FA4-430D-8ACB-BFB8F401620C} PAGE  104

    5400                      .dwattr $C$DW$728, DW_AT_accessibility(DW_ACCESS_public)
    5401              
    5402              $C$DW$729       .dwtag  DW_TAG_member
    5403                      .dwattr $C$DW$729, DW_AT_type(*$C$DW$T$26)
    5404                      .dwattr $C$DW$729, DW_AT_name("rsvd_3")
    5405                      .dwattr $C$DW$729, DW_AT_TI_symbol_name("_rsvd_3")
    5406                      .dwattr $C$DW$729, DW_AT_data_member_location[DW_OP_plus_uconst 0xe]
    5407                      .dwattr $C$DW$729, DW_AT_accessibility(DW_ACCESS_public)
    5408              
    5409              $C$DW$730       .dwtag  DW_TAG_member
    5410                      .dwattr $C$DW$730, DW_AT_type(*$C$DW$T$23)
    5411                      .dwattr $C$DW$730, DW_AT_name("PCLKCR3")
    5412                      .dwattr $C$DW$730, DW_AT_TI_symbol_name("_PCLKCR3")
    5413                      .dwattr $C$DW$730, DW_AT_data_member_location[DW_OP_plus_uconst 0x10]
    5414                      .dwattr $C$DW$730, DW_AT_accessibility(DW_ACCESS_public)
    5415              
    5416                      .dwendtag $C$DW$T$35
    5417              
    5418              $C$DW$T$158     .dwtag  DW_TAG_pointer_type
    5419                      .dwattr $C$DW$T$158, DW_AT_type(*$C$DW$T$35)
    5420                      .dwattr $C$DW$T$158, DW_AT_address_class(0x20)
    5421              
    5422              $C$DW$T$159     .dwtag  DW_TAG_typedef
    5423                      .dwattr $C$DW$T$159, DW_AT_name("CLK_Handle")
    5424                      .dwattr $C$DW$T$159, DW_AT_type(*$C$DW$T$158)
    5425                      .dwattr $C$DW$T$159, DW_AT_language(DW_LANG_C)
    5426              
    5427              
    5428              $C$DW$T$36      .dwtag  DW_TAG_structure_type
    5429                      .dwattr $C$DW$T$36, DW_AT_name("_CPU_Obj_")
    5430                      .dwattr $C$DW$T$36, DW_AT_byte_size(0x01)
    5431              $C$DW$731       .dwtag  DW_TAG_member
    5432                      .dwattr $C$DW$731, DW_AT_type(*$C$DW$T$32)
    5433                      .dwattr $C$DW$731, DW_AT_name("tmp")
    5434                      .dwattr $C$DW$731, DW_AT_TI_symbol_name("_tmp")
    5435                      .dwattr $C$DW$731, DW_AT_data_member_location[DW_OP_plus_uconst 0x0]
    5436                      .dwattr $C$DW$731, DW_AT_accessibility(DW_ACCESS_public)
    5437              
    5438                      .dwendtag $C$DW$T$36
    5439              
    5440              $C$DW$T$160     .dwtag  DW_TAG_pointer_type
    5441                      .dwattr $C$DW$T$160, DW_AT_type(*$C$DW$T$36)
    5442                      .dwattr $C$DW$T$160, DW_AT_address_class(0x20)
    5443              
    5444              $C$DW$T$161     .dwtag  DW_TAG_typedef
    5445                      .dwattr $C$DW$T$161, DW_AT_name("CPU_Handle")
    5446                      .dwattr $C$DW$T$161, DW_AT_type(*$C$DW$T$160)
    5447                      .dwattr $C$DW$T$161, DW_AT_language(DW_LANG_C)
    5448              
    5449              
    5450              $C$DW$T$70      .dwtag  DW_TAG_structure_type
    5451                      .dwattr $C$DW$T$70, DW_AT_name("_CTRL_Obj_")
    5452                      .dwattr $C$DW$T$70, DW_AT_byte_size(0x108)
    5453              $C$DW$732       .dwtag  DW_TAG_member
    5454                      .dwattr $C$DW$732, DW_AT_type(*$C$DW$T$37)
TMS320C2000 Assembler PC v18.1.2 Sun Jun 17 14:52:32 2018

Tools Copyright (c) 1996-2017 Texas Instruments Incorporated
C:\Users\haowp\AppData\Local\Temp\{81472915-7FA4-430D-8ACB-BFB8F401620C} PAGE  105

    5455                      .dwattr $C$DW$732, DW_AT_name("version")
    5456                      .dwattr $C$DW$732, DW_AT_TI_symbol_name("_version")
    5457                      .dwattr $C$DW$732, DW_AT_data_member_location[DW_OP_plus_uconst 0x0]
    5458                      .dwattr $C$DW$732, DW_AT_accessibility(DW_ACCESS_public)
    5459              
    5460              $C$DW$733       .dwtag  DW_TAG_member
    5461                      .dwattr $C$DW$733, DW_AT_type(*$C$DW$T$39)
    5462                      .dwattr $C$DW$733, DW_AT_name("state")
    5463                      .dwattr $C$DW$733, DW_AT_TI_symbol_name("_state")
    5464                      .dwattr $C$DW$733, DW_AT_data_member_location[DW_OP_plus_uconst 0x4]
    5465                      .dwattr $C$DW$733, DW_AT_accessibility(DW_ACCESS_public)
    5466              
    5467              $C$DW$734       .dwtag  DW_TAG_member
    5468                      .dwattr $C$DW$734, DW_AT_type(*$C$DW$T$39)
    5469                      .dwattr $C$DW$734, DW_AT_name("prevState")
    5470                      .dwattr $C$DW$734, DW_AT_TI_symbol_name("_prevState")
    5471                      .dwattr $C$DW$734, DW_AT_data_member_location[DW_OP_plus_uconst 0x5]
    5472                      .dwattr $C$DW$734, DW_AT_accessibility(DW_ACCESS_public)
    5473              
    5474              $C$DW$735       .dwtag  DW_TAG_member
    5475                      .dwattr $C$DW$735, DW_AT_type(*$C$DW$T$41)
    5476                      .dwattr $C$DW$735, DW_AT_name("errorCode")
    5477                      .dwattr $C$DW$735, DW_AT_TI_symbol_name("_errorCode")
    5478                      .dwattr $C$DW$735, DW_AT_data_member_location[DW_OP_plus_uconst 0x6]
    5479                      .dwattr $C$DW$735, DW_AT_accessibility(DW_ACCESS_public)
    5480              
    5481              $C$DW$736       .dwtag  DW_TAG_member
    5482                      .dwattr $C$DW$736, DW_AT_type(*$C$DW$T$43)
    5483                      .dwattr $C$DW$736, DW_AT_name("clarkeHandle_I")
    5484                      .dwattr $C$DW$736, DW_AT_TI_symbol_name("_clarkeHandle_I")
    5485                      .dwattr $C$DW$736, DW_AT_data_member_location[DW_OP_plus_uconst 0x8]
    5486                      .dwattr $C$DW$736, DW_AT_accessibility(DW_ACCESS_public)
    5487              
    5488              $C$DW$737       .dwtag  DW_TAG_member
    5489                      .dwattr $C$DW$737, DW_AT_type(*$C$DW$T$44)
    5490                      .dwattr $C$DW$737, DW_AT_name("clarke_I")
    5491                      .dwattr $C$DW$737, DW_AT_TI_symbol_name("_clarke_I")
    5492                      .dwattr $C$DW$737, DW_AT_data_member_location[DW_OP_plus_uconst 0xa]
    5493                      .dwattr $C$DW$737, DW_AT_accessibility(DW_ACCESS_public)
    5494              
    5495              $C$DW$738       .dwtag  DW_TAG_member
    5496                      .dwattr $C$DW$738, DW_AT_type(*$C$DW$T$43)
    5497                      .dwattr $C$DW$738, DW_AT_name("clarkeHandle_V")
    5498                      .dwattr $C$DW$738, DW_AT_TI_symbol_name("_clarkeHandle_V")
    5499                      .dwattr $C$DW$738, DW_AT_data_member_location[DW_OP_plus_uconst 0x10]
    5500                      .dwattr $C$DW$738, DW_AT_accessibility(DW_ACCESS_public)
    5501              
    5502              $C$DW$739       .dwtag  DW_TAG_member
    5503                      .dwattr $C$DW$739, DW_AT_type(*$C$DW$T$44)
    5504                      .dwattr $C$DW$739, DW_AT_name("clarke_V")
    5505                      .dwattr $C$DW$739, DW_AT_TI_symbol_name("_clarke_V")
    5506                      .dwattr $C$DW$739, DW_AT_data_member_location[DW_OP_plus_uconst 0x12]
    5507                      .dwattr $C$DW$739, DW_AT_accessibility(DW_ACCESS_public)
    5508              
    5509              $C$DW$740       .dwtag  DW_TAG_member
TMS320C2000 Assembler PC v18.1.2 Sun Jun 17 14:52:32 2018

Tools Copyright (c) 1996-2017 Texas Instruments Incorporated
C:\Users\haowp\AppData\Local\Temp\{81472915-7FA4-430D-8ACB-BFB8F401620C} PAGE  106

    5510                      .dwattr $C$DW$740, DW_AT_type(*$C$DW$T$46)
    5511                      .dwattr $C$DW$740, DW_AT_name("estHandle")
    5512                      .dwattr $C$DW$740, DW_AT_TI_symbol_name("_estHandle")
    5513                      .dwattr $C$DW$740, DW_AT_data_member_location[DW_OP_plus_uconst 0x18]
    5514                      .dwattr $C$DW$740, DW_AT_accessibility(DW_ACCESS_public)
    5515              
    5516              $C$DW$741       .dwtag  DW_TAG_member
    5517                      .dwattr $C$DW$741, DW_AT_type(*$C$DW$T$48)
    5518                      .dwattr $C$DW$741, DW_AT_name("parkHandle")
    5519                      .dwattr $C$DW$741, DW_AT_TI_symbol_name("_parkHandle")
    5520                      .dwattr $C$DW$741, DW_AT_data_member_location[DW_OP_plus_uconst 0x1a]
    5521                      .dwattr $C$DW$741, DW_AT_accessibility(DW_ACCESS_public)
    5522              
    5523              $C$DW$742       .dwtag  DW_TAG_member
    5524                      .dwattr $C$DW$742, DW_AT_type(*$C$DW$T$49)
    5525                      .dwattr $C$DW$742, DW_AT_name("park")
    5526                      .dwattr $C$DW$742, DW_AT_TI_symbol_name("_park")
    5527                      .dwattr $C$DW$742, DW_AT_data_member_location[DW_OP_plus_uconst 0x1c]
    5528                      .dwattr $C$DW$742, DW_AT_accessibility(DW_ACCESS_public)
    5529              
    5530              $C$DW$743       .dwtag  DW_TAG_member
    5531                      .dwattr $C$DW$743, DW_AT_type(*$C$DW$T$51)
    5532                      .dwattr $C$DW$743, DW_AT_name("pidHandle_Id")
    5533                      .dwattr $C$DW$743, DW_AT_TI_symbol_name("_pidHandle_Id")
    5534                      .dwattr $C$DW$743, DW_AT_data_member_location[DW_OP_plus_uconst 0x20]
    5535                      .dwattr $C$DW$743, DW_AT_accessibility(DW_ACCESS_public)
    5536              
    5537              $C$DW$744       .dwtag  DW_TAG_member
    5538                      .dwattr $C$DW$744, DW_AT_type(*$C$DW$T$52)
    5539                      .dwattr $C$DW$744, DW_AT_name("pid_Id")
    5540                      .dwattr $C$DW$744, DW_AT_TI_symbol_name("_pid_Id")
    5541                      .dwattr $C$DW$744, DW_AT_data_member_location[DW_OP_plus_uconst 0x22]
    5542                      .dwattr $C$DW$744, DW_AT_accessibility(DW_ACCESS_public)
    5543              
    5544              $C$DW$745       .dwtag  DW_TAG_member
    5545                      .dwattr $C$DW$745, DW_AT_type(*$C$DW$T$51)
    5546                      .dwattr $C$DW$745, DW_AT_name("pidHandle_Iq")
    5547                      .dwattr $C$DW$745, DW_AT_TI_symbol_name("_pidHandle_Iq")
    5548                      .dwattr $C$DW$745, DW_AT_data_member_location[DW_OP_plus_uconst 0x32]
    5549                      .dwattr $C$DW$745, DW_AT_accessibility(DW_ACCESS_public)
    5550              
    5551              $C$DW$746       .dwtag  DW_TAG_member
    5552                      .dwattr $C$DW$746, DW_AT_type(*$C$DW$T$52)
    5553                      .dwattr $C$DW$746, DW_AT_name("pid_Iq")
    5554                      .dwattr $C$DW$746, DW_AT_TI_symbol_name("_pid_Iq")
    5555                      .dwattr $C$DW$746, DW_AT_data_member_location[DW_OP_plus_uconst 0x34]
    5556                      .dwattr $C$DW$746, DW_AT_accessibility(DW_ACCESS_public)
    5557              
    5558              $C$DW$747       .dwtag  DW_TAG_member
    5559                      .dwattr $C$DW$747, DW_AT_type(*$C$DW$T$51)
    5560                      .dwattr $C$DW$747, DW_AT_name("pidHandle_spd")
    5561                      .dwattr $C$DW$747, DW_AT_TI_symbol_name("_pidHandle_spd")
    5562                      .dwattr $C$DW$747, DW_AT_data_member_location[DW_OP_plus_uconst 0x44]
    5563                      .dwattr $C$DW$747, DW_AT_accessibility(DW_ACCESS_public)
    5564              
TMS320C2000 Assembler PC v18.1.2 Sun Jun 17 14:52:32 2018

Tools Copyright (c) 1996-2017 Texas Instruments Incorporated
C:\Users\haowp\AppData\Local\Temp\{81472915-7FA4-430D-8ACB-BFB8F401620C} PAGE  107

    5565              $C$DW$748       .dwtag  DW_TAG_member
    5566                      .dwattr $C$DW$748, DW_AT_type(*$C$DW$T$52)
    5567                      .dwattr $C$DW$748, DW_AT_name("pid_spd")
    5568                      .dwattr $C$DW$748, DW_AT_TI_symbol_name("_pid_spd")
    5569                      .dwattr $C$DW$748, DW_AT_data_member_location[DW_OP_plus_uconst 0x46]
    5570                      .dwattr $C$DW$748, DW_AT_accessibility(DW_ACCESS_public)
    5571              
    5572              $C$DW$749       .dwtag  DW_TAG_member
    5573                      .dwattr $C$DW$749, DW_AT_type(*$C$DW$T$54)
    5574                      .dwattr $C$DW$749, DW_AT_name("iparkHandle")
    5575                      .dwattr $C$DW$749, DW_AT_TI_symbol_name("_iparkHandle")
    5576                      .dwattr $C$DW$749, DW_AT_data_member_location[DW_OP_plus_uconst 0x56]
    5577                      .dwattr $C$DW$749, DW_AT_accessibility(DW_ACCESS_public)
    5578              
    5579              $C$DW$750       .dwtag  DW_TAG_member
    5580                      .dwattr $C$DW$750, DW_AT_type(*$C$DW$T$55)
    5581                      .dwattr $C$DW$750, DW_AT_name("ipark")
    5582                      .dwattr $C$DW$750, DW_AT_TI_symbol_name("_ipark")
    5583                      .dwattr $C$DW$750, DW_AT_data_member_location[DW_OP_plus_uconst 0x58]
    5584                      .dwattr $C$DW$750, DW_AT_accessibility(DW_ACCESS_public)
    5585              
    5586              $C$DW$751       .dwtag  DW_TAG_member
    5587                      .dwattr $C$DW$751, DW_AT_type(*$C$DW$T$57)
    5588                      .dwattr $C$DW$751, DW_AT_name("svgenHandle")
    5589                      .dwattr $C$DW$751, DW_AT_TI_symbol_name("_svgenHandle")
    5590                      .dwattr $C$DW$751, DW_AT_data_member_location[DW_OP_plus_uconst 0x5c]
    5591                      .dwattr $C$DW$751, DW_AT_accessibility(DW_ACCESS_public)
    5592              
    5593              $C$DW$752       .dwtag  DW_TAG_member
    5594                      .dwattr $C$DW$752, DW_AT_type(*$C$DW$T$58)
    5595                      .dwattr $C$DW$752, DW_AT_name("svgen")
    5596                      .dwattr $C$DW$752, DW_AT_TI_symbol_name("_svgen")
    5597                      .dwattr $C$DW$752, DW_AT_data_member_location[DW_OP_plus_uconst 0x5e]
    5598                      .dwattr $C$DW$752, DW_AT_accessibility(DW_ACCESS_public)
    5599              
    5600              $C$DW$753       .dwtag  DW_TAG_member
    5601                      .dwattr $C$DW$753, DW_AT_type(*$C$DW$T$60)
    5602                      .dwattr $C$DW$753, DW_AT_name("trajHandle_Id")
    5603                      .dwattr $C$DW$753, DW_AT_TI_symbol_name("_trajHandle_Id")
    5604                      .dwattr $C$DW$753, DW_AT_data_member_location[DW_OP_plus_uconst 0x60]
    5605                      .dwattr $C$DW$753, DW_AT_accessibility(DW_ACCESS_public)
    5606              
    5607              $C$DW$754       .dwtag  DW_TAG_member
    5608                      .dwattr $C$DW$754, DW_AT_type(*$C$DW$T$61)
    5609                      .dwattr $C$DW$754, DW_AT_name("traj_Id")
    5610                      .dwattr $C$DW$754, DW_AT_TI_symbol_name("_traj_Id")
    5611                      .dwattr $C$DW$754, DW_AT_data_member_location[DW_OP_plus_uconst 0x62]
    5612                      .dwattr $C$DW$754, DW_AT_accessibility(DW_ACCESS_public)
    5613              
    5614              $C$DW$755       .dwtag  DW_TAG_member
    5615                      .dwattr $C$DW$755, DW_AT_type(*$C$DW$T$60)
    5616                      .dwattr $C$DW$755, DW_AT_name("trajHandle_spd")
    5617                      .dwattr $C$DW$755, DW_AT_TI_symbol_name("_trajHandle_spd")
    5618                      .dwattr $C$DW$755, DW_AT_data_member_location[DW_OP_plus_uconst 0x6c]
    5619                      .dwattr $C$DW$755, DW_AT_accessibility(DW_ACCESS_public)
TMS320C2000 Assembler PC v18.1.2 Sun Jun 17 14:52:32 2018

Tools Copyright (c) 1996-2017 Texas Instruments Incorporated
C:\Users\haowp\AppData\Local\Temp\{81472915-7FA4-430D-8ACB-BFB8F401620C} PAGE  108

    5620              
    5621              $C$DW$756       .dwtag  DW_TAG_member
    5622                      .dwattr $C$DW$756, DW_AT_type(*$C$DW$T$61)
    5623                      .dwattr $C$DW$756, DW_AT_name("traj_spd")
    5624                      .dwattr $C$DW$756, DW_AT_TI_symbol_name("_traj_spd")
    5625                      .dwattr $C$DW$756, DW_AT_data_member_location[DW_OP_plus_uconst 0x6e]
    5626                      .dwattr $C$DW$756, DW_AT_accessibility(DW_ACCESS_public)
    5627              
    5628              $C$DW$757       .dwtag  DW_TAG_member
    5629                      .dwattr $C$DW$757, DW_AT_type(*$C$DW$T$60)
    5630                      .dwattr $C$DW$757, DW_AT_name("trajHandle_spdMax")
    5631                      .dwattr $C$DW$757, DW_AT_TI_symbol_name("_trajHandle_spdMax")
    5632                      .dwattr $C$DW$757, DW_AT_data_member_location[DW_OP_plus_uconst 0x78]
    5633                      .dwattr $C$DW$757, DW_AT_accessibility(DW_ACCESS_public)
    5634              
    5635              $C$DW$758       .dwtag  DW_TAG_member
    5636                      .dwattr $C$DW$758, DW_AT_type(*$C$DW$T$61)
    5637                      .dwattr $C$DW$758, DW_AT_name("traj_spdMax")
    5638                      .dwattr $C$DW$758, DW_AT_TI_symbol_name("_traj_spdMax")
    5639                      .dwattr $C$DW$758, DW_AT_data_member_location[DW_OP_plus_uconst 0x7a]
    5640                      .dwattr $C$DW$758, DW_AT_accessibility(DW_ACCESS_public)
    5641              
    5642              $C$DW$759       .dwtag  DW_TAG_member
    5643                      .dwattr $C$DW$759, DW_AT_type(*$C$DW$T$62)
    5644                      .dwattr $C$DW$759, DW_AT_name("motorParams")
    5645                      .dwattr $C$DW$759, DW_AT_TI_symbol_name("_motorParams")
    5646                      .dwattr $C$DW$759, DW_AT_data_member_location[DW_OP_plus_uconst 0x84]
    5647                      .dwattr $C$DW$759, DW_AT_accessibility(DW_ACCESS_public)
    5648              
    5649              $C$DW$760       .dwtag  DW_TAG_member
    5650                      .dwattr $C$DW$760, DW_AT_type(*$C$DW$T$65)
    5651                      .dwattr $C$DW$760, DW_AT_name("waitTimes")
    5652                      .dwattr $C$DW$760, DW_AT_TI_symbol_name("_waitTimes")
    5653                      .dwattr $C$DW$760, DW_AT_data_member_location[DW_OP_plus_uconst 0x92]
    5654                      .dwattr $C$DW$760, DW_AT_accessibility(DW_ACCESS_public)
    5655              
    5656              $C$DW$761       .dwtag  DW_TAG_member
    5657                      .dwattr $C$DW$761, DW_AT_type(*$C$DW$T$64)
    5658                      .dwattr $C$DW$761, DW_AT_name("counter_state")
    5659                      .dwattr $C$DW$761, DW_AT_TI_symbol_name("_counter_state")
    5660                      .dwattr $C$DW$761, DW_AT_data_member_location[DW_OP_plus_uconst 0x9a]
    5661                      .dwattr $C$DW$761, DW_AT_accessibility(DW_ACCESS_public)
    5662              
    5663              $C$DW$762       .dwtag  DW_TAG_member
    5664                      .dwattr $C$DW$762, DW_AT_type(*$C$DW$T$66)
    5665                      .dwattr $C$DW$762, DW_AT_name("numIsrTicksPerCtrlTick")
    5666                      .dwattr $C$DW$762, DW_AT_TI_symbol_name("_numIsrTicksPerCtrlTick")
    5667                      .dwattr $C$DW$762, DW_AT_data_member_location[DW_OP_plus_uconst 0x9c]
    5668                      .dwattr $C$DW$762, DW_AT_accessibility(DW_ACCESS_public)
    5669              
    5670              $C$DW$763       .dwtag  DW_TAG_member
    5671                      .dwattr $C$DW$763, DW_AT_type(*$C$DW$T$66)
    5672                      .dwattr $C$DW$763, DW_AT_name("numCtrlTicksPerCurrentTick")
    5673                      .dwattr $C$DW$763, DW_AT_TI_symbol_name("_numCtrlTicksPerCurrentTick")
    5674                      .dwattr $C$DW$763, DW_AT_data_member_location[DW_OP_plus_uconst 0x9d]
TMS320C2000 Assembler PC v18.1.2 Sun Jun 17 14:52:32 2018

Tools Copyright (c) 1996-2017 Texas Instruments Incorporated
C:\Users\haowp\AppData\Local\Temp\{81472915-7FA4-430D-8ACB-BFB8F401620C} PAGE  109

    5675                      .dwattr $C$DW$763, DW_AT_accessibility(DW_ACCESS_public)
    5676              
    5677              $C$DW$764       .dwtag  DW_TAG_member
    5678                      .dwattr $C$DW$764, DW_AT_type(*$C$DW$T$66)
    5679                      .dwattr $C$DW$764, DW_AT_name("numCtrlTicksPerSpeedTick")
    5680                      .dwattr $C$DW$764, DW_AT_TI_symbol_name("_numCtrlTicksPerSpeedTick")
    5681                      .dwattr $C$DW$764, DW_AT_data_member_location[DW_OP_plus_uconst 0x9e]
    5682                      .dwattr $C$DW$764, DW_AT_accessibility(DW_ACCESS_public)
    5683              
    5684              $C$DW$765       .dwtag  DW_TAG_member
    5685                      .dwattr $C$DW$765, DW_AT_type(*$C$DW$T$66)
    5686                      .dwattr $C$DW$765, DW_AT_name("numCtrlTicksPerTrajTick")
    5687                      .dwattr $C$DW$765, DW_AT_TI_symbol_name("_numCtrlTicksPerTrajTick")
    5688                      .dwattr $C$DW$765, DW_AT_data_member_location[DW_OP_plus_uconst 0x9f]
    5689                      .dwattr $C$DW$765, DW_AT_accessibility(DW_ACCESS_public)
    5690              
    5691              $C$DW$766       .dwtag  DW_TAG_member
    5692                      .dwattr $C$DW$766, DW_AT_type(*$C$DW$T$64)
    5693                      .dwattr $C$DW$766, DW_AT_name("ctrlFreq_Hz")
    5694                      .dwattr $C$DW$766, DW_AT_TI_symbol_name("_ctrlFreq_Hz")
    5695                      .dwattr $C$DW$766, DW_AT_data_member_location[DW_OP_plus_uconst 0xa0]
    5696                      .dwattr $C$DW$766, DW_AT_accessibility(DW_ACCESS_public)
    5697              
    5698              $C$DW$767       .dwtag  DW_TAG_member
    5699                      .dwattr $C$DW$767, DW_AT_type(*$C$DW$T$64)
    5700                      .dwattr $C$DW$767, DW_AT_name("trajFreq_Hz")
    5701                      .dwattr $C$DW$767, DW_AT_TI_symbol_name("_trajFreq_Hz")
    5702                      .dwattr $C$DW$767, DW_AT_data_member_location[DW_OP_plus_uconst 0xa2]
    5703                      .dwattr $C$DW$767, DW_AT_accessibility(DW_ACCESS_public)
    5704              
    5705              $C$DW$768       .dwtag  DW_TAG_member
    5706                      .dwattr $C$DW$768, DW_AT_type(*$C$DW$T$31)
    5707                      .dwattr $C$DW$768, DW_AT_name("trajPeriod_sec")
    5708                      .dwattr $C$DW$768, DW_AT_TI_symbol_name("_trajPeriod_sec")
    5709                      .dwattr $C$DW$768, DW_AT_data_member_location[DW_OP_plus_uconst 0xa4]
    5710                      .dwattr $C$DW$768, DW_AT_accessibility(DW_ACCESS_public)
    5711              
    5712              $C$DW$769       .dwtag  DW_TAG_member
    5713                      .dwattr $C$DW$769, DW_AT_type(*$C$DW$T$67)
    5714                      .dwattr $C$DW$769, DW_AT_name("ctrlPeriod_sec")
    5715                      .dwattr $C$DW$769, DW_AT_TI_symbol_name("_ctrlPeriod_sec")
    5716                      .dwattr $C$DW$769, DW_AT_data_member_location[DW_OP_plus_uconst 0xa6]
    5717                      .dwattr $C$DW$769, DW_AT_accessibility(DW_ACCESS_public)
    5718              
    5719              $C$DW$770       .dwtag  DW_TAG_member
    5720                      .dwattr $C$DW$770, DW_AT_type(*$C$DW$T$31)
    5721                      .dwattr $C$DW$770, DW_AT_name("maxVsMag_pu")
    5722                      .dwattr $C$DW$770, DW_AT_TI_symbol_name("_maxVsMag_pu")
    5723                      .dwattr $C$DW$770, DW_AT_data_member_location[DW_OP_plus_uconst 0xa8]
    5724                      .dwattr $C$DW$770, DW_AT_accessibility(DW_ACCESS_public)
    5725              
    5726              $C$DW$771       .dwtag  DW_TAG_member
    5727                      .dwattr $C$DW$771, DW_AT_type(*$C$DW$T$68)
    5728                      .dwattr $C$DW$771, DW_AT_name("Iab_in")
    5729                      .dwattr $C$DW$771, DW_AT_TI_symbol_name("_Iab_in")
TMS320C2000 Assembler PC v18.1.2 Sun Jun 17 14:52:32 2018

Tools Copyright (c) 1996-2017 Texas Instruments Incorporated
C:\Users\haowp\AppData\Local\Temp\{81472915-7FA4-430D-8ACB-BFB8F401620C} PAGE  110

    5730                      .dwattr $C$DW$771, DW_AT_data_member_location[DW_OP_plus_uconst 0xaa]
    5731                      .dwattr $C$DW$771, DW_AT_accessibility(DW_ACCESS_public)
    5732              
    5733              $C$DW$772       .dwtag  DW_TAG_member
    5734                      .dwattr $C$DW$772, DW_AT_type(*$C$DW$T$68)
    5735                      .dwattr $C$DW$772, DW_AT_name("Iab_filt")
    5736                      .dwattr $C$DW$772, DW_AT_TI_symbol_name("_Iab_filt")
    5737                      .dwattr $C$DW$772, DW_AT_data_member_location[DW_OP_plus_uconst 0xae]
    5738                      .dwattr $C$DW$772, DW_AT_accessibility(DW_ACCESS_public)
    5739              
    5740              $C$DW$773       .dwtag  DW_TAG_member
    5741                      .dwattr $C$DW$773, DW_AT_type(*$C$DW$T$68)
    5742                      .dwattr $C$DW$773, DW_AT_name("Idq_in")
    5743                      .dwattr $C$DW$773, DW_AT_TI_symbol_name("_Idq_in")
    5744                      .dwattr $C$DW$773, DW_AT_data_member_location[DW_OP_plus_uconst 0xb2]
    5745                      .dwattr $C$DW$773, DW_AT_accessibility(DW_ACCESS_public)
    5746              
    5747              $C$DW$774       .dwtag  DW_TAG_member
    5748                      .dwattr $C$DW$774, DW_AT_type(*$C$DW$T$68)
    5749                      .dwattr $C$DW$774, DW_AT_name("Vab_in")
    5750                      .dwattr $C$DW$774, DW_AT_TI_symbol_name("_Vab_in")
    5751                      .dwattr $C$DW$774, DW_AT_data_member_location[DW_OP_plus_uconst 0xb6]
    5752                      .dwattr $C$DW$774, DW_AT_accessibility(DW_ACCESS_public)
    5753              
    5754              $C$DW$775       .dwtag  DW_TAG_member
    5755                      .dwattr $C$DW$775, DW_AT_type(*$C$DW$T$31)
    5756                      .dwattr $C$DW$775, DW_AT_name("spd_out")
    5757                      .dwattr $C$DW$775, DW_AT_TI_symbol_name("_spd_out")
    5758                      .dwattr $C$DW$775, DW_AT_data_member_location[DW_OP_plus_uconst 0xba]
    5759                      .dwattr $C$DW$775, DW_AT_accessibility(DW_ACCESS_public)
    5760              
    5761              $C$DW$776       .dwtag  DW_TAG_member
    5762                      .dwattr $C$DW$776, DW_AT_type(*$C$DW$T$68)
    5763                      .dwattr $C$DW$776, DW_AT_name("Vab_out")
    5764                      .dwattr $C$DW$776, DW_AT_TI_symbol_name("_Vab_out")
    5765                      .dwattr $C$DW$776, DW_AT_data_member_location[DW_OP_plus_uconst 0xbc]
    5766                      .dwattr $C$DW$776, DW_AT_accessibility(DW_ACCESS_public)
    5767              
    5768              $C$DW$777       .dwtag  DW_TAG_member
    5769                      .dwattr $C$DW$777, DW_AT_type(*$C$DW$T$68)
    5770                      .dwattr $C$DW$777, DW_AT_name("Vdq_out")
    5771                      .dwattr $C$DW$777, DW_AT_TI_symbol_name("_Vdq_out")
    5772                      .dwattr $C$DW$777, DW_AT_data_member_location[DW_OP_plus_uconst 0xc0]
    5773                      .dwattr $C$DW$777, DW_AT_accessibility(DW_ACCESS_public)
    5774              
    5775              $C$DW$778       .dwtag  DW_TAG_member
    5776                      .dwattr $C$DW$778, DW_AT_type(*$C$DW$T$67)
    5777                      .dwattr $C$DW$778, DW_AT_name("Rhf")
    5778                      .dwattr $C$DW$778, DW_AT_TI_symbol_name("_Rhf")
    5779                      .dwattr $C$DW$778, DW_AT_data_member_location[DW_OP_plus_uconst 0xc4]
    5780                      .dwattr $C$DW$778, DW_AT_accessibility(DW_ACCESS_public)
    5781              
    5782              $C$DW$779       .dwtag  DW_TAG_member
    5783                      .dwattr $C$DW$779, DW_AT_type(*$C$DW$T$67)
    5784                      .dwattr $C$DW$779, DW_AT_name("Lhf")
TMS320C2000 Assembler PC v18.1.2 Sun Jun 17 14:52:32 2018

Tools Copyright (c) 1996-2017 Texas Instruments Incorporated
C:\Users\haowp\AppData\Local\Temp\{81472915-7FA4-430D-8ACB-BFB8F401620C} PAGE  111

    5785                      .dwattr $C$DW$779, DW_AT_TI_symbol_name("_Lhf")
    5786                      .dwattr $C$DW$779, DW_AT_data_member_location[DW_OP_plus_uconst 0xc6]
    5787                      .dwattr $C$DW$779, DW_AT_accessibility(DW_ACCESS_public)
    5788              
    5789              $C$DW$780       .dwtag  DW_TAG_member
    5790                      .dwattr $C$DW$780, DW_AT_type(*$C$DW$T$67)
    5791                      .dwattr $C$DW$780, DW_AT_name("RoverL")
    5792                      .dwattr $C$DW$780, DW_AT_TI_symbol_name("_RoverL")
    5793                      .dwattr $C$DW$780, DW_AT_data_member_location[DW_OP_plus_uconst 0xc8]
    5794                      .dwattr $C$DW$780, DW_AT_accessibility(DW_ACCESS_public)
    5795              
    5796              $C$DW$781       .dwtag  DW_TAG_member
    5797                      .dwattr $C$DW$781, DW_AT_type(*$C$DW$T$31)
    5798                      .dwattr $C$DW$781, DW_AT_name("Kp_Id")
    5799                      .dwattr $C$DW$781, DW_AT_TI_symbol_name("_Kp_Id")
    5800                      .dwattr $C$DW$781, DW_AT_data_member_location[DW_OP_plus_uconst 0xca]
    5801                      .dwattr $C$DW$781, DW_AT_accessibility(DW_ACCESS_public)
    5802              
    5803              $C$DW$782       .dwtag  DW_TAG_member
    5804                      .dwattr $C$DW$782, DW_AT_type(*$C$DW$T$31)
    5805                      .dwattr $C$DW$782, DW_AT_name("Kp_Iq")
    5806                      .dwattr $C$DW$782, DW_AT_TI_symbol_name("_Kp_Iq")
    5807                      .dwattr $C$DW$782, DW_AT_data_member_location[DW_OP_plus_uconst 0xcc]
    5808                      .dwattr $C$DW$782, DW_AT_accessibility(DW_ACCESS_public)
    5809              
    5810              $C$DW$783       .dwtag  DW_TAG_member
    5811                      .dwattr $C$DW$783, DW_AT_type(*$C$DW$T$31)
    5812                      .dwattr $C$DW$783, DW_AT_name("Kp_spd")
    5813                      .dwattr $C$DW$783, DW_AT_TI_symbol_name("_Kp_spd")
    5814                      .dwattr $C$DW$783, DW_AT_data_member_location[DW_OP_plus_uconst 0xce]
    5815                      .dwattr $C$DW$783, DW_AT_accessibility(DW_ACCESS_public)
    5816              
    5817              $C$DW$784       .dwtag  DW_TAG_member
    5818                      .dwattr $C$DW$784, DW_AT_type(*$C$DW$T$31)
    5819                      .dwattr $C$DW$784, DW_AT_name("Ki_Id")
    5820                      .dwattr $C$DW$784, DW_AT_TI_symbol_name("_Ki_Id")
    5821                      .dwattr $C$DW$784, DW_AT_data_member_location[DW_OP_plus_uconst 0xd0]
    5822                      .dwattr $C$DW$784, DW_AT_accessibility(DW_ACCESS_public)
    5823              
    5824              $C$DW$785       .dwtag  DW_TAG_member
    5825                      .dwattr $C$DW$785, DW_AT_type(*$C$DW$T$31)
    5826                      .dwattr $C$DW$785, DW_AT_name("Ki_Iq")
    5827                      .dwattr $C$DW$785, DW_AT_TI_symbol_name("_Ki_Iq")
    5828                      .dwattr $C$DW$785, DW_AT_data_member_location[DW_OP_plus_uconst 0xd2]
    5829                      .dwattr $C$DW$785, DW_AT_accessibility(DW_ACCESS_public)
    5830              
    5831              $C$DW$786       .dwtag  DW_TAG_member
    5832                      .dwattr $C$DW$786, DW_AT_type(*$C$DW$T$31)
    5833                      .dwattr $C$DW$786, DW_AT_name("Ki_spd")
    5834                      .dwattr $C$DW$786, DW_AT_TI_symbol_name("_Ki_spd")
    5835                      .dwattr $C$DW$786, DW_AT_data_member_location[DW_OP_plus_uconst 0xd4]
    5836                      .dwattr $C$DW$786, DW_AT_accessibility(DW_ACCESS_public)
    5837              
    5838              $C$DW$787       .dwtag  DW_TAG_member
    5839                      .dwattr $C$DW$787, DW_AT_type(*$C$DW$T$31)
TMS320C2000 Assembler PC v18.1.2 Sun Jun 17 14:52:32 2018

Tools Copyright (c) 1996-2017 Texas Instruments Incorporated
C:\Users\haowp\AppData\Local\Temp\{81472915-7FA4-430D-8ACB-BFB8F401620C} PAGE  112

    5840                      .dwattr $C$DW$787, DW_AT_name("Kd_Id")
    5841                      .dwattr $C$DW$787, DW_AT_TI_symbol_name("_Kd_Id")
    5842                      .dwattr $C$DW$787, DW_AT_data_member_location[DW_OP_plus_uconst 0xd6]
    5843                      .dwattr $C$DW$787, DW_AT_accessibility(DW_ACCESS_public)
    5844              
    5845              $C$DW$788       .dwtag  DW_TAG_member
    5846                      .dwattr $C$DW$788, DW_AT_type(*$C$DW$T$31)
    5847                      .dwattr $C$DW$788, DW_AT_name("Kd_Iq")
    5848                      .dwattr $C$DW$788, DW_AT_TI_symbol_name("_Kd_Iq")
    5849                      .dwattr $C$DW$788, DW_AT_data_member_location[DW_OP_plus_uconst 0xd8]
    5850                      .dwattr $C$DW$788, DW_AT_accessibility(DW_ACCESS_public)
    5851              
    5852              $C$DW$789       .dwtag  DW_TAG_member
    5853                      .dwattr $C$DW$789, DW_AT_type(*$C$DW$T$31)
    5854                      .dwattr $C$DW$789, DW_AT_name("Kd_spd")
    5855                      .dwattr $C$DW$789, DW_AT_TI_symbol_name("_Kd_spd")
    5856                      .dwattr $C$DW$789, DW_AT_data_member_location[DW_OP_plus_uconst 0xda]
    5857                      .dwattr $C$DW$789, DW_AT_accessibility(DW_ACCESS_public)
    5858              
    5859              $C$DW$790       .dwtag  DW_TAG_member
    5860                      .dwattr $C$DW$790, DW_AT_type(*$C$DW$T$31)
    5861                      .dwattr $C$DW$790, DW_AT_name("Ui_Id")
    5862                      .dwattr $C$DW$790, DW_AT_TI_symbol_name("_Ui_Id")
    5863                      .dwattr $C$DW$790, DW_AT_data_member_location[DW_OP_plus_uconst 0xdc]
    5864                      .dwattr $C$DW$790, DW_AT_accessibility(DW_ACCESS_public)
    5865              
    5866              $C$DW$791       .dwtag  DW_TAG_member
    5867                      .dwattr $C$DW$791, DW_AT_type(*$C$DW$T$31)
    5868                      .dwattr $C$DW$791, DW_AT_name("Ui_Iq")
    5869                      .dwattr $C$DW$791, DW_AT_TI_symbol_name("_Ui_Iq")
    5870                      .dwattr $C$DW$791, DW_AT_data_member_location[DW_OP_plus_uconst 0xde]
    5871                      .dwattr $C$DW$791, DW_AT_accessibility(DW_ACCESS_public)
    5872              
    5873              $C$DW$792       .dwtag  DW_TAG_member
    5874                      .dwattr $C$DW$792, DW_AT_type(*$C$DW$T$31)
    5875                      .dwattr $C$DW$792, DW_AT_name("Ui_spd")
    5876                      .dwattr $C$DW$792, DW_AT_TI_symbol_name("_Ui_spd")
    5877                      .dwattr $C$DW$792, DW_AT_data_member_location[DW_OP_plus_uconst 0xe0]
    5878                      .dwattr $C$DW$792, DW_AT_accessibility(DW_ACCESS_public)
    5879              
    5880              $C$DW$793       .dwtag  DW_TAG_member
    5881                      .dwattr $C$DW$793, DW_AT_type(*$C$DW$T$68)
    5882                      .dwattr $C$DW$793, DW_AT_name("Idq_ref")
    5883                      .dwattr $C$DW$793, DW_AT_TI_symbol_name("_Idq_ref")
    5884                      .dwattr $C$DW$793, DW_AT_data_member_location[DW_OP_plus_uconst 0xe2]
    5885                      .dwattr $C$DW$793, DW_AT_accessibility(DW_ACCESS_public)
    5886              
    5887              $C$DW$794       .dwtag  DW_TAG_member
    5888                      .dwattr $C$DW$794, DW_AT_type(*$C$DW$T$31)
    5889                      .dwattr $C$DW$794, DW_AT_name("IdRated")
    5890                      .dwattr $C$DW$794, DW_AT_TI_symbol_name("_IdRated")
    5891                      .dwattr $C$DW$794, DW_AT_data_member_location[DW_OP_plus_uconst 0xe6]
    5892                      .dwattr $C$DW$794, DW_AT_accessibility(DW_ACCESS_public)
    5893              
    5894              $C$DW$795       .dwtag  DW_TAG_member
TMS320C2000 Assembler PC v18.1.2 Sun Jun 17 14:52:32 2018

Tools Copyright (c) 1996-2017 Texas Instruments Incorporated
C:\Users\haowp\AppData\Local\Temp\{81472915-7FA4-430D-8ACB-BFB8F401620C} PAGE  113

    5895                      .dwattr $C$DW$795, DW_AT_type(*$C$DW$T$31)
    5896                      .dwattr $C$DW$795, DW_AT_name("spd_ref")
    5897                      .dwattr $C$DW$795, DW_AT_TI_symbol_name("_spd_ref")
    5898                      .dwattr $C$DW$795, DW_AT_data_member_location[DW_OP_plus_uconst 0xe8]
    5899                      .dwattr $C$DW$795, DW_AT_accessibility(DW_ACCESS_public)
    5900              
    5901              $C$DW$796       .dwtag  DW_TAG_member
    5902                      .dwattr $C$DW$796, DW_AT_type(*$C$DW$T$31)
    5903                      .dwattr $C$DW$796, DW_AT_name("spd_max")
    5904                      .dwattr $C$DW$796, DW_AT_TI_symbol_name("_spd_max")
    5905                      .dwattr $C$DW$796, DW_AT_data_member_location[DW_OP_plus_uconst 0xea]
    5906                      .dwattr $C$DW$796, DW_AT_accessibility(DW_ACCESS_public)
    5907              
    5908              $C$DW$797       .dwtag  DW_TAG_member
    5909                      .dwattr $C$DW$797, DW_AT_type(*$C$DW$T$66)
    5910                      .dwattr $C$DW$797, DW_AT_name("counter_current")
    5911                      .dwattr $C$DW$797, DW_AT_TI_symbol_name("_counter_current")
    5912                      .dwattr $C$DW$797, DW_AT_data_member_location[DW_OP_plus_uconst 0xec]
    5913                      .dwattr $C$DW$797, DW_AT_accessibility(DW_ACCESS_public)
    5914              
    5915              $C$DW$798       .dwtag  DW_TAG_member
    5916                      .dwattr $C$DW$798, DW_AT_type(*$C$DW$T$66)
    5917                      .dwattr $C$DW$798, DW_AT_name("counter_isr")
    5918                      .dwattr $C$DW$798, DW_AT_TI_symbol_name("_counter_isr")
    5919                      .dwattr $C$DW$798, DW_AT_data_member_location[DW_OP_plus_uconst 0xed]
    5920                      .dwattr $C$DW$798, DW_AT_accessibility(DW_ACCESS_public)
    5921              
    5922              $C$DW$799       .dwtag  DW_TAG_member
    5923                      .dwattr $C$DW$799, DW_AT_type(*$C$DW$T$66)
    5924                      .dwattr $C$DW$799, DW_AT_name("counter_speed")
    5925                      .dwattr $C$DW$799, DW_AT_TI_symbol_name("_counter_speed")
    5926                      .dwattr $C$DW$799, DW_AT_data_member_location[DW_OP_plus_uconst 0xee]
    5927                      .dwattr $C$DW$799, DW_AT_accessibility(DW_ACCESS_public)
    5928              
    5929              $C$DW$800       .dwtag  DW_TAG_member
    5930                      .dwattr $C$DW$800, DW_AT_type(*$C$DW$T$66)
    5931                      .dwattr $C$DW$800, DW_AT_name("counter_traj")
    5932                      .dwattr $C$DW$800, DW_AT_TI_symbol_name("_counter_traj")
    5933                      .dwattr $C$DW$800, DW_AT_data_member_location[DW_OP_plus_uconst 0xef]
    5934                      .dwattr $C$DW$800, DW_AT_accessibility(DW_ACCESS_public)
    5935              
    5936              $C$DW$801       .dwtag  DW_TAG_member
    5937                      .dwattr $C$DW$801, DW_AT_type(*$C$DW$T$69)
    5938                      .dwattr $C$DW$801, DW_AT_name("flag_enableCtrl")
    5939                      .dwattr $C$DW$801, DW_AT_TI_symbol_name("_flag_enableCtrl")
    5940                      .dwattr $C$DW$801, DW_AT_data_member_location[DW_OP_plus_uconst 0xf0]
    5941                      .dwattr $C$DW$801, DW_AT_accessibility(DW_ACCESS_public)
    5942              
    5943              $C$DW$802       .dwtag  DW_TAG_member
    5944                      .dwattr $C$DW$802, DW_AT_type(*$C$DW$T$69)
    5945                      .dwattr $C$DW$802, DW_AT_name("flag_enableDcBusComp")
    5946                      .dwattr $C$DW$802, DW_AT_TI_symbol_name("_flag_enableDcBusComp")
    5947                      .dwattr $C$DW$802, DW_AT_data_member_location[DW_OP_plus_uconst 0xf1]
    5948                      .dwattr $C$DW$802, DW_AT_accessibility(DW_ACCESS_public)
    5949              
TMS320C2000 Assembler PC v18.1.2 Sun Jun 17 14:52:32 2018

Tools Copyright (c) 1996-2017 Texas Instruments Incorporated
C:\Users\haowp\AppData\Local\Temp\{81472915-7FA4-430D-8ACB-BFB8F401620C} PAGE  114

    5950              $C$DW$803       .dwtag  DW_TAG_member
    5951                      .dwattr $C$DW$803, DW_AT_type(*$C$DW$T$69)
    5952                      .dwattr $C$DW$803, DW_AT_name("flag_enablePowerWarp")
    5953                      .dwattr $C$DW$803, DW_AT_TI_symbol_name("_flag_enablePowerWarp")
    5954                      .dwattr $C$DW$803, DW_AT_data_member_location[DW_OP_plus_uconst 0xf2]
    5955                      .dwattr $C$DW$803, DW_AT_accessibility(DW_ACCESS_public)
    5956              
    5957              $C$DW$804       .dwtag  DW_TAG_member
    5958                      .dwattr $C$DW$804, DW_AT_type(*$C$DW$T$69)
    5959                      .dwattr $C$DW$804, DW_AT_name("flag_enableOffset")
    5960                      .dwattr $C$DW$804, DW_AT_TI_symbol_name("_flag_enableOffset")
    5961                      .dwattr $C$DW$804, DW_AT_data_member_location[DW_OP_plus_uconst 0xf3]
    5962                      .dwattr $C$DW$804, DW_AT_accessibility(DW_ACCESS_public)
    5963              
    5964              $C$DW$805       .dwtag  DW_TAG_member
    5965                      .dwattr $C$DW$805, DW_AT_type(*$C$DW$T$69)
    5966                      .dwattr $C$DW$805, DW_AT_name("flag_enableSpeedCtrl")
    5967                      .dwattr $C$DW$805, DW_AT_TI_symbol_name("_flag_enableSpeedCtrl")
    5968                      .dwattr $C$DW$805, DW_AT_data_member_location[DW_OP_plus_uconst 0xf4]
    5969                      .dwattr $C$DW$805, DW_AT_accessibility(DW_ACCESS_public)
    5970              
    5971              $C$DW$806       .dwtag  DW_TAG_member
    5972                      .dwattr $C$DW$806, DW_AT_type(*$C$DW$T$69)
    5973                      .dwattr $C$DW$806, DW_AT_name("flag_enableUserMotorParams")
    5974                      .dwattr $C$DW$806, DW_AT_TI_symbol_name("_flag_enableUserMotorParams")
    5975                      .dwattr $C$DW$806, DW_AT_data_member_location[DW_OP_plus_uconst 0xf5]
    5976                      .dwattr $C$DW$806, DW_AT_accessibility(DW_ACCESS_public)
    5977              
    5978              $C$DW$807       .dwtag  DW_TAG_member
    5979                      .dwattr $C$DW$807, DW_AT_type(*$C$DW$T$68)
    5980                      .dwattr $C$DW$807, DW_AT_name("Idq_offset_pu")
    5981                      .dwattr $C$DW$807, DW_AT_TI_symbol_name("_Idq_offset_pu")
    5982                      .dwattr $C$DW$807, DW_AT_data_member_location[DW_OP_plus_uconst 0xf6]
    5983                      .dwattr $C$DW$807, DW_AT_accessibility(DW_ACCESS_public)
    5984              
    5985              $C$DW$808       .dwtag  DW_TAG_member
    5986                      .dwattr $C$DW$808, DW_AT_type(*$C$DW$T$68)
    5987                      .dwattr $C$DW$808, DW_AT_name("Vdq_offset_pu")
    5988                      .dwattr $C$DW$808, DW_AT_TI_symbol_name("_Vdq_offset_pu")
    5989                      .dwattr $C$DW$808, DW_AT_data_member_location[DW_OP_plus_uconst 0xfa]
    5990                      .dwattr $C$DW$808, DW_AT_accessibility(DW_ACCESS_public)
    5991              
    5992              $C$DW$809       .dwtag  DW_TAG_member
    5993                      .dwattr $C$DW$809, DW_AT_type(*$C$DW$T$31)
    5994                      .dwattr $C$DW$809, DW_AT_name("angle_pu")
    5995                      .dwattr $C$DW$809, DW_AT_TI_symbol_name("_angle_pu")
    5996                      .dwattr $C$DW$809, DW_AT_data_member_location[DW_OP_plus_uconst 0xfe]
    5997                      .dwattr $C$DW$809, DW_AT_accessibility(DW_ACCESS_public)
    5998              
    5999              $C$DW$810       .dwtag  DW_TAG_member
    6000                      .dwattr $C$DW$810, DW_AT_type(*$C$DW$T$31)
    6001                      .dwattr $C$DW$810, DW_AT_name("speed_ref_pu")
    6002                      .dwattr $C$DW$810, DW_AT_TI_symbol_name("_speed_ref_pu")
    6003                      .dwattr $C$DW$810, DW_AT_data_member_location[DW_OP_plus_uconst 0x100]
    6004                      .dwattr $C$DW$810, DW_AT_accessibility(DW_ACCESS_public)
TMS320C2000 Assembler PC v18.1.2 Sun Jun 17 14:52:32 2018

Tools Copyright (c) 1996-2017 Texas Instruments Incorporated
C:\Users\haowp\AppData\Local\Temp\{81472915-7FA4-430D-8ACB-BFB8F401620C} PAGE  115

    6005              
    6006              $C$DW$811       .dwtag  DW_TAG_member
    6007                      .dwattr $C$DW$811, DW_AT_type(*$C$DW$T$31)
    6008                      .dwattr $C$DW$811, DW_AT_name("speed_fb_pu")
    6009                      .dwattr $C$DW$811, DW_AT_TI_symbol_name("_speed_fb_pu")
    6010                      .dwattr $C$DW$811, DW_AT_data_member_location[DW_OP_plus_uconst 0x102]
    6011                      .dwattr $C$DW$811, DW_AT_accessibility(DW_ACCESS_public)
    6012              
    6013              $C$DW$812       .dwtag  DW_TAG_member
    6014                      .dwattr $C$DW$812, DW_AT_type(*$C$DW$T$31)
    6015                      .dwattr $C$DW$812, DW_AT_name("speed_outMax_pu")
    6016                      .dwattr $C$DW$812, DW_AT_TI_symbol_name("_speed_outMax_pu")
    6017                      .dwattr $C$DW$812, DW_AT_data_member_location[DW_OP_plus_uconst 0x104]
    6018                      .dwattr $C$DW$812, DW_AT_accessibility(DW_ACCESS_public)
    6019              
    6020              $C$DW$813       .dwtag  DW_TAG_member
    6021                      .dwattr $C$DW$813, DW_AT_type(*$C$DW$T$69)
    6022                      .dwattr $C$DW$813, DW_AT_name("flag_enableCurrentCtrl")
    6023                      .dwattr $C$DW$813, DW_AT_TI_symbol_name("_flag_enableCurrentCtrl")
    6024                      .dwattr $C$DW$813, DW_AT_data_member_location[DW_OP_plus_uconst 0x106]
    6025                      .dwattr $C$DW$813, DW_AT_accessibility(DW_ACCESS_public)
    6026              
    6027                      .dwendtag $C$DW$T$70
    6028              
    6029              $C$DW$T$264     .dwtag  DW_TAG_typedef
    6030                      .dwattr $C$DW$T$264, DW_AT_name("CTRL_Obj")
    6031                      .dwattr $C$DW$T$264, DW_AT_type(*$C$DW$T$70)
    6032                      .dwattr $C$DW$T$264, DW_AT_language(DW_LANG_C)
    6033              
    6034              $C$DW$T$265     .dwtag  DW_TAG_pointer_type
    6035                      .dwattr $C$DW$T$265, DW_AT_type(*$C$DW$T$264)
    6036                      .dwattr $C$DW$T$265, DW_AT_address_class(0x20)
    6037              
    6038              $C$DW$T$236     .dwtag  DW_TAG_pointer_type
    6039                      .dwattr $C$DW$T$236, DW_AT_type(*$C$DW$T$70)
    6040                      .dwattr $C$DW$T$236, DW_AT_address_class(0x20)
    6041              
    6042              $C$DW$T$237     .dwtag  DW_TAG_typedef
    6043                      .dwattr $C$DW$T$237, DW_AT_name("CTRL_Handle")
    6044                      .dwattr $C$DW$T$237, DW_AT_type(*$C$DW$T$236)
    6045                      .dwattr $C$DW$T$237, DW_AT_language(DW_LANG_C)
    6046              
    6047              $C$DW$814       .dwtag  DW_TAG_TI_far_type
    6048                      .dwattr $C$DW$814, DW_AT_type(*$C$DW$T$237)
    6049              
    6050              $C$DW$T$266     .dwtag  DW_TAG_const_type
    6051                      .dwattr $C$DW$T$266, DW_AT_type(*$C$DW$814)
    6052              
    6053              
    6054              $C$DW$T$73      .dwtag  DW_TAG_structure_type
    6055                      .dwattr $C$DW$T$73, DW_AT_name("_CTRL_Version_")
    6056                      .dwattr $C$DW$T$73, DW_AT_byte_size(0x04)
    6057              $C$DW$815       .dwtag  DW_TAG_member
    6058                      .dwattr $C$DW$815, DW_AT_type(*$C$DW$T$22)
    6059                      .dwattr $C$DW$815, DW_AT_name("rsvd")
TMS320C2000 Assembler PC v18.1.2 Sun Jun 17 14:52:32 2018

Tools Copyright (c) 1996-2017 Texas Instruments Incorporated
C:\Users\haowp\AppData\Local\Temp\{81472915-7FA4-430D-8ACB-BFB8F401620C} PAGE  116

    6060                      .dwattr $C$DW$815, DW_AT_TI_symbol_name("_rsvd")
    6061                      .dwattr $C$DW$815, DW_AT_data_member_location[DW_OP_plus_uconst 0x0]
    6062                      .dwattr $C$DW$815, DW_AT_accessibility(DW_ACCESS_public)
    6063              
    6064              $C$DW$816       .dwtag  DW_TAG_member
    6065                      .dwattr $C$DW$816, DW_AT_type(*$C$DW$T$72)
    6066                      .dwattr $C$DW$816, DW_AT_name("targetProc")
    6067                      .dwattr $C$DW$816, DW_AT_TI_symbol_name("_targetProc")
    6068                      .dwattr $C$DW$816, DW_AT_data_member_location[DW_OP_plus_uconst 0x1]
    6069                      .dwattr $C$DW$816, DW_AT_accessibility(DW_ACCESS_public)
    6070              
    6071              $C$DW$817       .dwtag  DW_TAG_member
    6072                      .dwattr $C$DW$817, DW_AT_type(*$C$DW$T$22)
    6073                      .dwattr $C$DW$817, DW_AT_name("major")
    6074                      .dwattr $C$DW$817, DW_AT_TI_symbol_name("_major")
    6075                      .dwattr $C$DW$817, DW_AT_data_member_location[DW_OP_plus_uconst 0x2]
    6076                      .dwattr $C$DW$817, DW_AT_accessibility(DW_ACCESS_public)
    6077              
    6078              $C$DW$818       .dwtag  DW_TAG_member
    6079                      .dwattr $C$DW$818, DW_AT_type(*$C$DW$T$22)
    6080                      .dwattr $C$DW$818, DW_AT_name("minor")
    6081                      .dwattr $C$DW$818, DW_AT_TI_symbol_name("_minor")
    6082                      .dwattr $C$DW$818, DW_AT_data_member_location[DW_OP_plus_uconst 0x3]
    6083                      .dwattr $C$DW$818, DW_AT_accessibility(DW_ACCESS_public)
    6084              
    6085                      .dwendtag $C$DW$T$73
    6086              
    6087              $C$DW$T$37      .dwtag  DW_TAG_typedef
    6088                      .dwattr $C$DW$T$37, DW_AT_name("CTRL_Version")
    6089                      .dwattr $C$DW$T$37, DW_AT_type(*$C$DW$T$73)
    6090                      .dwattr $C$DW$T$37, DW_AT_language(DW_LANG_C)
    6091              
    6092              $C$DW$T$274     .dwtag  DW_TAG_pointer_type
    6093                      .dwattr $C$DW$T$274, DW_AT_type(*$C$DW$T$37)
    6094                      .dwattr $C$DW$T$274, DW_AT_address_class(0x20)
    6095              
    6096              
    6097              $C$DW$T$80      .dwtag  DW_TAG_structure_type
    6098                      .dwattr $C$DW$T$80, DW_AT_name("_DRV8305_Obj_")
    6099                      .dwattr $C$DW$T$80, DW_AT_byte_size(0x08)
    6100              $C$DW$819       .dwtag  DW_TAG_member
    6101                      .dwattr $C$DW$819, DW_AT_type(*$C$DW$T$75)
    6102                      .dwattr $C$DW$819, DW_AT_name("spiHandle")
    6103                      .dwattr $C$DW$819, DW_AT_TI_symbol_name("_spiHandle")
    6104                      .dwattr $C$DW$819, DW_AT_data_member_location[DW_OP_plus_uconst 0x0]
    6105                      .dwattr $C$DW$819, DW_AT_accessibility(DW_ACCESS_public)
    6106              
    6107              $C$DW$820       .dwtag  DW_TAG_member
    6108                      .dwattr $C$DW$820, DW_AT_type(*$C$DW$T$77)
    6109                      .dwattr $C$DW$820, DW_AT_name("gpioHandle")
    6110                      .dwattr $C$DW$820, DW_AT_TI_symbol_name("_gpioHandle")
    6111                      .dwattr $C$DW$820, DW_AT_data_member_location[DW_OP_plus_uconst 0x2]
    6112                      .dwattr $C$DW$820, DW_AT_accessibility(DW_ACCESS_public)
    6113              
    6114              $C$DW$821       .dwtag  DW_TAG_member
TMS320C2000 Assembler PC v18.1.2 Sun Jun 17 14:52:32 2018

Tools Copyright (c) 1996-2017 Texas Instruments Incorporated
C:\Users\haowp\AppData\Local\Temp\{81472915-7FA4-430D-8ACB-BFB8F401620C} PAGE  117

    6115                      .dwattr $C$DW$821, DW_AT_type(*$C$DW$T$79)
    6116                      .dwattr $C$DW$821, DW_AT_name("gpioNumber")
    6117                      .dwattr $C$DW$821, DW_AT_TI_symbol_name("_gpioNumber")
    6118                      .dwattr $C$DW$821, DW_AT_data_member_location[DW_OP_plus_uconst 0x4]
    6119                      .dwattr $C$DW$821, DW_AT_accessibility(DW_ACCESS_public)
    6120              
    6121              $C$DW$822       .dwtag  DW_TAG_member
    6122                      .dwattr $C$DW$822, DW_AT_type(*$C$DW$T$69)
    6123                      .dwattr $C$DW$822, DW_AT_name("RxTimeOut")
    6124                      .dwattr $C$DW$822, DW_AT_TI_symbol_name("_RxTimeOut")
    6125                      .dwattr $C$DW$822, DW_AT_data_member_location[DW_OP_plus_uconst 0x5]
    6126                      .dwattr $C$DW$822, DW_AT_accessibility(DW_ACCESS_public)
    6127              
    6128              $C$DW$823       .dwtag  DW_TAG_member
    6129                      .dwattr $C$DW$823, DW_AT_type(*$C$DW$T$69)
    6130                      .dwattr $C$DW$823, DW_AT_name("enableTimeOut")
    6131                      .dwattr $C$DW$823, DW_AT_TI_symbol_name("_enableTimeOut")
    6132                      .dwattr $C$DW$823, DW_AT_data_member_location[DW_OP_plus_uconst 0x6]
    6133                      .dwattr $C$DW$823, DW_AT_accessibility(DW_ACCESS_public)
    6134              
    6135                      .dwendtag $C$DW$T$80
    6136              
    6137              $C$DW$T$189     .dwtag  DW_TAG_typedef
    6138                      .dwattr $C$DW$T$189, DW_AT_name("DRV8305_Obj")
    6139                      .dwattr $C$DW$T$189, DW_AT_type(*$C$DW$T$80)
    6140                      .dwattr $C$DW$T$189, DW_AT_language(DW_LANG_C)
    6141              
    6142              $C$DW$T$187     .dwtag  DW_TAG_pointer_type
    6143                      .dwattr $C$DW$T$187, DW_AT_type(*$C$DW$T$80)
    6144                      .dwattr $C$DW$T$187, DW_AT_address_class(0x20)
    6145              
    6146              $C$DW$T$188     .dwtag  DW_TAG_typedef
    6147                      .dwattr $C$DW$T$188, DW_AT_name("DRV8305_Handle")
    6148                      .dwattr $C$DW$T$188, DW_AT_type(*$C$DW$T$187)
    6149                      .dwattr $C$DW$T$188, DW_AT_language(DW_LANG_C)
    6150              
    6151              
    6152              $C$DW$T$87      .dwtag  DW_TAG_structure_type
    6153                      .dwattr $C$DW$T$87, DW_AT_name("_DRV_SPI_8305_Ctrl05_t_")
    6154                      .dwattr $C$DW$T$87, DW_AT_byte_size(0x04)
    6155              $C$DW$824       .dwtag  DW_TAG_member
    6156                      .dwattr $C$DW$824, DW_AT_type(*$C$DW$T$82)
    6157                      .dwattr $C$DW$824, DW_AT_name("IDRIVEP_HS")
    6158                      .dwattr $C$DW$824, DW_AT_TI_symbol_name("_IDRIVEP_HS")
    6159                      .dwattr $C$DW$824, DW_AT_data_member_location[DW_OP_plus_uconst 0x0]
    6160                      .dwattr $C$DW$824, DW_AT_accessibility(DW_ACCESS_public)
    6161              
    6162              $C$DW$825       .dwtag  DW_TAG_member
    6163                      .dwattr $C$DW$825, DW_AT_type(*$C$DW$T$84)
    6164                      .dwattr $C$DW$825, DW_AT_name("IDRIVEN_HS")
    6165                      .dwattr $C$DW$825, DW_AT_TI_symbol_name("_IDRIVEN_HS")
    6166                      .dwattr $C$DW$825, DW_AT_data_member_location[DW_OP_plus_uconst 0x1]
    6167                      .dwattr $C$DW$825, DW_AT_accessibility(DW_ACCESS_public)
    6168              
    6169              $C$DW$826       .dwtag  DW_TAG_member
TMS320C2000 Assembler PC v18.1.2 Sun Jun 17 14:52:32 2018

Tools Copyright (c) 1996-2017 Texas Instruments Incorporated
C:\Users\haowp\AppData\Local\Temp\{81472915-7FA4-430D-8ACB-BFB8F401620C} PAGE  118

    6170                      .dwattr $C$DW$826, DW_AT_type(*$C$DW$T$86)
    6171                      .dwattr $C$DW$826, DW_AT_name("TDRIVEN")
    6172                      .dwattr $C$DW$826, DW_AT_TI_symbol_name("_TDRIVEN")
    6173                      .dwattr $C$DW$826, DW_AT_data_member_location[DW_OP_plus_uconst 0x2]
    6174                      .dwattr $C$DW$826, DW_AT_accessibility(DW_ACCESS_public)
    6175              
    6176              $C$DW$827       .dwtag  DW_TAG_member
    6177                      .dwattr $C$DW$827, DW_AT_type(*$C$DW$T$69)
    6178                      .dwattr $C$DW$827, DW_AT_name("CTRL05_RSV1")
    6179                      .dwattr $C$DW$827, DW_AT_TI_symbol_name("_CTRL05_RSV1")
    6180                      .dwattr $C$DW$827, DW_AT_data_member_location[DW_OP_plus_uconst 0x3]
    6181                      .dwattr $C$DW$827, DW_AT_accessibility(DW_ACCESS_public)
    6182              
    6183                      .dwendtag $C$DW$T$87
    6184              
    6185              $C$DW$T$139     .dwtag  DW_TAG_typedef
    6186                      .dwattr $C$DW$T$139, DW_AT_name("DRV_SPI_8305_Ctrl05_t_")
    6187                      .dwattr $C$DW$T$139, DW_AT_type(*$C$DW$T$87)
    6188                      .dwattr $C$DW$T$139, DW_AT_language(DW_LANG_C)
    6189              
    6190              
    6191              $C$DW$T$94      .dwtag  DW_TAG_structure_type
    6192                      .dwattr $C$DW$T$94, DW_AT_name("_DRV_SPI_8305_Ctrl06_t_")
    6193                      .dwattr $C$DW$T$94, DW_AT_byte_size(0x04)
    6194              $C$DW$828       .dwtag  DW_TAG_member
    6195                      .dwattr $C$DW$828, DW_AT_type(*$C$DW$T$89)
    6196                      .dwattr $C$DW$828, DW_AT_name("IDRIVEP_LS")
    6197                      .dwattr $C$DW$828, DW_AT_TI_symbol_name("_IDRIVEP_LS")
    6198                      .dwattr $C$DW$828, DW_AT_data_member_location[DW_OP_plus_uconst 0x0]
    6199                      .dwattr $C$DW$828, DW_AT_accessibility(DW_ACCESS_public)
    6200              
    6201              $C$DW$829       .dwtag  DW_TAG_member
    6202                      .dwattr $C$DW$829, DW_AT_type(*$C$DW$T$91)
    6203                      .dwattr $C$DW$829, DW_AT_name("IDRIVEN_LS")
    6204                      .dwattr $C$DW$829, DW_AT_TI_symbol_name("_IDRIVEN_LS")
    6205                      .dwattr $C$DW$829, DW_AT_data_member_location[DW_OP_plus_uconst 0x1]
    6206                      .dwattr $C$DW$829, DW_AT_accessibility(DW_ACCESS_public)
    6207              
    6208              $C$DW$830       .dwtag  DW_TAG_member
    6209                      .dwattr $C$DW$830, DW_AT_type(*$C$DW$T$93)
    6210                      .dwattr $C$DW$830, DW_AT_name("TDRIVEP")
    6211                      .dwattr $C$DW$830, DW_AT_TI_symbol_name("_TDRIVEP")
    6212                      .dwattr $C$DW$830, DW_AT_data_member_location[DW_OP_plus_uconst 0x2]
    6213                      .dwattr $C$DW$830, DW_AT_accessibility(DW_ACCESS_public)
    6214              
    6215              $C$DW$831       .dwtag  DW_TAG_member
    6216                      .dwattr $C$DW$831, DW_AT_type(*$C$DW$T$69)
    6217                      .dwattr $C$DW$831, DW_AT_name("CTRL06_RSV1")
    6218                      .dwattr $C$DW$831, DW_AT_TI_symbol_name("_CTRL06_RSV1")
    6219                      .dwattr $C$DW$831, DW_AT_data_member_location[DW_OP_plus_uconst 0x3]
    6220                      .dwattr $C$DW$831, DW_AT_accessibility(DW_ACCESS_public)
    6221              
    6222                      .dwendtag $C$DW$T$94
    6223              
    6224              $C$DW$T$140     .dwtag  DW_TAG_typedef
TMS320C2000 Assembler PC v18.1.2 Sun Jun 17 14:52:32 2018

Tools Copyright (c) 1996-2017 Texas Instruments Incorporated
C:\Users\haowp\AppData\Local\Temp\{81472915-7FA4-430D-8ACB-BFB8F401620C} PAGE  119

    6225                      .dwattr $C$DW$T$140, DW_AT_name("DRV_SPI_8305_Ctrl06_t_")
    6226                      .dwattr $C$DW$T$140, DW_AT_type(*$C$DW$T$94)
    6227                      .dwattr $C$DW$T$140, DW_AT_language(DW_LANG_C)
    6228              
    6229              
    6230              $C$DW$T$105     .dwtag  DW_TAG_structure_type
    6231                      .dwattr $C$DW$T$105, DW_AT_name("_DRV_SPI_8305_Ctrl07_t_")
    6232                      .dwattr $C$DW$T$105, DW_AT_byte_size(0x06)
    6233              $C$DW$832       .dwtag  DW_TAG_member
    6234                      .dwattr $C$DW$832, DW_AT_type(*$C$DW$T$96)
    6235                      .dwattr $C$DW$832, DW_AT_name("TVDS")
    6236                      .dwattr $C$DW$832, DW_AT_TI_symbol_name("_TVDS")
    6237                      .dwattr $C$DW$832, DW_AT_data_member_location[DW_OP_plus_uconst 0x0]
    6238                      .dwattr $C$DW$832, DW_AT_accessibility(DW_ACCESS_public)
    6239              
    6240              $C$DW$833       .dwtag  DW_TAG_member
    6241                      .dwattr $C$DW$833, DW_AT_type(*$C$DW$T$98)
    6242                      .dwattr $C$DW$833, DW_AT_name("TBLANK")
    6243                      .dwattr $C$DW$833, DW_AT_TI_symbol_name("_TBLANK")
    6244                      .dwattr $C$DW$833, DW_AT_data_member_location[DW_OP_plus_uconst 0x1]
    6245                      .dwattr $C$DW$833, DW_AT_accessibility(DW_ACCESS_public)
    6246              
    6247              $C$DW$834       .dwtag  DW_TAG_member
    6248                      .dwattr $C$DW$834, DW_AT_type(*$C$DW$T$100)
    6249                      .dwattr $C$DW$834, DW_AT_name("DEAD_TIME")
    6250                      .dwattr $C$DW$834, DW_AT_TI_symbol_name("_DEAD_TIME")
    6251                      .dwattr $C$DW$834, DW_AT_data_member_location[DW_OP_plus_uconst 0x2]
    6252                      .dwattr $C$DW$834, DW_AT_accessibility(DW_ACCESS_public)
    6253              
    6254              $C$DW$835       .dwtag  DW_TAG_member
    6255                      .dwattr $C$DW$835, DW_AT_type(*$C$DW$T$102)
    6256                      .dwattr $C$DW$835, DW_AT_name("PWM_MODE")
    6257                      .dwattr $C$DW$835, DW_AT_TI_symbol_name("_PWM_MODE")
    6258                      .dwattr $C$DW$835, DW_AT_data_member_location[DW_OP_plus_uconst 0x3]
    6259                      .dwattr $C$DW$835, DW_AT_accessibility(DW_ACCESS_public)
    6260              
    6261              $C$DW$836       .dwtag  DW_TAG_member
    6262                      .dwattr $C$DW$836, DW_AT_type(*$C$DW$T$104)
    6263                      .dwattr $C$DW$836, DW_AT_name("COMM_OPT")
    6264                      .dwattr $C$DW$836, DW_AT_TI_symbol_name("_COMM_OPT")
    6265                      .dwattr $C$DW$836, DW_AT_data_member_location[DW_OP_plus_uconst 0x4]
    6266                      .dwattr $C$DW$836, DW_AT_accessibility(DW_ACCESS_public)
    6267              
    6268              $C$DW$837       .dwtag  DW_TAG_member
    6269                      .dwattr $C$DW$837, DW_AT_type(*$C$DW$T$69)
    6270                      .dwattr $C$DW$837, DW_AT_name("CTRL07_RSV1")
    6271                      .dwattr $C$DW$837, DW_AT_TI_symbol_name("_CTRL07_RSV1")
    6272                      .dwattr $C$DW$837, DW_AT_data_member_location[DW_OP_plus_uconst 0x5]
    6273                      .dwattr $C$DW$837, DW_AT_accessibility(DW_ACCESS_public)
    6274              
    6275                      .dwendtag $C$DW$T$105
    6276              
    6277              $C$DW$T$141     .dwtag  DW_TAG_typedef
    6278                      .dwattr $C$DW$T$141, DW_AT_name("DRV_SPI_8305_Ctrl07_t_")
    6279                      .dwattr $C$DW$T$141, DW_AT_type(*$C$DW$T$105)
TMS320C2000 Assembler PC v18.1.2 Sun Jun 17 14:52:32 2018

Tools Copyright (c) 1996-2017 Texas Instruments Incorporated
C:\Users\haowp\AppData\Local\Temp\{81472915-7FA4-430D-8ACB-BFB8F401620C} PAGE  120

    6280                      .dwattr $C$DW$T$141, DW_AT_language(DW_LANG_C)
    6281              
    6282              
    6283              $C$DW$T$106     .dwtag  DW_TAG_structure_type
    6284                      .dwattr $C$DW$T$106, DW_AT_name("_DRV_SPI_8305_Ctrl08_t_")
    6285                      .dwattr $C$DW$T$106, DW_AT_byte_size(0x01)
    6286              $C$DW$838       .dwtag  DW_TAG_member
    6287                      .dwattr $C$DW$838, DW_AT_type(*$C$DW$T$22)
    6288                      .dwattr $C$DW$838, DW_AT_name("CTRL08_RSV1")
    6289                      .dwattr $C$DW$838, DW_AT_TI_symbol_name("_CTRL08_RSV1")
    6290                      .dwattr $C$DW$838, DW_AT_data_member_location[DW_OP_plus_uconst 0x0]
    6291                      .dwattr $C$DW$838, DW_AT_accessibility(DW_ACCESS_public)
    6292              
    6293                      .dwendtag $C$DW$T$106
    6294              
    6295              $C$DW$T$142     .dwtag  DW_TAG_typedef
    6296                      .dwattr $C$DW$T$142, DW_AT_name("DRV_SPI_8305_Ctrl08_t_")
    6297                      .dwattr $C$DW$T$142, DW_AT_type(*$C$DW$T$106)
    6298                      .dwattr $C$DW$T$142, DW_AT_language(DW_LANG_C)
    6299              
    6300              
    6301              $C$DW$T$109     .dwtag  DW_TAG_structure_type
    6302                      .dwattr $C$DW$T$109, DW_AT_name("_DRV_SPI_8305_Ctrl09_t_")
    6303                      .dwattr $C$DW$T$109, DW_AT_byte_size(0x0a)
    6304              $C$DW$839       .dwtag  DW_TAG_member
    6305                      .dwattr $C$DW$839, DW_AT_type(*$C$DW$T$69)
    6306                      .dwattr $C$DW$839, DW_AT_name("SET_VCPH_UV")
    6307                      .dwattr $C$DW$839, DW_AT_TI_symbol_name("_SET_VCPH_UV")
    6308                      .dwattr $C$DW$839, DW_AT_data_member_location[DW_OP_plus_uconst 0x0]
    6309                      .dwattr $C$DW$839, DW_AT_accessibility(DW_ACCESS_public)
    6310              
    6311              $C$DW$840       .dwtag  DW_TAG_member
    6312                      .dwattr $C$DW$840, DW_AT_type(*$C$DW$T$69)
    6313                      .dwattr $C$DW$840, DW_AT_name("CLR_FLTS")
    6314                      .dwattr $C$DW$840, DW_AT_TI_symbol_name("_CLR_FLTS")
    6315                      .dwattr $C$DW$840, DW_AT_data_member_location[DW_OP_plus_uconst 0x1]
    6316                      .dwattr $C$DW$840, DW_AT_accessibility(DW_ACCESS_public)
    6317              
    6318              $C$DW$841       .dwtag  DW_TAG_member
    6319                      .dwattr $C$DW$841, DW_AT_type(*$C$DW$T$69)
    6320                      .dwattr $C$DW$841, DW_AT_name("SLEEP")
    6321                      .dwattr $C$DW$841, DW_AT_TI_symbol_name("_SLEEP")
    6322                      .dwattr $C$DW$841, DW_AT_data_member_location[DW_OP_plus_uconst 0x2]
    6323                      .dwattr $C$DW$841, DW_AT_accessibility(DW_ACCESS_public)
    6324              
    6325              $C$DW$842       .dwtag  DW_TAG_member
    6326                      .dwattr $C$DW$842, DW_AT_type(*$C$DW$T$69)
    6327                      .dwattr $C$DW$842, DW_AT_name("WD_EN")
    6328                      .dwattr $C$DW$842, DW_AT_TI_symbol_name("_WD_EN")
    6329                      .dwattr $C$DW$842, DW_AT_data_member_location[DW_OP_plus_uconst 0x3]
    6330                      .dwattr $C$DW$842, DW_AT_accessibility(DW_ACCESS_public)
    6331              
    6332              $C$DW$843       .dwtag  DW_TAG_member
    6333                      .dwattr $C$DW$843, DW_AT_type(*$C$DW$T$69)
    6334                      .dwattr $C$DW$843, DW_AT_name("DIS_SNS_OCP")
TMS320C2000 Assembler PC v18.1.2 Sun Jun 17 14:52:32 2018

Tools Copyright (c) 1996-2017 Texas Instruments Incorporated
C:\Users\haowp\AppData\Local\Temp\{81472915-7FA4-430D-8ACB-BFB8F401620C} PAGE  121

    6335                      .dwattr $C$DW$843, DW_AT_TI_symbol_name("_DIS_SNS_OCP")
    6336                      .dwattr $C$DW$843, DW_AT_data_member_location[DW_OP_plus_uconst 0x4]
    6337                      .dwattr $C$DW$843, DW_AT_accessibility(DW_ACCESS_public)
    6338              
    6339              $C$DW$844       .dwtag  DW_TAG_member
    6340                      .dwattr $C$DW$844, DW_AT_type(*$C$DW$T$108)
    6341                      .dwattr $C$DW$844, DW_AT_name("WD_DLY")
    6342                      .dwattr $C$DW$844, DW_AT_TI_symbol_name("_WD_DLY")
    6343                      .dwattr $C$DW$844, DW_AT_data_member_location[DW_OP_plus_uconst 0x5]
    6344                      .dwattr $C$DW$844, DW_AT_accessibility(DW_ACCESS_public)
    6345              
    6346              $C$DW$845       .dwtag  DW_TAG_member
    6347                      .dwattr $C$DW$845, DW_AT_type(*$C$DW$T$69)
    6348                      .dwattr $C$DW$845, DW_AT_name("EN_SNS_CLAMP")
    6349                      .dwattr $C$DW$845, DW_AT_TI_symbol_name("_EN_SNS_CLAMP")
    6350                      .dwattr $C$DW$845, DW_AT_data_member_location[DW_OP_plus_uconst 0x6]
    6351                      .dwattr $C$DW$845, DW_AT_accessibility(DW_ACCESS_public)
    6352              
    6353              $C$DW$846       .dwtag  DW_TAG_member
    6354                      .dwattr $C$DW$846, DW_AT_type(*$C$DW$T$69)
    6355                      .dwattr $C$DW$846, DW_AT_name("DIS_GDRV_FAULT")
    6356                      .dwattr $C$DW$846, DW_AT_TI_symbol_name("_DIS_GDRV_FAULT")
    6357                      .dwattr $C$DW$846, DW_AT_data_member_location[DW_OP_plus_uconst 0x7]
    6358                      .dwattr $C$DW$846, DW_AT_accessibility(DW_ACCESS_public)
    6359              
    6360              $C$DW$847       .dwtag  DW_TAG_member
    6361                      .dwattr $C$DW$847, DW_AT_type(*$C$DW$T$69)
    6362                      .dwattr $C$DW$847, DW_AT_name("DISABLE")
    6363                      .dwattr $C$DW$847, DW_AT_TI_symbol_name("_DISABLE")
    6364                      .dwattr $C$DW$847, DW_AT_data_member_location[DW_OP_plus_uconst 0x8]
    6365                      .dwattr $C$DW$847, DW_AT_accessibility(DW_ACCESS_public)
    6366              
    6367              $C$DW$848       .dwtag  DW_TAG_member
    6368                      .dwattr $C$DW$848, DW_AT_type(*$C$DW$T$69)
    6369                      .dwattr $C$DW$848, DW_AT_name("FLIP_OTS")
    6370                      .dwattr $C$DW$848, DW_AT_TI_symbol_name("_FLIP_OTS")
    6371                      .dwattr $C$DW$848, DW_AT_data_member_location[DW_OP_plus_uconst 0x9]
    6372                      .dwattr $C$DW$848, DW_AT_accessibility(DW_ACCESS_public)
    6373              
    6374                      .dwendtag $C$DW$T$109
    6375              
    6376              $C$DW$T$143     .dwtag  DW_TAG_typedef
    6377                      .dwattr $C$DW$T$143, DW_AT_name("DRV_SPI_8305_Ctrl09_t_")
    6378                      .dwattr $C$DW$T$143, DW_AT_type(*$C$DW$T$109)
    6379                      .dwattr $C$DW$T$143, DW_AT_language(DW_LANG_C)
    6380              
    6381              
    6382              $C$DW$T$118     .dwtag  DW_TAG_structure_type
    6383                      .dwattr $C$DW$T$118, DW_AT_name("_DRV_SPI_8305_Ctrl0A_t_")
    6384                      .dwattr $C$DW$T$118, DW_AT_byte_size(0x07)
    6385              $C$DW$849       .dwtag  DW_TAG_member
    6386                      .dwattr $C$DW$849, DW_AT_type(*$C$DW$T$111)
    6387                      .dwattr $C$DW$849, DW_AT_name("GAIN_CS1")
    6388                      .dwattr $C$DW$849, DW_AT_TI_symbol_name("_GAIN_CS1")
    6389                      .dwattr $C$DW$849, DW_AT_data_member_location[DW_OP_plus_uconst 0x0]
TMS320C2000 Assembler PC v18.1.2 Sun Jun 17 14:52:32 2018

Tools Copyright (c) 1996-2017 Texas Instruments Incorporated
C:\Users\haowp\AppData\Local\Temp\{81472915-7FA4-430D-8ACB-BFB8F401620C} PAGE  122

    6390                      .dwattr $C$DW$849, DW_AT_accessibility(DW_ACCESS_public)
    6391              
    6392              $C$DW$850       .dwtag  DW_TAG_member
    6393                      .dwattr $C$DW$850, DW_AT_type(*$C$DW$T$113)
    6394                      .dwattr $C$DW$850, DW_AT_name("GAIN_CS2")
    6395                      .dwattr $C$DW$850, DW_AT_TI_symbol_name("_GAIN_CS2")
    6396                      .dwattr $C$DW$850, DW_AT_data_member_location[DW_OP_plus_uconst 0x1]
    6397                      .dwattr $C$DW$850, DW_AT_accessibility(DW_ACCESS_public)
    6398              
    6399              $C$DW$851       .dwtag  DW_TAG_member
    6400                      .dwattr $C$DW$851, DW_AT_type(*$C$DW$T$115)
    6401                      .dwattr $C$DW$851, DW_AT_name("GAIN_CS3")
    6402                      .dwattr $C$DW$851, DW_AT_TI_symbol_name("_GAIN_CS3")
    6403                      .dwattr $C$DW$851, DW_AT_data_member_location[DW_OP_plus_uconst 0x2]
    6404                      .dwattr $C$DW$851, DW_AT_accessibility(DW_ACCESS_public)
    6405              
    6406              $C$DW$852       .dwtag  DW_TAG_member
    6407                      .dwattr $C$DW$852, DW_AT_type(*$C$DW$T$117)
    6408                      .dwattr $C$DW$852, DW_AT_name("CS_BLANK")
    6409                      .dwattr $C$DW$852, DW_AT_TI_symbol_name("_CS_BLANK")
    6410                      .dwattr $C$DW$852, DW_AT_data_member_location[DW_OP_plus_uconst 0x3]
    6411                      .dwattr $C$DW$852, DW_AT_accessibility(DW_ACCESS_public)
    6412              
    6413              $C$DW$853       .dwtag  DW_TAG_member
    6414                      .dwattr $C$DW$853, DW_AT_type(*$C$DW$T$69)
    6415                      .dwattr $C$DW$853, DW_AT_name("DC_CAL_CH1")
    6416                      .dwattr $C$DW$853, DW_AT_TI_symbol_name("_DC_CAL_CH1")
    6417                      .dwattr $C$DW$853, DW_AT_data_member_location[DW_OP_plus_uconst 0x4]
    6418                      .dwattr $C$DW$853, DW_AT_accessibility(DW_ACCESS_public)
    6419              
    6420              $C$DW$854       .dwtag  DW_TAG_member
    6421                      .dwattr $C$DW$854, DW_AT_type(*$C$DW$T$69)
    6422                      .dwattr $C$DW$854, DW_AT_name("DC_CAL_CH2")
    6423                      .dwattr $C$DW$854, DW_AT_TI_symbol_name("_DC_CAL_CH2")
    6424                      .dwattr $C$DW$854, DW_AT_data_member_location[DW_OP_plus_uconst 0x5]
    6425                      .dwattr $C$DW$854, DW_AT_accessibility(DW_ACCESS_public)
    6426              
    6427              $C$DW$855       .dwtag  DW_TAG_member
    6428                      .dwattr $C$DW$855, DW_AT_type(*$C$DW$T$69)
    6429                      .dwattr $C$DW$855, DW_AT_name("DC_CAL_CH3")
    6430                      .dwattr $C$DW$855, DW_AT_TI_symbol_name("_DC_CAL_CH3")
    6431                      .dwattr $C$DW$855, DW_AT_data_member_location[DW_OP_plus_uconst 0x6]
    6432                      .dwattr $C$DW$855, DW_AT_accessibility(DW_ACCESS_public)
    6433              
    6434                      .dwendtag $C$DW$T$118
    6435              
    6436              $C$DW$T$144     .dwtag  DW_TAG_typedef
    6437                      .dwattr $C$DW$T$144, DW_AT_name("DRV_SPI_8305_Ctrl0A_t_")
    6438                      .dwattr $C$DW$T$144, DW_AT_type(*$C$DW$T$118)
    6439                      .dwattr $C$DW$T$144, DW_AT_language(DW_LANG_C)
    6440              
    6441              
    6442              $C$DW$T$125     .dwtag  DW_TAG_structure_type
    6443                      .dwattr $C$DW$T$125, DW_AT_name("_DRV_SPI_8305_Ctrl0B_t_")
    6444                      .dwattr $C$DW$T$125, DW_AT_byte_size(0x08)
TMS320C2000 Assembler PC v18.1.2 Sun Jun 17 14:52:32 2018

Tools Copyright (c) 1996-2017 Texas Instruments Incorporated
C:\Users\haowp\AppData\Local\Temp\{81472915-7FA4-430D-8ACB-BFB8F401620C} PAGE  123

    6445              $C$DW$856       .dwtag  DW_TAG_member
    6446                      .dwattr $C$DW$856, DW_AT_type(*$C$DW$T$120)
    6447                      .dwattr $C$DW$856, DW_AT_name("VREG_UV_LEVEL")
    6448                      .dwattr $C$DW$856, DW_AT_TI_symbol_name("_VREG_UV_LEVEL")
    6449                      .dwattr $C$DW$856, DW_AT_data_member_location[DW_OP_plus_uconst 0x0]
    6450                      .dwattr $C$DW$856, DW_AT_accessibility(DW_ACCESS_public)
    6451              
    6452              $C$DW$857       .dwtag  DW_TAG_member
    6453                      .dwattr $C$DW$857, DW_AT_type(*$C$DW$T$69)
    6454                      .dwattr $C$DW$857, DW_AT_name("DIS_PWRGD")
    6455                      .dwattr $C$DW$857, DW_AT_TI_symbol_name("_DIS_PWRGD")
    6456                      .dwattr $C$DW$857, DW_AT_data_member_location[DW_OP_plus_uconst 0x1]
    6457                      .dwattr $C$DW$857, DW_AT_accessibility(DW_ACCESS_public)
    6458              
    6459              $C$DW$858       .dwtag  DW_TAG_member
    6460                      .dwattr $C$DW$858, DW_AT_type(*$C$DW$T$122)
    6461                      .dwattr $C$DW$858, DW_AT_name("SLP_DLY")
    6462                      .dwattr $C$DW$858, DW_AT_TI_symbol_name("_SLP_DLY")
    6463                      .dwattr $C$DW$858, DW_AT_data_member_location[DW_OP_plus_uconst 0x2]
    6464                      .dwattr $C$DW$858, DW_AT_accessibility(DW_ACCESS_public)
    6465              
    6466              $C$DW$859       .dwtag  DW_TAG_member
    6467                      .dwattr $C$DW$859, DW_AT_type(*$C$DW$T$69)
    6468                      .dwattr $C$DW$859, DW_AT_name("CTRL0B_RSV1")
    6469                      .dwattr $C$DW$859, DW_AT_TI_symbol_name("_CTRL0B_RSV1")
    6470                      .dwattr $C$DW$859, DW_AT_data_member_location[DW_OP_plus_uconst 0x3]
    6471                      .dwattr $C$DW$859, DW_AT_accessibility(DW_ACCESS_public)
    6472              
    6473              $C$DW$860       .dwtag  DW_TAG_member
    6474                      .dwattr $C$DW$860, DW_AT_type(*$C$DW$T$69)
    6475                      .dwattr $C$DW$860, DW_AT_name("CTRL0B_RSV2")
    6476                      .dwattr $C$DW$860, DW_AT_TI_symbol_name("_CTRL0B_RSV2")
    6477                      .dwattr $C$DW$860, DW_AT_data_member_location[DW_OP_plus_uconst 0x4]
    6478                      .dwattr $C$DW$860, DW_AT_accessibility(DW_ACCESS_public)
    6479              
    6480              $C$DW$861       .dwtag  DW_TAG_member
    6481                      .dwattr $C$DW$861, DW_AT_type(*$C$DW$T$69)
    6482                      .dwattr $C$DW$861, DW_AT_name("CTRL0B_RSV3")
    6483                      .dwattr $C$DW$861, DW_AT_TI_symbol_name("_CTRL0B_RSV3")
    6484                      .dwattr $C$DW$861, DW_AT_data_member_location[DW_OP_plus_uconst 0x5]
    6485                      .dwattr $C$DW$861, DW_AT_accessibility(DW_ACCESS_public)
    6486              
    6487              $C$DW$862       .dwtag  DW_TAG_member
    6488                      .dwattr $C$DW$862, DW_AT_type(*$C$DW$T$124)
    6489                      .dwattr $C$DW$862, DW_AT_name("VREF_SCALING")
    6490                      .dwattr $C$DW$862, DW_AT_TI_symbol_name("_VREF_SCALING")
    6491                      .dwattr $C$DW$862, DW_AT_data_member_location[DW_OP_plus_uconst 0x6]
    6492                      .dwattr $C$DW$862, DW_AT_accessibility(DW_ACCESS_public)
    6493              
    6494              $C$DW$863       .dwtag  DW_TAG_member
    6495                      .dwattr $C$DW$863, DW_AT_type(*$C$DW$T$69)
    6496                      .dwattr $C$DW$863, DW_AT_name("CTRL0B_RSV4")
    6497                      .dwattr $C$DW$863, DW_AT_TI_symbol_name("_CTRL0B_RSV4")
    6498                      .dwattr $C$DW$863, DW_AT_data_member_location[DW_OP_plus_uconst 0x7]
    6499                      .dwattr $C$DW$863, DW_AT_accessibility(DW_ACCESS_public)
TMS320C2000 Assembler PC v18.1.2 Sun Jun 17 14:52:32 2018

Tools Copyright (c) 1996-2017 Texas Instruments Incorporated
C:\Users\haowp\AppData\Local\Temp\{81472915-7FA4-430D-8ACB-BFB8F401620C} PAGE  124

    6500              
    6501                      .dwendtag $C$DW$T$125
    6502              
    6503              $C$DW$T$145     .dwtag  DW_TAG_typedef
    6504                      .dwattr $C$DW$T$145, DW_AT_name("DRV_SPI_8305_Ctrl0B_t_")
    6505                      .dwattr $C$DW$T$145, DW_AT_type(*$C$DW$T$125)
    6506                      .dwattr $C$DW$T$145, DW_AT_language(DW_LANG_C)
    6507              
    6508              
    6509              $C$DW$T$130     .dwtag  DW_TAG_structure_type
    6510                      .dwattr $C$DW$T$130, DW_AT_name("_DRV_SPI_8305_Ctrl0C_t_")
    6511                      .dwattr $C$DW$T$130, DW_AT_byte_size(0x05)
    6512              $C$DW$864       .dwtag  DW_TAG_member
    6513                      .dwattr $C$DW$864, DW_AT_type(*$C$DW$T$127)
    6514                      .dwattr $C$DW$864, DW_AT_name("VDS_MODE")
    6515                      .dwattr $C$DW$864, DW_AT_TI_symbol_name("_VDS_MODE")
    6516                      .dwattr $C$DW$864, DW_AT_data_member_location[DW_OP_plus_uconst 0x0]
    6517                      .dwattr $C$DW$864, DW_AT_accessibility(DW_ACCESS_public)
    6518              
    6519              $C$DW$865       .dwtag  DW_TAG_member
    6520                      .dwattr $C$DW$865, DW_AT_type(*$C$DW$T$129)
    6521                      .dwattr $C$DW$865, DW_AT_name("VDS_LEVEL")
    6522                      .dwattr $C$DW$865, DW_AT_TI_symbol_name("_VDS_LEVEL")
    6523                      .dwattr $C$DW$865, DW_AT_data_member_location[DW_OP_plus_uconst 0x1]
    6524                      .dwattr $C$DW$865, DW_AT_accessibility(DW_ACCESS_public)
    6525              
    6526              $C$DW$866       .dwtag  DW_TAG_member
    6527                      .dwattr $C$DW$866, DW_AT_type(*$C$DW$T$69)
    6528                      .dwattr $C$DW$866, DW_AT_name("CTRL0C_RSV1")
    6529                      .dwattr $C$DW$866, DW_AT_TI_symbol_name("_CTRL0C_RSV1")
    6530                      .dwattr $C$DW$866, DW_AT_data_member_location[DW_OP_plus_uconst 0x2]
    6531                      .dwattr $C$DW$866, DW_AT_accessibility(DW_ACCESS_public)
    6532              
    6533              $C$DW$867       .dwtag  DW_TAG_member
    6534                      .dwattr $C$DW$867, DW_AT_type(*$C$DW$T$69)
    6535                      .dwattr $C$DW$867, DW_AT_name("CTRL0C_RSV2")
    6536                      .dwattr $C$DW$867, DW_AT_TI_symbol_name("_CTRL0C_RSV2")
    6537                      .dwattr $C$DW$867, DW_AT_data_member_location[DW_OP_plus_uconst 0x3]
    6538                      .dwattr $C$DW$867, DW_AT_accessibility(DW_ACCESS_public)
    6539              
    6540              $C$DW$868       .dwtag  DW_TAG_member
    6541                      .dwattr $C$DW$868, DW_AT_type(*$C$DW$T$69)
    6542                      .dwattr $C$DW$868, DW_AT_name("CTRL0C_RSV3")
    6543                      .dwattr $C$DW$868, DW_AT_TI_symbol_name("_CTRL0C_RSV3")
    6544                      .dwattr $C$DW$868, DW_AT_data_member_location[DW_OP_plus_uconst 0x4]
    6545                      .dwattr $C$DW$868, DW_AT_accessibility(DW_ACCESS_public)
    6546              
    6547                      .dwendtag $C$DW$T$130
    6548              
    6549              $C$DW$T$146     .dwtag  DW_TAG_typedef
    6550                      .dwattr $C$DW$T$146, DW_AT_name("DRV_SPI_8305_Ctrl0C_t_")
    6551                      .dwattr $C$DW$T$146, DW_AT_type(*$C$DW$T$130)
    6552                      .dwattr $C$DW$T$146, DW_AT_language(DW_LANG_C)
    6553              
    6554              
TMS320C2000 Assembler PC v18.1.2 Sun Jun 17 14:52:32 2018

Tools Copyright (c) 1996-2017 Texas Instruments Incorporated
C:\Users\haowp\AppData\Local\Temp\{81472915-7FA4-430D-8ACB-BFB8F401620C} PAGE  125

    6555              $C$DW$T$131     .dwtag  DW_TAG_structure_type
    6556                      .dwattr $C$DW$T$131, DW_AT_name("_DRV_SPI_8305_Stat01_t_")
    6557                      .dwattr $C$DW$T$131, DW_AT_byte_size(0x0b)
    6558              $C$DW$869       .dwtag  DW_TAG_member
    6559                      .dwattr $C$DW$869, DW_AT_type(*$C$DW$T$69)
    6560                      .dwattr $C$DW$869, DW_AT_name("OTW")
    6561                      .dwattr $C$DW$869, DW_AT_TI_symbol_name("_OTW")
    6562                      .dwattr $C$DW$869, DW_AT_data_member_location[DW_OP_plus_uconst 0x0]
    6563                      .dwattr $C$DW$869, DW_AT_accessibility(DW_ACCESS_public)
    6564              
    6565              $C$DW$870       .dwtag  DW_TAG_member
    6566                      .dwattr $C$DW$870, DW_AT_type(*$C$DW$T$69)
    6567                      .dwattr $C$DW$870, DW_AT_name("TEMP_FLAG3")
    6568                      .dwattr $C$DW$870, DW_AT_TI_symbol_name("_TEMP_FLAG3")
    6569                      .dwattr $C$DW$870, DW_AT_data_member_location[DW_OP_plus_uconst 0x1]
    6570                      .dwattr $C$DW$870, DW_AT_accessibility(DW_ACCESS_public)
    6571              
    6572              $C$DW$871       .dwtag  DW_TAG_member
    6573                      .dwattr $C$DW$871, DW_AT_type(*$C$DW$T$69)
    6574                      .dwattr $C$DW$871, DW_AT_name("TEMP_FLAG2")
    6575                      .dwattr $C$DW$871, DW_AT_TI_symbol_name("_TEMP_FLAG2")
    6576                      .dwattr $C$DW$871, DW_AT_data_member_location[DW_OP_plus_uconst 0x2]
    6577                      .dwattr $C$DW$871, DW_AT_accessibility(DW_ACCESS_public)
    6578              
    6579              $C$DW$872       .dwtag  DW_TAG_member
    6580                      .dwattr $C$DW$872, DW_AT_type(*$C$DW$T$69)
    6581                      .dwattr $C$DW$872, DW_AT_name("TEMP_FLAG1")
    6582                      .dwattr $C$DW$872, DW_AT_TI_symbol_name("_TEMP_FLAG1")
    6583                      .dwattr $C$DW$872, DW_AT_data_member_location[DW_OP_plus_uconst 0x3]
    6584                      .dwattr $C$DW$872, DW_AT_accessibility(DW_ACCESS_public)
    6585              
    6586              $C$DW$873       .dwtag  DW_TAG_member
    6587                      .dwattr $C$DW$873, DW_AT_type(*$C$DW$T$69)
    6588                      .dwattr $C$DW$873, DW_AT_name("VCPH_UVFL")
    6589                      .dwattr $C$DW$873, DW_AT_TI_symbol_name("_VCPH_UVFL")
    6590                      .dwattr $C$DW$873, DW_AT_data_member_location[DW_OP_plus_uconst 0x4]
    6591                      .dwattr $C$DW$873, DW_AT_accessibility(DW_ACCESS_public)
    6592              
    6593              $C$DW$874       .dwtag  DW_TAG_member
    6594                      .dwattr $C$DW$874, DW_AT_type(*$C$DW$T$69)
    6595                      .dwattr $C$DW$874, DW_AT_name("VDS_STATUS")
    6596                      .dwattr $C$DW$874, DW_AT_TI_symbol_name("_VDS_STATUS")
    6597                      .dwattr $C$DW$874, DW_AT_data_member_location[DW_OP_plus_uconst 0x5]
    6598                      .dwattr $C$DW$874, DW_AT_accessibility(DW_ACCESS_public)
    6599              
    6600              $C$DW$875       .dwtag  DW_TAG_member
    6601                      .dwattr $C$DW$875, DW_AT_type(*$C$DW$T$69)
    6602                      .dwattr $C$DW$875, DW_AT_name("PVDD_OVFL")
    6603                      .dwattr $C$DW$875, DW_AT_TI_symbol_name("_PVDD_OVFL")
    6604                      .dwattr $C$DW$875, DW_AT_data_member_location[DW_OP_plus_uconst 0x6]
    6605                      .dwattr $C$DW$875, DW_AT_accessibility(DW_ACCESS_public)
    6606              
    6607              $C$DW$876       .dwtag  DW_TAG_member
    6608                      .dwattr $C$DW$876, DW_AT_type(*$C$DW$T$69)
    6609                      .dwattr $C$DW$876, DW_AT_name("PVDD_UVFL")
TMS320C2000 Assembler PC v18.1.2 Sun Jun 17 14:52:32 2018

Tools Copyright (c) 1996-2017 Texas Instruments Incorporated
C:\Users\haowp\AppData\Local\Temp\{81472915-7FA4-430D-8ACB-BFB8F401620C} PAGE  126

    6610                      .dwattr $C$DW$876, DW_AT_TI_symbol_name("_PVDD_UVFL")
    6611                      .dwattr $C$DW$876, DW_AT_data_member_location[DW_OP_plus_uconst 0x7]
    6612                      .dwattr $C$DW$876, DW_AT_accessibility(DW_ACCESS_public)
    6613              
    6614              $C$DW$877       .dwtag  DW_TAG_member
    6615                      .dwattr $C$DW$877, DW_AT_type(*$C$DW$T$69)
    6616                      .dwattr $C$DW$877, DW_AT_name("TEMP_FLAG4")
    6617                      .dwattr $C$DW$877, DW_AT_TI_symbol_name("_TEMP_FLAG4")
    6618                      .dwattr $C$DW$877, DW_AT_data_member_location[DW_OP_plus_uconst 0x8]
    6619                      .dwattr $C$DW$877, DW_AT_accessibility(DW_ACCESS_public)
    6620              
    6621              $C$DW$878       .dwtag  DW_TAG_member
    6622                      .dwattr $C$DW$878, DW_AT_type(*$C$DW$T$69)
    6623                      .dwattr $C$DW$878, DW_AT_name("STAT01_RSV1")
    6624                      .dwattr $C$DW$878, DW_AT_TI_symbol_name("_STAT01_RSV1")
    6625                      .dwattr $C$DW$878, DW_AT_data_member_location[DW_OP_plus_uconst 0x9]
    6626                      .dwattr $C$DW$878, DW_AT_accessibility(DW_ACCESS_public)
    6627              
    6628              $C$DW$879       .dwtag  DW_TAG_member
    6629                      .dwattr $C$DW$879, DW_AT_type(*$C$DW$T$69)
    6630                      .dwattr $C$DW$879, DW_AT_name("FAULT")
    6631                      .dwattr $C$DW$879, DW_AT_TI_symbol_name("_FAULT")
    6632                      .dwattr $C$DW$879, DW_AT_data_member_location[DW_OP_plus_uconst 0xa]
    6633                      .dwattr $C$DW$879, DW_AT_accessibility(DW_ACCESS_public)
    6634              
    6635                      .dwendtag $C$DW$T$131
    6636              
    6637              $C$DW$T$135     .dwtag  DW_TAG_typedef
    6638                      .dwattr $C$DW$T$135, DW_AT_name("DRV_SPI_8305_Stat01_t_")
    6639                      .dwattr $C$DW$T$135, DW_AT_type(*$C$DW$T$131)
    6640                      .dwattr $C$DW$T$135, DW_AT_language(DW_LANG_C)
    6641              
    6642              
    6643              $C$DW$T$132     .dwtag  DW_TAG_structure_type
    6644                      .dwattr $C$DW$T$132, DW_AT_name("_DRV_SPI_8305_Stat02_t_")
    6645                      .dwattr $C$DW$T$132, DW_AT_byte_size(0x0b)
    6646              $C$DW$880       .dwtag  DW_TAG_member
    6647                      .dwattr $C$DW$880, DW_AT_type(*$C$DW$T$69)
    6648                      .dwattr $C$DW$880, DW_AT_name("SNS_A_OCP")
    6649                      .dwattr $C$DW$880, DW_AT_TI_symbol_name("_SNS_A_OCP")
    6650                      .dwattr $C$DW$880, DW_AT_data_member_location[DW_OP_plus_uconst 0x0]
    6651                      .dwattr $C$DW$880, DW_AT_accessibility(DW_ACCESS_public)
    6652              
    6653              $C$DW$881       .dwtag  DW_TAG_member
    6654                      .dwattr $C$DW$881, DW_AT_type(*$C$DW$T$69)
    6655                      .dwattr $C$DW$881, DW_AT_name("SNS_B_OCP")
    6656                      .dwattr $C$DW$881, DW_AT_TI_symbol_name("_SNS_B_OCP")
    6657                      .dwattr $C$DW$881, DW_AT_data_member_location[DW_OP_plus_uconst 0x1]
    6658                      .dwattr $C$DW$881, DW_AT_accessibility(DW_ACCESS_public)
    6659              
    6660              $C$DW$882       .dwtag  DW_TAG_member
    6661                      .dwattr $C$DW$882, DW_AT_type(*$C$DW$T$69)
    6662                      .dwattr $C$DW$882, DW_AT_name("SNS_C_OCP")
    6663                      .dwattr $C$DW$882, DW_AT_TI_symbol_name("_SNS_C_OCP")
    6664                      .dwattr $C$DW$882, DW_AT_data_member_location[DW_OP_plus_uconst 0x2]
TMS320C2000 Assembler PC v18.1.2 Sun Jun 17 14:52:32 2018

Tools Copyright (c) 1996-2017 Texas Instruments Incorporated
C:\Users\haowp\AppData\Local\Temp\{81472915-7FA4-430D-8ACB-BFB8F401620C} PAGE  127

    6665                      .dwattr $C$DW$882, DW_AT_accessibility(DW_ACCESS_public)
    6666              
    6667              $C$DW$883       .dwtag  DW_TAG_member
    6668                      .dwattr $C$DW$883, DW_AT_type(*$C$DW$T$69)
    6669                      .dwattr $C$DW$883, DW_AT_name("STAT02_RSV2")
    6670                      .dwattr $C$DW$883, DW_AT_TI_symbol_name("_STAT02_RSV2")
    6671                      .dwattr $C$DW$883, DW_AT_data_member_location[DW_OP_plus_uconst 0x3]
    6672                      .dwattr $C$DW$883, DW_AT_accessibility(DW_ACCESS_public)
    6673              
    6674              $C$DW$884       .dwtag  DW_TAG_member
    6675                      .dwattr $C$DW$884, DW_AT_type(*$C$DW$T$69)
    6676                      .dwattr $C$DW$884, DW_AT_name("STAT02_RSV1")
    6677                      .dwattr $C$DW$884, DW_AT_TI_symbol_name("_STAT02_RSV1")
    6678                      .dwattr $C$DW$884, DW_AT_data_member_location[DW_OP_plus_uconst 0x4]
    6679                      .dwattr $C$DW$884, DW_AT_accessibility(DW_ACCESS_public)
    6680              
    6681              $C$DW$885       .dwtag  DW_TAG_member
    6682                      .dwattr $C$DW$885, DW_AT_type(*$C$DW$T$69)
    6683                      .dwattr $C$DW$885, DW_AT_name("FETLC_VDS")
    6684                      .dwattr $C$DW$885, DW_AT_TI_symbol_name("_FETLC_VDS")
    6685                      .dwattr $C$DW$885, DW_AT_data_member_location[DW_OP_plus_uconst 0x5]
    6686                      .dwattr $C$DW$885, DW_AT_accessibility(DW_ACCESS_public)
    6687              
    6688              $C$DW$886       .dwtag  DW_TAG_member
    6689                      .dwattr $C$DW$886, DW_AT_type(*$C$DW$T$69)
    6690                      .dwattr $C$DW$886, DW_AT_name("FETHC_VDS")
    6691                      .dwattr $C$DW$886, DW_AT_TI_symbol_name("_FETHC_VDS")
    6692                      .dwattr $C$DW$886, DW_AT_data_member_location[DW_OP_plus_uconst 0x6]
    6693                      .dwattr $C$DW$886, DW_AT_accessibility(DW_ACCESS_public)
    6694              
    6695              $C$DW$887       .dwtag  DW_TAG_member
    6696                      .dwattr $C$DW$887, DW_AT_type(*$C$DW$T$69)
    6697                      .dwattr $C$DW$887, DW_AT_name("FETLB_VDS")
    6698                      .dwattr $C$DW$887, DW_AT_TI_symbol_name("_FETLB_VDS")
    6699                      .dwattr $C$DW$887, DW_AT_data_member_location[DW_OP_plus_uconst 0x7]
    6700                      .dwattr $C$DW$887, DW_AT_accessibility(DW_ACCESS_public)
    6701              
    6702              $C$DW$888       .dwtag  DW_TAG_member
    6703                      .dwattr $C$DW$888, DW_AT_type(*$C$DW$T$69)
    6704                      .dwattr $C$DW$888, DW_AT_name("FETHB_VDS")
    6705                      .dwattr $C$DW$888, DW_AT_TI_symbol_name("_FETHB_VDS")
    6706                      .dwattr $C$DW$888, DW_AT_data_member_location[DW_OP_plus_uconst 0x8]
    6707                      .dwattr $C$DW$888, DW_AT_accessibility(DW_ACCESS_public)
    6708              
    6709              $C$DW$889       .dwtag  DW_TAG_member
    6710                      .dwattr $C$DW$889, DW_AT_type(*$C$DW$T$69)
    6711                      .dwattr $C$DW$889, DW_AT_name("FETLA_VDS")
    6712                      .dwattr $C$DW$889, DW_AT_TI_symbol_name("_FETLA_VDS")
    6713                      .dwattr $C$DW$889, DW_AT_data_member_location[DW_OP_plus_uconst 0x9]
    6714                      .dwattr $C$DW$889, DW_AT_accessibility(DW_ACCESS_public)
    6715              
    6716              $C$DW$890       .dwtag  DW_TAG_member
    6717                      .dwattr $C$DW$890, DW_AT_type(*$C$DW$T$69)
    6718                      .dwattr $C$DW$890, DW_AT_name("FETHA_VDS")
    6719                      .dwattr $C$DW$890, DW_AT_TI_symbol_name("_FETHA_VDS")
TMS320C2000 Assembler PC v18.1.2 Sun Jun 17 14:52:32 2018

Tools Copyright (c) 1996-2017 Texas Instruments Incorporated
C:\Users\haowp\AppData\Local\Temp\{81472915-7FA4-430D-8ACB-BFB8F401620C} PAGE  128

    6720                      .dwattr $C$DW$890, DW_AT_data_member_location[DW_OP_plus_uconst 0xa]
    6721                      .dwattr $C$DW$890, DW_AT_accessibility(DW_ACCESS_public)
    6722              
    6723                      .dwendtag $C$DW$T$132
    6724              
    6725              $C$DW$T$136     .dwtag  DW_TAG_typedef
    6726                      .dwattr $C$DW$T$136, DW_AT_name("DRV_SPI_8305_Stat02_t_")
    6727                      .dwattr $C$DW$T$136, DW_AT_type(*$C$DW$T$132)
    6728                      .dwattr $C$DW$T$136, DW_AT_language(DW_LANG_C)
    6729              
    6730              
    6731              $C$DW$T$133     .dwtag  DW_TAG_structure_type
    6732                      .dwattr $C$DW$T$133, DW_AT_name("_DRV_SPI_8305_Stat03_t_")
    6733                      .dwattr $C$DW$T$133, DW_AT_byte_size(0x0b)
    6734              $C$DW$891       .dwtag  DW_TAG_member
    6735                      .dwattr $C$DW$891, DW_AT_type(*$C$DW$T$69)
    6736                      .dwattr $C$DW$891, DW_AT_name("VCPH_OVLO_ABS")
    6737                      .dwattr $C$DW$891, DW_AT_TI_symbol_name("_VCPH_OVLO_ABS")
    6738                      .dwattr $C$DW$891, DW_AT_data_member_location[DW_OP_plus_uconst 0x0]
    6739                      .dwattr $C$DW$891, DW_AT_accessibility(DW_ACCESS_public)
    6740              
    6741              $C$DW$892       .dwtag  DW_TAG_member
    6742                      .dwattr $C$DW$892, DW_AT_type(*$C$DW$T$69)
    6743                      .dwattr $C$DW$892, DW_AT_name("VCPH_OVLO")
    6744                      .dwattr $C$DW$892, DW_AT_TI_symbol_name("_VCPH_OVLO")
    6745                      .dwattr $C$DW$892, DW_AT_data_member_location[DW_OP_plus_uconst 0x1]
    6746                      .dwattr $C$DW$892, DW_AT_accessibility(DW_ACCESS_public)
    6747              
    6748              $C$DW$893       .dwtag  DW_TAG_member
    6749                      .dwattr $C$DW$893, DW_AT_type(*$C$DW$T$69)
    6750                      .dwattr $C$DW$893, DW_AT_name("VCPH_UVLO2")
    6751                      .dwattr $C$DW$893, DW_AT_TI_symbol_name("_VCPH_UVLO2")
    6752                      .dwattr $C$DW$893, DW_AT_data_member_location[DW_OP_plus_uconst 0x2]
    6753                      .dwattr $C$DW$893, DW_AT_accessibility(DW_ACCESS_public)
    6754              
    6755              $C$DW$894       .dwtag  DW_TAG_member
    6756                      .dwattr $C$DW$894, DW_AT_type(*$C$DW$T$69)
    6757                      .dwattr $C$DW$894, DW_AT_name("STAT03_RSV2")
    6758                      .dwattr $C$DW$894, DW_AT_TI_symbol_name("_STAT03_RSV2")
    6759                      .dwattr $C$DW$894, DW_AT_data_member_location[DW_OP_plus_uconst 0x3]
    6760                      .dwattr $C$DW$894, DW_AT_accessibility(DW_ACCESS_public)
    6761              
    6762              $C$DW$895       .dwtag  DW_TAG_member
    6763                      .dwattr $C$DW$895, DW_AT_type(*$C$DW$T$69)
    6764                      .dwattr $C$DW$895, DW_AT_name("VCP_LSD_UVLO2")
    6765                      .dwattr $C$DW$895, DW_AT_TI_symbol_name("_VCP_LSD_UVLO2")
    6766                      .dwattr $C$DW$895, DW_AT_data_member_location[DW_OP_plus_uconst 0x4]
    6767                      .dwattr $C$DW$895, DW_AT_accessibility(DW_ACCESS_public)
    6768              
    6769              $C$DW$896       .dwtag  DW_TAG_member
    6770                      .dwattr $C$DW$896, DW_AT_type(*$C$DW$T$69)
    6771                      .dwattr $C$DW$896, DW_AT_name("AVDD_UVLO")
    6772                      .dwattr $C$DW$896, DW_AT_TI_symbol_name("_AVDD_UVLO")
    6773                      .dwattr $C$DW$896, DW_AT_data_member_location[DW_OP_plus_uconst 0x5]
    6774                      .dwattr $C$DW$896, DW_AT_accessibility(DW_ACCESS_public)
TMS320C2000 Assembler PC v18.1.2 Sun Jun 17 14:52:32 2018

Tools Copyright (c) 1996-2017 Texas Instruments Incorporated
C:\Users\haowp\AppData\Local\Temp\{81472915-7FA4-430D-8ACB-BFB8F401620C} PAGE  129

    6775              
    6776              $C$DW$897       .dwtag  DW_TAG_member
    6777                      .dwattr $C$DW$897, DW_AT_type(*$C$DW$T$69)
    6778                      .dwattr $C$DW$897, DW_AT_name("VREG_UV")
    6779                      .dwattr $C$DW$897, DW_AT_TI_symbol_name("_VREG_UV")
    6780                      .dwattr $C$DW$897, DW_AT_data_member_location[DW_OP_plus_uconst 0x6]
    6781                      .dwattr $C$DW$897, DW_AT_accessibility(DW_ACCESS_public)
    6782              
    6783              $C$DW$898       .dwtag  DW_TAG_member
    6784                      .dwattr $C$DW$898, DW_AT_type(*$C$DW$T$69)
    6785                      .dwattr $C$DW$898, DW_AT_name("STAT03_RSV1")
    6786                      .dwattr $C$DW$898, DW_AT_TI_symbol_name("_STAT03_RSV1")
    6787                      .dwattr $C$DW$898, DW_AT_data_member_location[DW_OP_plus_uconst 0x7]
    6788                      .dwattr $C$DW$898, DW_AT_accessibility(DW_ACCESS_public)
    6789              
    6790              $C$DW$899       .dwtag  DW_TAG_member
    6791                      .dwattr $C$DW$899, DW_AT_type(*$C$DW$T$69)
    6792                      .dwattr $C$DW$899, DW_AT_name("OTS")
    6793                      .dwattr $C$DW$899, DW_AT_TI_symbol_name("_OTS")
    6794                      .dwattr $C$DW$899, DW_AT_data_member_location[DW_OP_plus_uconst 0x8]
    6795                      .dwattr $C$DW$899, DW_AT_accessibility(DW_ACCESS_public)
    6796              
    6797              $C$DW$900       .dwtag  DW_TAG_member
    6798                      .dwattr $C$DW$900, DW_AT_type(*$C$DW$T$69)
    6799                      .dwattr $C$DW$900, DW_AT_name("WD_FAULT")
    6800                      .dwattr $C$DW$900, DW_AT_TI_symbol_name("_WD_FAULT")
    6801                      .dwattr $C$DW$900, DW_AT_data_member_location[DW_OP_plus_uconst 0x9]
    6802                      .dwattr $C$DW$900, DW_AT_accessibility(DW_ACCESS_public)
    6803              
    6804              $C$DW$901       .dwtag  DW_TAG_member
    6805                      .dwattr $C$DW$901, DW_AT_type(*$C$DW$T$69)
    6806                      .dwattr $C$DW$901, DW_AT_name("PVDD_UVLO2")
    6807                      .dwattr $C$DW$901, DW_AT_TI_symbol_name("_PVDD_UVLO2")
    6808                      .dwattr $C$DW$901, DW_AT_data_member_location[DW_OP_plus_uconst 0xa]
    6809                      .dwattr $C$DW$901, DW_AT_accessibility(DW_ACCESS_public)
    6810              
    6811                      .dwendtag $C$DW$T$133
    6812              
    6813              $C$DW$T$137     .dwtag  DW_TAG_typedef
    6814                      .dwattr $C$DW$T$137, DW_AT_name("DRV_SPI_8305_Stat03_t_")
    6815                      .dwattr $C$DW$T$137, DW_AT_type(*$C$DW$T$133)
    6816                      .dwattr $C$DW$T$137, DW_AT_language(DW_LANG_C)
    6817              
    6818              
    6819              $C$DW$T$134     .dwtag  DW_TAG_structure_type
    6820                      .dwattr $C$DW$T$134, DW_AT_name("_DRV_SPI_8305_Stat04_t_")
    6821                      .dwattr $C$DW$T$134, DW_AT_byte_size(0x0b)
    6822              $C$DW$902       .dwtag  DW_TAG_member
    6823                      .dwattr $C$DW$902, DW_AT_type(*$C$DW$T$69)
    6824                      .dwattr $C$DW$902, DW_AT_name("STAT04_RSV5")
    6825                      .dwattr $C$DW$902, DW_AT_TI_symbol_name("_STAT04_RSV5")
    6826                      .dwattr $C$DW$902, DW_AT_data_member_location[DW_OP_plus_uconst 0x0]
    6827                      .dwattr $C$DW$902, DW_AT_accessibility(DW_ACCESS_public)
    6828              
    6829              $C$DW$903       .dwtag  DW_TAG_member
TMS320C2000 Assembler PC v18.1.2 Sun Jun 17 14:52:32 2018

Tools Copyright (c) 1996-2017 Texas Instruments Incorporated
C:\Users\haowp\AppData\Local\Temp\{81472915-7FA4-430D-8ACB-BFB8F401620C} PAGE  130

    6830                      .dwattr $C$DW$903, DW_AT_type(*$C$DW$T$69)
    6831                      .dwattr $C$DW$903, DW_AT_name("STAT04_RSV4")
    6832                      .dwattr $C$DW$903, DW_AT_TI_symbol_name("_STAT04_RSV4")
    6833                      .dwattr $C$DW$903, DW_AT_data_member_location[DW_OP_plus_uconst 0x1]
    6834                      .dwattr $C$DW$903, DW_AT_accessibility(DW_ACCESS_public)
    6835              
    6836              $C$DW$904       .dwtag  DW_TAG_member
    6837                      .dwattr $C$DW$904, DW_AT_type(*$C$DW$T$69)
    6838                      .dwattr $C$DW$904, DW_AT_name("STAT04_RSV3")
    6839                      .dwattr $C$DW$904, DW_AT_TI_symbol_name("_STAT04_RSV3")
    6840                      .dwattr $C$DW$904, DW_AT_data_member_location[DW_OP_plus_uconst 0x2]
    6841                      .dwattr $C$DW$904, DW_AT_accessibility(DW_ACCESS_public)
    6842              
    6843              $C$DW$905       .dwtag  DW_TAG_member
    6844                      .dwattr $C$DW$905, DW_AT_type(*$C$DW$T$69)
    6845                      .dwattr $C$DW$905, DW_AT_name("STAT04_RSV2")
    6846                      .dwattr $C$DW$905, DW_AT_TI_symbol_name("_STAT04_RSV2")
    6847                      .dwattr $C$DW$905, DW_AT_data_member_location[DW_OP_plus_uconst 0x3]
    6848                      .dwattr $C$DW$905, DW_AT_accessibility(DW_ACCESS_public)
    6849              
    6850              $C$DW$906       .dwtag  DW_TAG_member
    6851                      .dwattr $C$DW$906, DW_AT_type(*$C$DW$T$69)
    6852                      .dwattr $C$DW$906, DW_AT_name("STAT04_RSV1")
    6853                      .dwattr $C$DW$906, DW_AT_TI_symbol_name("_STAT04_RSV1")
    6854                      .dwattr $C$DW$906, DW_AT_data_member_location[DW_OP_plus_uconst 0x4]
    6855                      .dwattr $C$DW$906, DW_AT_accessibility(DW_ACCESS_public)
    6856              
    6857              $C$DW$907       .dwtag  DW_TAG_member
    6858                      .dwattr $C$DW$907, DW_AT_type(*$C$DW$T$69)
    6859                      .dwattr $C$DW$907, DW_AT_name("FETLC_VGS")
    6860                      .dwattr $C$DW$907, DW_AT_TI_symbol_name("_FETLC_VGS")
    6861                      .dwattr $C$DW$907, DW_AT_data_member_location[DW_OP_plus_uconst 0x5]
    6862                      .dwattr $C$DW$907, DW_AT_accessibility(DW_ACCESS_public)
    6863              
    6864              $C$DW$908       .dwtag  DW_TAG_member
    6865                      .dwattr $C$DW$908, DW_AT_type(*$C$DW$T$69)
    6866                      .dwattr $C$DW$908, DW_AT_name("FETHC_VGS")
    6867                      .dwattr $C$DW$908, DW_AT_TI_symbol_name("_FETHC_VGS")
    6868                      .dwattr $C$DW$908, DW_AT_data_member_location[DW_OP_plus_uconst 0x6]
    6869                      .dwattr $C$DW$908, DW_AT_accessibility(DW_ACCESS_public)
    6870              
    6871              $C$DW$909       .dwtag  DW_TAG_member
    6872                      .dwattr $C$DW$909, DW_AT_type(*$C$DW$T$69)
    6873                      .dwattr $C$DW$909, DW_AT_name("FETLB_VGS")
    6874                      .dwattr $C$DW$909, DW_AT_TI_symbol_name("_FETLB_VGS")
    6875                      .dwattr $C$DW$909, DW_AT_data_member_location[DW_OP_plus_uconst 0x7]
    6876                      .dwattr $C$DW$909, DW_AT_accessibility(DW_ACCESS_public)
    6877              
    6878              $C$DW$910       .dwtag  DW_TAG_member
    6879                      .dwattr $C$DW$910, DW_AT_type(*$C$DW$T$69)
    6880                      .dwattr $C$DW$910, DW_AT_name("FETHB_VGS")
    6881                      .dwattr $C$DW$910, DW_AT_TI_symbol_name("_FETHB_VGS")
    6882                      .dwattr $C$DW$910, DW_AT_data_member_location[DW_OP_plus_uconst 0x8]
    6883                      .dwattr $C$DW$910, DW_AT_accessibility(DW_ACCESS_public)
    6884              
TMS320C2000 Assembler PC v18.1.2 Sun Jun 17 14:52:32 2018

Tools Copyright (c) 1996-2017 Texas Instruments Incorporated
C:\Users\haowp\AppData\Local\Temp\{81472915-7FA4-430D-8ACB-BFB8F401620C} PAGE  131

    6885              $C$DW$911       .dwtag  DW_TAG_member
    6886                      .dwattr $C$DW$911, DW_AT_type(*$C$DW$T$69)
    6887                      .dwattr $C$DW$911, DW_AT_name("FETLA_VGS")
    6888                      .dwattr $C$DW$911, DW_AT_TI_symbol_name("_FETLA_VGS")
    6889                      .dwattr $C$DW$911, DW_AT_data_member_location[DW_OP_plus_uconst 0x9]
    6890                      .dwattr $C$DW$911, DW_AT_accessibility(DW_ACCESS_public)
    6891              
    6892              $C$DW$912       .dwtag  DW_TAG_member
    6893                      .dwattr $C$DW$912, DW_AT_type(*$C$DW$T$69)
    6894                      .dwattr $C$DW$912, DW_AT_name("FETHA_VGS")
    6895                      .dwattr $C$DW$912, DW_AT_TI_symbol_name("_FETHA_VGS")
    6896                      .dwattr $C$DW$912, DW_AT_data_member_location[DW_OP_plus_uconst 0xa]
    6897                      .dwattr $C$DW$912, DW_AT_accessibility(DW_ACCESS_public)
    6898              
    6899                      .dwendtag $C$DW$T$134
    6900              
    6901              $C$DW$T$138     .dwtag  DW_TAG_typedef
    6902                      .dwattr $C$DW$T$138, DW_AT_name("DRV_SPI_8305_Stat04_t_")
    6903                      .dwattr $C$DW$T$138, DW_AT_type(*$C$DW$T$134)
    6904                      .dwattr $C$DW$T$138, DW_AT_language(DW_LANG_C)
    6905              
    6906              
    6907              $C$DW$T$147     .dwtag  DW_TAG_structure_type
    6908                      .dwattr $C$DW$T$147, DW_AT_name("_DRV_SPI_8305_Vars_t_")
    6909                      .dwattr $C$DW$T$147, DW_AT_byte_size(0x61)
    6910              $C$DW$913       .dwtag  DW_TAG_member
    6911                      .dwattr $C$DW$913, DW_AT_type(*$C$DW$T$135)
    6912                      .dwattr $C$DW$913, DW_AT_name("Stat_Reg_01")
    6913                      .dwattr $C$DW$913, DW_AT_TI_symbol_name("_Stat_Reg_01")
    6914                      .dwattr $C$DW$913, DW_AT_data_member_location[DW_OP_plus_uconst 0x0]
    6915                      .dwattr $C$DW$913, DW_AT_accessibility(DW_ACCESS_public)
    6916              
    6917              $C$DW$914       .dwtag  DW_TAG_member
    6918                      .dwattr $C$DW$914, DW_AT_type(*$C$DW$T$136)
    6919                      .dwattr $C$DW$914, DW_AT_name("Stat_Reg_02")
    6920                      .dwattr $C$DW$914, DW_AT_TI_symbol_name("_Stat_Reg_02")
    6921                      .dwattr $C$DW$914, DW_AT_data_member_location[DW_OP_plus_uconst 0xb]
    6922                      .dwattr $C$DW$914, DW_AT_accessibility(DW_ACCESS_public)
    6923              
    6924              $C$DW$915       .dwtag  DW_TAG_member
    6925                      .dwattr $C$DW$915, DW_AT_type(*$C$DW$T$137)
    6926                      .dwattr $C$DW$915, DW_AT_name("Stat_Reg_03")
    6927                      .dwattr $C$DW$915, DW_AT_TI_symbol_name("_Stat_Reg_03")
    6928                      .dwattr $C$DW$915, DW_AT_data_member_location[DW_OP_plus_uconst 0x16]
    6929                      .dwattr $C$DW$915, DW_AT_accessibility(DW_ACCESS_public)
    6930              
    6931              $C$DW$916       .dwtag  DW_TAG_member
    6932                      .dwattr $C$DW$916, DW_AT_type(*$C$DW$T$138)
    6933                      .dwattr $C$DW$916, DW_AT_name("Stat_Reg_04")
    6934                      .dwattr $C$DW$916, DW_AT_TI_symbol_name("_Stat_Reg_04")
    6935                      .dwattr $C$DW$916, DW_AT_data_member_location[DW_OP_plus_uconst 0x21]
    6936                      .dwattr $C$DW$916, DW_AT_accessibility(DW_ACCESS_public)
    6937              
    6938              $C$DW$917       .dwtag  DW_TAG_member
    6939                      .dwattr $C$DW$917, DW_AT_type(*$C$DW$T$139)
TMS320C2000 Assembler PC v18.1.2 Sun Jun 17 14:52:32 2018

Tools Copyright (c) 1996-2017 Texas Instruments Incorporated
C:\Users\haowp\AppData\Local\Temp\{81472915-7FA4-430D-8ACB-BFB8F401620C} PAGE  132

    6940                      .dwattr $C$DW$917, DW_AT_name("Ctrl_Reg_05")
    6941                      .dwattr $C$DW$917, DW_AT_TI_symbol_name("_Ctrl_Reg_05")
    6942                      .dwattr $C$DW$917, DW_AT_data_member_location[DW_OP_plus_uconst 0x2c]
    6943                      .dwattr $C$DW$917, DW_AT_accessibility(DW_ACCESS_public)
    6944              
    6945              $C$DW$918       .dwtag  DW_TAG_member
    6946                      .dwattr $C$DW$918, DW_AT_type(*$C$DW$T$140)
    6947                      .dwattr $C$DW$918, DW_AT_name("Ctrl_Reg_06")
    6948                      .dwattr $C$DW$918, DW_AT_TI_symbol_name("_Ctrl_Reg_06")
    6949                      .dwattr $C$DW$918, DW_AT_data_member_location[DW_OP_plus_uconst 0x30]
    6950                      .dwattr $C$DW$918, DW_AT_accessibility(DW_ACCESS_public)
    6951              
    6952              $C$DW$919       .dwtag  DW_TAG_member
    6953                      .dwattr $C$DW$919, DW_AT_type(*$C$DW$T$141)
    6954                      .dwattr $C$DW$919, DW_AT_name("Ctrl_Reg_07")
    6955                      .dwattr $C$DW$919, DW_AT_TI_symbol_name("_Ctrl_Reg_07")
    6956                      .dwattr $C$DW$919, DW_AT_data_member_location[DW_OP_plus_uconst 0x34]
    6957                      .dwattr $C$DW$919, DW_AT_accessibility(DW_ACCESS_public)
    6958              
    6959              $C$DW$920       .dwtag  DW_TAG_member
    6960                      .dwattr $C$DW$920, DW_AT_type(*$C$DW$T$142)
    6961                      .dwattr $C$DW$920, DW_AT_name("Ctrl_Reg_08")
    6962                      .dwattr $C$DW$920, DW_AT_TI_symbol_name("_Ctrl_Reg_08")
    6963                      .dwattr $C$DW$920, DW_AT_data_member_location[DW_OP_plus_uconst 0x3a]
    6964                      .dwattr $C$DW$920, DW_AT_accessibility(DW_ACCESS_public)
    6965              
    6966              $C$DW$921       .dwtag  DW_TAG_member
    6967                      .dwattr $C$DW$921, DW_AT_type(*$C$DW$T$143)
    6968                      .dwattr $C$DW$921, DW_AT_name("Ctrl_Reg_09")
    6969                      .dwattr $C$DW$921, DW_AT_TI_symbol_name("_Ctrl_Reg_09")
    6970                      .dwattr $C$DW$921, DW_AT_data_member_location[DW_OP_plus_uconst 0x3b]
    6971                      .dwattr $C$DW$921, DW_AT_accessibility(DW_ACCESS_public)
    6972              
    6973              $C$DW$922       .dwtag  DW_TAG_member
    6974                      .dwattr $C$DW$922, DW_AT_type(*$C$DW$T$144)
    6975                      .dwattr $C$DW$922, DW_AT_name("Ctrl_Reg_0A")
    6976                      .dwattr $C$DW$922, DW_AT_TI_symbol_name("_Ctrl_Reg_0A")
    6977                      .dwattr $C$DW$922, DW_AT_data_member_location[DW_OP_plus_uconst 0x45]
    6978                      .dwattr $C$DW$922, DW_AT_accessibility(DW_ACCESS_public)
    6979              
    6980              $C$DW$923       .dwtag  DW_TAG_member
    6981                      .dwattr $C$DW$923, DW_AT_type(*$C$DW$T$145)
    6982                      .dwattr $C$DW$923, DW_AT_name("Ctrl_Reg_0B")
    6983                      .dwattr $C$DW$923, DW_AT_TI_symbol_name("_Ctrl_Reg_0B")
    6984                      .dwattr $C$DW$923, DW_AT_data_member_location[DW_OP_plus_uconst 0x4c]
    6985                      .dwattr $C$DW$923, DW_AT_accessibility(DW_ACCESS_public)
    6986              
    6987              $C$DW$924       .dwtag  DW_TAG_member
    6988                      .dwattr $C$DW$924, DW_AT_type(*$C$DW$T$146)
    6989                      .dwattr $C$DW$924, DW_AT_name("Ctrl_Reg_0C")
    6990                      .dwattr $C$DW$924, DW_AT_TI_symbol_name("_Ctrl_Reg_0C")
    6991                      .dwattr $C$DW$924, DW_AT_data_member_location[DW_OP_plus_uconst 0x54]
    6992                      .dwattr $C$DW$924, DW_AT_accessibility(DW_ACCESS_public)
    6993              
    6994              $C$DW$925       .dwtag  DW_TAG_member
TMS320C2000 Assembler PC v18.1.2 Sun Jun 17 14:52:32 2018

Tools Copyright (c) 1996-2017 Texas Instruments Incorporated
C:\Users\haowp\AppData\Local\Temp\{81472915-7FA4-430D-8ACB-BFB8F401620C} PAGE  133

    6995                      .dwattr $C$DW$925, DW_AT_type(*$C$DW$T$69)
    6996                      .dwattr $C$DW$925, DW_AT_name("WriteCmd")
    6997                      .dwattr $C$DW$925, DW_AT_TI_symbol_name("_WriteCmd")
    6998                      .dwattr $C$DW$925, DW_AT_data_member_location[DW_OP_plus_uconst 0x59]
    6999                      .dwattr $C$DW$925, DW_AT_accessibility(DW_ACCESS_public)
    7000              
    7001              $C$DW$926       .dwtag  DW_TAG_member
    7002                      .dwattr $C$DW$926, DW_AT_type(*$C$DW$T$69)
    7003                      .dwattr $C$DW$926, DW_AT_name("ReadCmd")
    7004                      .dwattr $C$DW$926, DW_AT_TI_symbol_name("_ReadCmd")
    7005                      .dwattr $C$DW$926, DW_AT_data_member_location[DW_OP_plus_uconst 0x5a]
    7006                      .dwattr $C$DW$926, DW_AT_accessibility(DW_ACCESS_public)
    7007              
    7008              $C$DW$927       .dwtag  DW_TAG_member
    7009                      .dwattr $C$DW$927, DW_AT_type(*$C$DW$T$22)
    7010                      .dwattr $C$DW$927, DW_AT_name("ManWriteAddr")
    7011                      .dwattr $C$DW$927, DW_AT_TI_symbol_name("_ManWriteAddr")
    7012                      .dwattr $C$DW$927, DW_AT_data_member_location[DW_OP_plus_uconst 0x5b]
    7013                      .dwattr $C$DW$927, DW_AT_accessibility(DW_ACCESS_public)
    7014              
    7015              $C$DW$928       .dwtag  DW_TAG_member
    7016                      .dwattr $C$DW$928, DW_AT_type(*$C$DW$T$22)
    7017                      .dwattr $C$DW$928, DW_AT_name("ManReadAddr")
    7018                      .dwattr $C$DW$928, DW_AT_TI_symbol_name("_ManReadAddr")
    7019                      .dwattr $C$DW$928, DW_AT_data_member_location[DW_OP_plus_uconst 0x5c]
    7020                      .dwattr $C$DW$928, DW_AT_accessibility(DW_ACCESS_public)
    7021              
    7022              $C$DW$929       .dwtag  DW_TAG_member
    7023                      .dwattr $C$DW$929, DW_AT_type(*$C$DW$T$22)
    7024                      .dwattr $C$DW$929, DW_AT_name("ManWriteData")
    7025                      .dwattr $C$DW$929, DW_AT_TI_symbol_name("_ManWriteData")
    7026                      .dwattr $C$DW$929, DW_AT_data_member_location[DW_OP_plus_uconst 0x5d]
    7027                      .dwattr $C$DW$929, DW_AT_accessibility(DW_ACCESS_public)
    7028              
    7029              $C$DW$930       .dwtag  DW_TAG_member
    7030                      .dwattr $C$DW$930, DW_AT_type(*$C$DW$T$22)
    7031                      .dwattr $C$DW$930, DW_AT_name("ManReadData")
    7032                      .dwattr $C$DW$930, DW_AT_TI_symbol_name("_ManReadData")
    7033                      .dwattr $C$DW$930, DW_AT_data_member_location[DW_OP_plus_uconst 0x5e]
    7034                      .dwattr $C$DW$930, DW_AT_accessibility(DW_ACCESS_public)
    7035              
    7036              $C$DW$931       .dwtag  DW_TAG_member
    7037                      .dwattr $C$DW$931, DW_AT_type(*$C$DW$T$69)
    7038                      .dwattr $C$DW$931, DW_AT_name("ManWriteCmd")
    7039                      .dwattr $C$DW$931, DW_AT_TI_symbol_name("_ManWriteCmd")
    7040                      .dwattr $C$DW$931, DW_AT_data_member_location[DW_OP_plus_uconst 0x5f]
    7041                      .dwattr $C$DW$931, DW_AT_accessibility(DW_ACCESS_public)
    7042              
    7043              $C$DW$932       .dwtag  DW_TAG_member
    7044                      .dwattr $C$DW$932, DW_AT_type(*$C$DW$T$69)
    7045                      .dwattr $C$DW$932, DW_AT_name("ManReadCmd")
    7046                      .dwattr $C$DW$932, DW_AT_TI_symbol_name("_ManReadCmd")
    7047                      .dwattr $C$DW$932, DW_AT_data_member_location[DW_OP_plus_uconst 0x60]
    7048                      .dwattr $C$DW$932, DW_AT_accessibility(DW_ACCESS_public)
    7049              
TMS320C2000 Assembler PC v18.1.2 Sun Jun 17 14:52:32 2018

Tools Copyright (c) 1996-2017 Texas Instruments Incorporated
C:\Users\haowp\AppData\Local\Temp\{81472915-7FA4-430D-8ACB-BFB8F401620C} PAGE  134

    7050                      .dwendtag $C$DW$T$147
    7051              
    7052              $C$DW$T$277     .dwtag  DW_TAG_typedef
    7053                      .dwattr $C$DW$T$277, DW_AT_name("DRV_SPI_8305_Vars_t")
    7054                      .dwattr $C$DW$T$277, DW_AT_type(*$C$DW$T$147)
    7055                      .dwattr $C$DW$T$277, DW_AT_language(DW_LANG_C)
    7056              
    7057              $C$DW$T$278     .dwtag  DW_TAG_pointer_type
    7058                      .dwattr $C$DW$T$278, DW_AT_type(*$C$DW$T$277)
    7059                      .dwattr $C$DW$T$278, DW_AT_address_class(0x20)
    7060              
    7061              
    7062              $C$DW$T$19      .dwtag  DW_TAG_structure_type
    7063                      .dwattr $C$DW$T$19, DW_AT_name("_EST_Obj_")
    7064                      .dwattr $C$DW$T$19, DW_AT_declaration
    7065                      .dwendtag $C$DW$T$19
    7066              
    7067              $C$DW$T$45      .dwtag  DW_TAG_pointer_type
    7068                      .dwattr $C$DW$T$45, DW_AT_type(*$C$DW$T$19)
    7069                      .dwattr $C$DW$T$45, DW_AT_address_class(0x20)
    7070              
    7071              $C$DW$T$46      .dwtag  DW_TAG_typedef
    7072                      .dwattr $C$DW$T$46, DW_AT_name("EST_Handle")
    7073                      .dwattr $C$DW$T$46, DW_AT_type(*$C$DW$T$45)
    7074                      .dwattr $C$DW$T$46, DW_AT_language(DW_LANG_C)
    7075              
    7076              
    7077              $C$DW$T$148     .dwtag  DW_TAG_structure_type
    7078                      .dwattr $C$DW$T$148, DW_AT_name("_FILTER_FO_")
    7079                      .dwattr $C$DW$T$148, DW_AT_byte_size(0x0a)
    7080              $C$DW$933       .dwtag  DW_TAG_member
    7081                      .dwattr $C$DW$933, DW_AT_type(*$C$DW$T$31)
    7082                      .dwattr $C$DW$933, DW_AT_name("a1")
    7083                      .dwattr $C$DW$933, DW_AT_TI_symbol_name("_a1")
    7084                      .dwattr $C$DW$933, DW_AT_data_member_location[DW_OP_plus_uconst 0x0]
    7085                      .dwattr $C$DW$933, DW_AT_accessibility(DW_ACCESS_public)
    7086              
    7087              $C$DW$934       .dwtag  DW_TAG_member
    7088                      .dwattr $C$DW$934, DW_AT_type(*$C$DW$T$31)
    7089                      .dwattr $C$DW$934, DW_AT_name("b0")
    7090                      .dwattr $C$DW$934, DW_AT_TI_symbol_name("_b0")
    7091                      .dwattr $C$DW$934, DW_AT_data_member_location[DW_OP_plus_uconst 0x2]
    7092                      .dwattr $C$DW$934, DW_AT_accessibility(DW_ACCESS_public)
    7093              
    7094              $C$DW$935       .dwtag  DW_TAG_member
    7095                      .dwattr $C$DW$935, DW_AT_type(*$C$DW$T$31)
    7096                      .dwattr $C$DW$935, DW_AT_name("b1")
    7097                      .dwattr $C$DW$935, DW_AT_TI_symbol_name("_b1")
    7098                      .dwattr $C$DW$935, DW_AT_data_member_location[DW_OP_plus_uconst 0x4]
    7099                      .dwattr $C$DW$935, DW_AT_accessibility(DW_ACCESS_public)
    7100              
    7101              $C$DW$936       .dwtag  DW_TAG_member
    7102                      .dwattr $C$DW$936, DW_AT_type(*$C$DW$T$31)
    7103                      .dwattr $C$DW$936, DW_AT_name("x1")
    7104                      .dwattr $C$DW$936, DW_AT_TI_symbol_name("_x1")
TMS320C2000 Assembler PC v18.1.2 Sun Jun 17 14:52:32 2018

Tools Copyright (c) 1996-2017 Texas Instruments Incorporated
C:\Users\haowp\AppData\Local\Temp\{81472915-7FA4-430D-8ACB-BFB8F401620C} PAGE  135

    7105                      .dwattr $C$DW$936, DW_AT_data_member_location[DW_OP_plus_uconst 0x6]
    7106                      .dwattr $C$DW$936, DW_AT_accessibility(DW_ACCESS_public)
    7107              
    7108              $C$DW$937       .dwtag  DW_TAG_member
    7109                      .dwattr $C$DW$937, DW_AT_type(*$C$DW$T$31)
    7110                      .dwattr $C$DW$937, DW_AT_name("y1")
    7111                      .dwattr $C$DW$937, DW_AT_TI_symbol_name("_y1")
    7112                      .dwattr $C$DW$937, DW_AT_data_member_location[DW_OP_plus_uconst 0x8]
    7113                      .dwattr $C$DW$937, DW_AT_accessibility(DW_ACCESS_public)
    7114              
    7115                      .dwendtag $C$DW$T$148
    7116              
    7117              $C$DW$T$205     .dwtag  DW_TAG_typedef
    7118                      .dwattr $C$DW$T$205, DW_AT_name("FILTER_FO_Obj")
    7119                      .dwattr $C$DW$T$205, DW_AT_type(*$C$DW$T$148)
    7120                      .dwattr $C$DW$T$205, DW_AT_language(DW_LANG_C)
    7121              
    7122              
    7123              $C$DW$T$20      .dwtag  DW_TAG_structure_type
    7124                      .dwattr $C$DW$T$20, DW_AT_name("_FILTER_FO_Obj_")
    7125                      .dwattr $C$DW$T$20, DW_AT_declaration
    7126                      .dwendtag $C$DW$T$20
    7127              
    7128              $C$DW$T$206     .dwtag  DW_TAG_pointer_type
    7129                      .dwattr $C$DW$T$206, DW_AT_type(*$C$DW$T$20)
    7130                      .dwattr $C$DW$T$206, DW_AT_address_class(0x20)
    7131              
    7132              $C$DW$T$207     .dwtag  DW_TAG_typedef
    7133                      .dwattr $C$DW$T$207, DW_AT_name("FILTER_FO_Handle")
    7134                      .dwattr $C$DW$T$207, DW_AT_type(*$C$DW$T$206)
    7135                      .dwattr $C$DW$T$207, DW_AT_language(DW_LANG_C)
    7136              
    7137              
    7138              $C$DW$T$149     .dwtag  DW_TAG_structure_type
    7139                      .dwattr $C$DW$T$149, DW_AT_name("_FLASH_Obj_")
    7140                      .dwattr $C$DW$T$149, DW_AT_byte_size(0x08)
    7141              $C$DW$938       .dwtag  DW_TAG_member
    7142                      .dwattr $C$DW$938, DW_AT_type(*$C$DW$T$23)
    7143                      .dwattr $C$DW$938, DW_AT_name("FOPT")
    7144                      .dwattr $C$DW$938, DW_AT_TI_symbol_name("_FOPT")
    7145                      .dwattr $C$DW$938, DW_AT_data_member_location[DW_OP_plus_uconst 0x0]
    7146                      .dwattr $C$DW$938, DW_AT_accessibility(DW_ACCESS_public)
    7147              
    7148              $C$DW$939       .dwtag  DW_TAG_member
    7149                      .dwattr $C$DW$939, DW_AT_type(*$C$DW$T$23)
    7150                      .dwattr $C$DW$939, DW_AT_name("rsvd_1")
    7151                      .dwattr $C$DW$939, DW_AT_TI_symbol_name("_rsvd_1")
    7152                      .dwattr $C$DW$939, DW_AT_data_member_location[DW_OP_plus_uconst 0x1]
    7153                      .dwattr $C$DW$939, DW_AT_accessibility(DW_ACCESS_public)
    7154              
    7155              $C$DW$940       .dwtag  DW_TAG_member
    7156                      .dwattr $C$DW$940, DW_AT_type(*$C$DW$T$23)
    7157                      .dwattr $C$DW$940, DW_AT_name("FPWR")
    7158                      .dwattr $C$DW$940, DW_AT_TI_symbol_name("_FPWR")
    7159                      .dwattr $C$DW$940, DW_AT_data_member_location[DW_OP_plus_uconst 0x2]
TMS320C2000 Assembler PC v18.1.2 Sun Jun 17 14:52:32 2018

Tools Copyright (c) 1996-2017 Texas Instruments Incorporated
C:\Users\haowp\AppData\Local\Temp\{81472915-7FA4-430D-8ACB-BFB8F401620C} PAGE  136

    7160                      .dwattr $C$DW$940, DW_AT_accessibility(DW_ACCESS_public)
    7161              
    7162              $C$DW$941       .dwtag  DW_TAG_member
    7163                      .dwattr $C$DW$941, DW_AT_type(*$C$DW$T$23)
    7164                      .dwattr $C$DW$941, DW_AT_name("FSTATUS")
    7165                      .dwattr $C$DW$941, DW_AT_TI_symbol_name("_FSTATUS")
    7166                      .dwattr $C$DW$941, DW_AT_data_member_location[DW_OP_plus_uconst 0x3]
    7167                      .dwattr $C$DW$941, DW_AT_accessibility(DW_ACCESS_public)
    7168              
    7169              $C$DW$942       .dwtag  DW_TAG_member
    7170                      .dwattr $C$DW$942, DW_AT_type(*$C$DW$T$23)
    7171                      .dwattr $C$DW$942, DW_AT_name("FSTDBYWAIT")
    7172                      .dwattr $C$DW$942, DW_AT_TI_symbol_name("_FSTDBYWAIT")
    7173                      .dwattr $C$DW$942, DW_AT_data_member_location[DW_OP_plus_uconst 0x4]
    7174                      .dwattr $C$DW$942, DW_AT_accessibility(DW_ACCESS_public)
    7175              
    7176              $C$DW$943       .dwtag  DW_TAG_member
    7177                      .dwattr $C$DW$943, DW_AT_type(*$C$DW$T$23)
    7178                      .dwattr $C$DW$943, DW_AT_name("FACTIVEWAIT")
    7179                      .dwattr $C$DW$943, DW_AT_TI_symbol_name("_FACTIVEWAIT")
    7180                      .dwattr $C$DW$943, DW_AT_data_member_location[DW_OP_plus_uconst 0x5]
    7181                      .dwattr $C$DW$943, DW_AT_accessibility(DW_ACCESS_public)
    7182              
    7183              $C$DW$944       .dwtag  DW_TAG_member
    7184                      .dwattr $C$DW$944, DW_AT_type(*$C$DW$T$23)
    7185                      .dwattr $C$DW$944, DW_AT_name("FBANKWAIT")
    7186                      .dwattr $C$DW$944, DW_AT_TI_symbol_name("_FBANKWAIT")
    7187                      .dwattr $C$DW$944, DW_AT_data_member_location[DW_OP_plus_uconst 0x6]
    7188                      .dwattr $C$DW$944, DW_AT_accessibility(DW_ACCESS_public)
    7189              
    7190              $C$DW$945       .dwtag  DW_TAG_member
    7191                      .dwattr $C$DW$945, DW_AT_type(*$C$DW$T$23)
    7192                      .dwattr $C$DW$945, DW_AT_name("FOTPWAIT")
    7193                      .dwattr $C$DW$945, DW_AT_TI_symbol_name("_FOTPWAIT")
    7194                      .dwattr $C$DW$945, DW_AT_data_member_location[DW_OP_plus_uconst 0x7]
    7195                      .dwattr $C$DW$945, DW_AT_accessibility(DW_ACCESS_public)
    7196              
    7197                      .dwendtag $C$DW$T$149
    7198              
    7199              $C$DW$T$162     .dwtag  DW_TAG_pointer_type
    7200                      .dwattr $C$DW$T$162, DW_AT_type(*$C$DW$T$149)
    7201                      .dwattr $C$DW$T$162, DW_AT_address_class(0x20)
    7202              
    7203              $C$DW$T$163     .dwtag  DW_TAG_typedef
    7204                      .dwattr $C$DW$T$163, DW_AT_name("FLASH_Handle")
    7205                      .dwattr $C$DW$T$163, DW_AT_type(*$C$DW$T$162)
    7206                      .dwattr $C$DW$T$163, DW_AT_language(DW_LANG_C)
    7207              
    7208              
    7209              $C$DW$T$153     .dwtag  DW_TAG_structure_type
    7210                      .dwattr $C$DW$T$153, DW_AT_name("_GPIO_Obj_")
    7211                      .dwattr $C$DW$T$153, DW_AT_byte_size(0x6a)
    7212              $C$DW$946       .dwtag  DW_TAG_member
    7213                      .dwattr $C$DW$946, DW_AT_type(*$C$DW$T$150)
    7214                      .dwattr $C$DW$946, DW_AT_name("GPACTRL")
TMS320C2000 Assembler PC v18.1.2 Sun Jun 17 14:52:32 2018

Tools Copyright (c) 1996-2017 Texas Instruments Incorporated
C:\Users\haowp\AppData\Local\Temp\{81472915-7FA4-430D-8ACB-BFB8F401620C} PAGE  137

    7215                      .dwattr $C$DW$946, DW_AT_TI_symbol_name("_GPACTRL")
    7216                      .dwattr $C$DW$946, DW_AT_data_member_location[DW_OP_plus_uconst 0x0]
    7217                      .dwattr $C$DW$946, DW_AT_accessibility(DW_ACCESS_public)
    7218              
    7219              $C$DW$947       .dwtag  DW_TAG_member
    7220                      .dwattr $C$DW$947, DW_AT_type(*$C$DW$T$150)
    7221                      .dwattr $C$DW$947, DW_AT_name("GPAQSEL1")
    7222                      .dwattr $C$DW$947, DW_AT_TI_symbol_name("_GPAQSEL1")
    7223                      .dwattr $C$DW$947, DW_AT_data_member_location[DW_OP_plus_uconst 0x2]
    7224                      .dwattr $C$DW$947, DW_AT_accessibility(DW_ACCESS_public)
    7225              
    7226              $C$DW$948       .dwtag  DW_TAG_member
    7227                      .dwattr $C$DW$948, DW_AT_type(*$C$DW$T$150)
    7228                      .dwattr $C$DW$948, DW_AT_name("GPAQSEL2")
    7229                      .dwattr $C$DW$948, DW_AT_TI_symbol_name("_GPAQSEL2")
    7230                      .dwattr $C$DW$948, DW_AT_data_member_location[DW_OP_plus_uconst 0x4]
    7231                      .dwattr $C$DW$948, DW_AT_accessibility(DW_ACCESS_public)
    7232              
    7233              $C$DW$949       .dwtag  DW_TAG_member
    7234                      .dwattr $C$DW$949, DW_AT_type(*$C$DW$T$150)
    7235                      .dwattr $C$DW$949, DW_AT_name("GPAMUX1")
    7236                      .dwattr $C$DW$949, DW_AT_TI_symbol_name("_GPAMUX1")
    7237                      .dwattr $C$DW$949, DW_AT_data_member_location[DW_OP_plus_uconst 0x6]
    7238                      .dwattr $C$DW$949, DW_AT_accessibility(DW_ACCESS_public)
    7239              
    7240              $C$DW$950       .dwtag  DW_TAG_member
    7241                      .dwattr $C$DW$950, DW_AT_type(*$C$DW$T$150)
    7242                      .dwattr $C$DW$950, DW_AT_name("GPAMUX2")
    7243                      .dwattr $C$DW$950, DW_AT_TI_symbol_name("_GPAMUX2")
    7244                      .dwattr $C$DW$950, DW_AT_data_member_location[DW_OP_plus_uconst 0x8]
    7245                      .dwattr $C$DW$950, DW_AT_accessibility(DW_ACCESS_public)
    7246              
    7247              $C$DW$951       .dwtag  DW_TAG_member
    7248                      .dwattr $C$DW$951, DW_AT_type(*$C$DW$T$150)
    7249                      .dwattr $C$DW$951, DW_AT_name("GPADIR")
    7250                      .dwattr $C$DW$951, DW_AT_TI_symbol_name("_GPADIR")
    7251                      .dwattr $C$DW$951, DW_AT_data_member_location[DW_OP_plus_uconst 0xa]
    7252                      .dwattr $C$DW$951, DW_AT_accessibility(DW_ACCESS_public)
    7253              
    7254              $C$DW$952       .dwtag  DW_TAG_member
    7255                      .dwattr $C$DW$952, DW_AT_type(*$C$DW$T$150)
    7256                      .dwattr $C$DW$952, DW_AT_name("GPAPUD")
    7257                      .dwattr $C$DW$952, DW_AT_TI_symbol_name("_GPAPUD")
    7258                      .dwattr $C$DW$952, DW_AT_data_member_location[DW_OP_plus_uconst 0xc]
    7259                      .dwattr $C$DW$952, DW_AT_accessibility(DW_ACCESS_public)
    7260              
    7261              $C$DW$953       .dwtag  DW_TAG_member
    7262                      .dwattr $C$DW$953, DW_AT_type(*$C$DW$T$26)
    7263                      .dwattr $C$DW$953, DW_AT_name("rsvd_1")
    7264                      .dwattr $C$DW$953, DW_AT_TI_symbol_name("_rsvd_1")
    7265                      .dwattr $C$DW$953, DW_AT_data_member_location[DW_OP_plus_uconst 0xe]
    7266                      .dwattr $C$DW$953, DW_AT_accessibility(DW_ACCESS_public)
    7267              
    7268              $C$DW$954       .dwtag  DW_TAG_member
    7269                      .dwattr $C$DW$954, DW_AT_type(*$C$DW$T$150)
TMS320C2000 Assembler PC v18.1.2 Sun Jun 17 14:52:32 2018

Tools Copyright (c) 1996-2017 Texas Instruments Incorporated
C:\Users\haowp\AppData\Local\Temp\{81472915-7FA4-430D-8ACB-BFB8F401620C} PAGE  138

    7270                      .dwattr $C$DW$954, DW_AT_name("GPBCTRL")
    7271                      .dwattr $C$DW$954, DW_AT_TI_symbol_name("_GPBCTRL")
    7272                      .dwattr $C$DW$954, DW_AT_data_member_location[DW_OP_plus_uconst 0x10]
    7273                      .dwattr $C$DW$954, DW_AT_accessibility(DW_ACCESS_public)
    7274              
    7275              $C$DW$955       .dwtag  DW_TAG_member
    7276                      .dwattr $C$DW$955, DW_AT_type(*$C$DW$T$150)
    7277                      .dwattr $C$DW$955, DW_AT_name("GPBQSEL1")
    7278                      .dwattr $C$DW$955, DW_AT_TI_symbol_name("_GPBQSEL1")
    7279                      .dwattr $C$DW$955, DW_AT_data_member_location[DW_OP_plus_uconst 0x12]
    7280                      .dwattr $C$DW$955, DW_AT_accessibility(DW_ACCESS_public)
    7281              
    7282              $C$DW$956       .dwtag  DW_TAG_member
    7283                      .dwattr $C$DW$956, DW_AT_type(*$C$DW$T$26)
    7284                      .dwattr $C$DW$956, DW_AT_name("rsvd_2")
    7285                      .dwattr $C$DW$956, DW_AT_TI_symbol_name("_rsvd_2")
    7286                      .dwattr $C$DW$956, DW_AT_data_member_location[DW_OP_plus_uconst 0x14]
    7287                      .dwattr $C$DW$956, DW_AT_accessibility(DW_ACCESS_public)
    7288              
    7289              $C$DW$957       .dwtag  DW_TAG_member
    7290                      .dwattr $C$DW$957, DW_AT_type(*$C$DW$T$150)
    7291                      .dwattr $C$DW$957, DW_AT_name("GPBMUX1")
    7292                      .dwattr $C$DW$957, DW_AT_TI_symbol_name("_GPBMUX1")
    7293                      .dwattr $C$DW$957, DW_AT_data_member_location[DW_OP_plus_uconst 0x16]
    7294                      .dwattr $C$DW$957, DW_AT_accessibility(DW_ACCESS_public)
    7295              
    7296              $C$DW$958       .dwtag  DW_TAG_member
    7297                      .dwattr $C$DW$958, DW_AT_type(*$C$DW$T$26)
    7298                      .dwattr $C$DW$958, DW_AT_name("rsvd_3")
    7299                      .dwattr $C$DW$958, DW_AT_TI_symbol_name("_rsvd_3")
    7300                      .dwattr $C$DW$958, DW_AT_data_member_location[DW_OP_plus_uconst 0x18]
    7301                      .dwattr $C$DW$958, DW_AT_accessibility(DW_ACCESS_public)
    7302              
    7303              $C$DW$959       .dwtag  DW_TAG_member
    7304                      .dwattr $C$DW$959, DW_AT_type(*$C$DW$T$150)
    7305                      .dwattr $C$DW$959, DW_AT_name("GPBDIR")
    7306                      .dwattr $C$DW$959, DW_AT_TI_symbol_name("_GPBDIR")
    7307                      .dwattr $C$DW$959, DW_AT_data_member_location[DW_OP_plus_uconst 0x1a]
    7308                      .dwattr $C$DW$959, DW_AT_accessibility(DW_ACCESS_public)
    7309              
    7310              $C$DW$960       .dwtag  DW_TAG_member
    7311                      .dwattr $C$DW$960, DW_AT_type(*$C$DW$T$150)
    7312                      .dwattr $C$DW$960, DW_AT_name("GPBPUD")
    7313                      .dwattr $C$DW$960, DW_AT_TI_symbol_name("_GPBPUD")
    7314                      .dwattr $C$DW$960, DW_AT_data_member_location[DW_OP_plus_uconst 0x1c]
    7315                      .dwattr $C$DW$960, DW_AT_accessibility(DW_ACCESS_public)
    7316              
    7317              $C$DW$961       .dwtag  DW_TAG_member
    7318                      .dwattr $C$DW$961, DW_AT_type(*$C$DW$T$151)
    7319                      .dwattr $C$DW$961, DW_AT_name("rsvd_4")
    7320                      .dwattr $C$DW$961, DW_AT_TI_symbol_name("_rsvd_4")
    7321                      .dwattr $C$DW$961, DW_AT_data_member_location[DW_OP_plus_uconst 0x1e]
    7322                      .dwattr $C$DW$961, DW_AT_accessibility(DW_ACCESS_public)
    7323              
    7324              $C$DW$962       .dwtag  DW_TAG_member
TMS320C2000 Assembler PC v18.1.2 Sun Jun 17 14:52:32 2018

Tools Copyright (c) 1996-2017 Texas Instruments Incorporated
C:\Users\haowp\AppData\Local\Temp\{81472915-7FA4-430D-8ACB-BFB8F401620C} PAGE  139

    7325                      .dwattr $C$DW$962, DW_AT_type(*$C$DW$T$150)
    7326                      .dwattr $C$DW$962, DW_AT_name("AIOMUX1")
    7327                      .dwattr $C$DW$962, DW_AT_TI_symbol_name("_AIOMUX1")
    7328                      .dwattr $C$DW$962, DW_AT_data_member_location[DW_OP_plus_uconst 0x36]
    7329                      .dwattr $C$DW$962, DW_AT_accessibility(DW_ACCESS_public)
    7330              
    7331              $C$DW$963       .dwtag  DW_TAG_member
    7332                      .dwattr $C$DW$963, DW_AT_type(*$C$DW$T$26)
    7333                      .dwattr $C$DW$963, DW_AT_name("rsvd_5")
    7334                      .dwattr $C$DW$963, DW_AT_TI_symbol_name("_rsvd_5")
    7335                      .dwattr $C$DW$963, DW_AT_data_member_location[DW_OP_plus_uconst 0x38]
    7336                      .dwattr $C$DW$963, DW_AT_accessibility(DW_ACCESS_public)
    7337              
    7338              $C$DW$964       .dwtag  DW_TAG_member
    7339                      .dwattr $C$DW$964, DW_AT_type(*$C$DW$T$150)
    7340                      .dwattr $C$DW$964, DW_AT_name("AIODIR")
    7341                      .dwattr $C$DW$964, DW_AT_TI_symbol_name("_AIODIR")
    7342                      .dwattr $C$DW$964, DW_AT_data_member_location[DW_OP_plus_uconst 0x3a]
    7343                      .dwattr $C$DW$964, DW_AT_accessibility(DW_ACCESS_public)
    7344              
    7345              $C$DW$965       .dwtag  DW_TAG_member
    7346                      .dwattr $C$DW$965, DW_AT_type(*$C$DW$T$152)
    7347                      .dwattr $C$DW$965, DW_AT_name("rsvd_6")
    7348                      .dwattr $C$DW$965, DW_AT_TI_symbol_name("_rsvd_6")
    7349                      .dwattr $C$DW$965, DW_AT_data_member_location[DW_OP_plus_uconst 0x3c]
    7350                      .dwattr $C$DW$965, DW_AT_accessibility(DW_ACCESS_public)
    7351              
    7352              $C$DW$966       .dwtag  DW_TAG_member
    7353                      .dwattr $C$DW$966, DW_AT_type(*$C$DW$T$150)
    7354                      .dwattr $C$DW$966, DW_AT_name("GPADAT")
    7355                      .dwattr $C$DW$966, DW_AT_TI_symbol_name("_GPADAT")
    7356                      .dwattr $C$DW$966, DW_AT_data_member_location[DW_OP_plus_uconst 0x40]
    7357                      .dwattr $C$DW$966, DW_AT_accessibility(DW_ACCESS_public)
    7358              
    7359              $C$DW$967       .dwtag  DW_TAG_member
    7360                      .dwattr $C$DW$967, DW_AT_type(*$C$DW$T$150)
    7361                      .dwattr $C$DW$967, DW_AT_name("GPASET")
    7362                      .dwattr $C$DW$967, DW_AT_TI_symbol_name("_GPASET")
    7363                      .dwattr $C$DW$967, DW_AT_data_member_location[DW_OP_plus_uconst 0x42]
    7364                      .dwattr $C$DW$967, DW_AT_accessibility(DW_ACCESS_public)
    7365              
    7366              $C$DW$968       .dwtag  DW_TAG_member
    7367                      .dwattr $C$DW$968, DW_AT_type(*$C$DW$T$150)
    7368                      .dwattr $C$DW$968, DW_AT_name("GPACLEAR")
    7369                      .dwattr $C$DW$968, DW_AT_TI_symbol_name("_GPACLEAR")
    7370                      .dwattr $C$DW$968, DW_AT_data_member_location[DW_OP_plus_uconst 0x44]
    7371                      .dwattr $C$DW$968, DW_AT_accessibility(DW_ACCESS_public)
    7372              
    7373              $C$DW$969       .dwtag  DW_TAG_member
    7374                      .dwattr $C$DW$969, DW_AT_type(*$C$DW$T$150)
    7375                      .dwattr $C$DW$969, DW_AT_name("GPATOGGLE")
    7376                      .dwattr $C$DW$969, DW_AT_TI_symbol_name("_GPATOGGLE")
    7377                      .dwattr $C$DW$969, DW_AT_data_member_location[DW_OP_plus_uconst 0x46]
    7378                      .dwattr $C$DW$969, DW_AT_accessibility(DW_ACCESS_public)
    7379              
TMS320C2000 Assembler PC v18.1.2 Sun Jun 17 14:52:32 2018

Tools Copyright (c) 1996-2017 Texas Instruments Incorporated
C:\Users\haowp\AppData\Local\Temp\{81472915-7FA4-430D-8ACB-BFB8F401620C} PAGE  140

    7380              $C$DW$970       .dwtag  DW_TAG_member
    7381                      .dwattr $C$DW$970, DW_AT_type(*$C$DW$T$150)
    7382                      .dwattr $C$DW$970, DW_AT_name("GPBDAT")
    7383                      .dwattr $C$DW$970, DW_AT_TI_symbol_name("_GPBDAT")
    7384                      .dwattr $C$DW$970, DW_AT_data_member_location[DW_OP_plus_uconst 0x48]
    7385                      .dwattr $C$DW$970, DW_AT_accessibility(DW_ACCESS_public)
    7386              
    7387              $C$DW$971       .dwtag  DW_TAG_member
    7388                      .dwattr $C$DW$971, DW_AT_type(*$C$DW$T$150)
    7389                      .dwattr $C$DW$971, DW_AT_name("GPBSET")
    7390                      .dwattr $C$DW$971, DW_AT_TI_symbol_name("_GPBSET")
    7391                      .dwattr $C$DW$971, DW_AT_data_member_location[DW_OP_plus_uconst 0x4a]
    7392                      .dwattr $C$DW$971, DW_AT_accessibility(DW_ACCESS_public)
    7393              
    7394              $C$DW$972       .dwtag  DW_TAG_member
    7395                      .dwattr $C$DW$972, DW_AT_type(*$C$DW$T$150)
    7396                      .dwattr $C$DW$972, DW_AT_name("GPBCLEAR")
    7397                      .dwattr $C$DW$972, DW_AT_TI_symbol_name("_GPBCLEAR")
    7398                      .dwattr $C$DW$972, DW_AT_data_member_location[DW_OP_plus_uconst 0x4c]
    7399                      .dwattr $C$DW$972, DW_AT_accessibility(DW_ACCESS_public)
    7400              
    7401              $C$DW$973       .dwtag  DW_TAG_member
    7402                      .dwattr $C$DW$973, DW_AT_type(*$C$DW$T$150)
    7403                      .dwattr $C$DW$973, DW_AT_name("GPBTOGGLE")
    7404                      .dwattr $C$DW$973, DW_AT_TI_symbol_name("_GPBTOGGLE")
    7405                      .dwattr $C$DW$973, DW_AT_data_member_location[DW_OP_plus_uconst 0x4e]
    7406                      .dwattr $C$DW$973, DW_AT_accessibility(DW_ACCESS_public)
    7407              
    7408              $C$DW$974       .dwtag  DW_TAG_member
    7409                      .dwattr $C$DW$974, DW_AT_type(*$C$DW$T$34)
    7410                      .dwattr $C$DW$974, DW_AT_name("rsvd_7")
    7411                      .dwattr $C$DW$974, DW_AT_TI_symbol_name("_rsvd_7")
    7412                      .dwattr $C$DW$974, DW_AT_data_member_location[DW_OP_plus_uconst 0x50]
    7413                      .dwattr $C$DW$974, DW_AT_accessibility(DW_ACCESS_public)
    7414              
    7415              $C$DW$975       .dwtag  DW_TAG_member
    7416                      .dwattr $C$DW$975, DW_AT_type(*$C$DW$T$150)
    7417                      .dwattr $C$DW$975, DW_AT_name("AIODAT")
    7418                      .dwattr $C$DW$975, DW_AT_TI_symbol_name("_AIODAT")
    7419                      .dwattr $C$DW$975, DW_AT_data_member_location[DW_OP_plus_uconst 0x58]
    7420                      .dwattr $C$DW$975, DW_AT_accessibility(DW_ACCESS_public)
    7421              
    7422              $C$DW$976       .dwtag  DW_TAG_member
    7423                      .dwattr $C$DW$976, DW_AT_type(*$C$DW$T$150)
    7424                      .dwattr $C$DW$976, DW_AT_name("AIOSET")
    7425                      .dwattr $C$DW$976, DW_AT_TI_symbol_name("_AIOSET")
    7426                      .dwattr $C$DW$976, DW_AT_data_member_location[DW_OP_plus_uconst 0x5a]
    7427                      .dwattr $C$DW$976, DW_AT_accessibility(DW_ACCESS_public)
    7428              
    7429              $C$DW$977       .dwtag  DW_TAG_member
    7430                      .dwattr $C$DW$977, DW_AT_type(*$C$DW$T$150)
    7431                      .dwattr $C$DW$977, DW_AT_name("AIOCLEAR")
    7432                      .dwattr $C$DW$977, DW_AT_TI_symbol_name("_AIOCLEAR")
    7433                      .dwattr $C$DW$977, DW_AT_data_member_location[DW_OP_plus_uconst 0x5c]
    7434                      .dwattr $C$DW$977, DW_AT_accessibility(DW_ACCESS_public)
TMS320C2000 Assembler PC v18.1.2 Sun Jun 17 14:52:32 2018

Tools Copyright (c) 1996-2017 Texas Instruments Incorporated
C:\Users\haowp\AppData\Local\Temp\{81472915-7FA4-430D-8ACB-BFB8F401620C} PAGE  141

    7435              
    7436              $C$DW$978       .dwtag  DW_TAG_member
    7437                      .dwattr $C$DW$978, DW_AT_type(*$C$DW$T$150)
    7438                      .dwattr $C$DW$978, DW_AT_name("AIOTOGGLE")
    7439                      .dwattr $C$DW$978, DW_AT_TI_symbol_name("_AIOTOGGLE")
    7440                      .dwattr $C$DW$978, DW_AT_data_member_location[DW_OP_plus_uconst 0x5e]
    7441                      .dwattr $C$DW$978, DW_AT_accessibility(DW_ACCESS_public)
    7442              
    7443              $C$DW$979       .dwtag  DW_TAG_member
    7444                      .dwattr $C$DW$979, DW_AT_type(*$C$DW$T$28)
    7445                      .dwattr $C$DW$979, DW_AT_name("GPIOXINTnSEL")
    7446                      .dwattr $C$DW$979, DW_AT_TI_symbol_name("_GPIOXINTnSEL")
    7447                      .dwattr $C$DW$979, DW_AT_data_member_location[DW_OP_plus_uconst 0x60]
    7448                      .dwattr $C$DW$979, DW_AT_accessibility(DW_ACCESS_public)
    7449              
    7450              $C$DW$980       .dwtag  DW_TAG_member
    7451                      .dwattr $C$DW$980, DW_AT_type(*$C$DW$T$27)
    7452                      .dwattr $C$DW$980, DW_AT_name("rsvd_8")
    7453                      .dwattr $C$DW$980, DW_AT_TI_symbol_name("_rsvd_8")
    7454                      .dwattr $C$DW$980, DW_AT_data_member_location[DW_OP_plus_uconst 0x63]
    7455                      .dwattr $C$DW$980, DW_AT_accessibility(DW_ACCESS_public)
    7456              
    7457              $C$DW$981       .dwtag  DW_TAG_member
    7458                      .dwattr $C$DW$981, DW_AT_type(*$C$DW$T$150)
    7459                      .dwattr $C$DW$981, DW_AT_name("GPIOLPMSEL")
    7460                      .dwattr $C$DW$981, DW_AT_TI_symbol_name("_GPIOLPMSEL")
    7461                      .dwattr $C$DW$981, DW_AT_data_member_location[DW_OP_plus_uconst 0x68]
    7462                      .dwattr $C$DW$981, DW_AT_accessibility(DW_ACCESS_public)
    7463              
    7464                      .dwendtag $C$DW$T$153
    7465              
    7466              $C$DW$T$76      .dwtag  DW_TAG_pointer_type
    7467                      .dwattr $C$DW$T$76, DW_AT_type(*$C$DW$T$153)
    7468                      .dwattr $C$DW$T$76, DW_AT_address_class(0x20)
    7469              
    7470              $C$DW$T$77      .dwtag  DW_TAG_typedef
    7471                      .dwattr $C$DW$T$77, DW_AT_name("GPIO_Handle")
    7472                      .dwattr $C$DW$T$77, DW_AT_type(*$C$DW$T$76)
    7473                      .dwattr $C$DW$T$77, DW_AT_language(DW_LANG_C)
    7474              
    7475              
    7476              $C$DW$T$155     .dwtag  DW_TAG_structure_type
    7477                      .dwattr $C$DW$T$155, DW_AT_name("_HAL_AdcData_t_")
    7478                      .dwattr $C$DW$T$155, DW_AT_byte_size(0x0e)
    7479              $C$DW$982       .dwtag  DW_TAG_member
    7480                      .dwattr $C$DW$982, DW_AT_type(*$C$DW$T$154)
    7481                      .dwattr $C$DW$982, DW_AT_name("I")
    7482                      .dwattr $C$DW$982, DW_AT_TI_symbol_name("_I")
    7483                      .dwattr $C$DW$982, DW_AT_data_member_location[DW_OP_plus_uconst 0x0]
    7484                      .dwattr $C$DW$982, DW_AT_accessibility(DW_ACCESS_public)
    7485              
    7486              $C$DW$983       .dwtag  DW_TAG_member
    7487                      .dwattr $C$DW$983, DW_AT_type(*$C$DW$T$154)
    7488                      .dwattr $C$DW$983, DW_AT_name("V")
    7489                      .dwattr $C$DW$983, DW_AT_TI_symbol_name("_V")
TMS320C2000 Assembler PC v18.1.2 Sun Jun 17 14:52:32 2018

Tools Copyright (c) 1996-2017 Texas Instruments Incorporated
C:\Users\haowp\AppData\Local\Temp\{81472915-7FA4-430D-8ACB-BFB8F401620C} PAGE  142

    7490                      .dwattr $C$DW$983, DW_AT_data_member_location[DW_OP_plus_uconst 0x6]
    7491                      .dwattr $C$DW$983, DW_AT_accessibility(DW_ACCESS_public)
    7492              
    7493              $C$DW$984       .dwtag  DW_TAG_member
    7494                      .dwattr $C$DW$984, DW_AT_type(*$C$DW$T$31)
    7495                      .dwattr $C$DW$984, DW_AT_name("dcBus")
    7496                      .dwattr $C$DW$984, DW_AT_TI_symbol_name("_dcBus")
    7497                      .dwattr $C$DW$984, DW_AT_data_member_location[DW_OP_plus_uconst 0xc]
    7498                      .dwattr $C$DW$984, DW_AT_accessibility(DW_ACCESS_public)
    7499              
    7500                      .dwendtag $C$DW$T$155
    7501              
    7502              $C$DW$T$185     .dwtag  DW_TAG_typedef
    7503                      .dwattr $C$DW$T$185, DW_AT_name("HAL_AdcData_t")
    7504                      .dwattr $C$DW$T$185, DW_AT_type(*$C$DW$T$155)
    7505                      .dwattr $C$DW$T$185, DW_AT_language(DW_LANG_C)
    7506              
    7507              $C$DW$985       .dwtag  DW_TAG_TI_far_type
    7508                      .dwattr $C$DW$985, DW_AT_type(*$C$DW$T$185)
    7509              
    7510              $C$DW$T$280     .dwtag  DW_TAG_const_type
    7511                      .dwattr $C$DW$T$280, DW_AT_type(*$C$DW$985)
    7512              
    7513              $C$DW$T$281     .dwtag  DW_TAG_pointer_type
    7514                      .dwattr $C$DW$T$281, DW_AT_type(*$C$DW$T$280)
    7515                      .dwattr $C$DW$T$281, DW_AT_address_class(0x20)
    7516              
    7517              $C$DW$T$282     .dwtag  DW_TAG_pointer_type
    7518                      .dwattr $C$DW$T$282, DW_AT_type(*$C$DW$T$185)
    7519                      .dwattr $C$DW$T$282, DW_AT_address_class(0x20)
    7520              
    7521              
    7522              $C$DW$T$190     .dwtag  DW_TAG_structure_type
    7523                      .dwattr $C$DW$T$190, DW_AT_name("_HAL_Obj_")
    7524                      .dwattr $C$DW$T$190, DW_AT_byte_size(0xc2)
    7525              $C$DW$986       .dwtag  DW_TAG_member
    7526                      .dwattr $C$DW$986, DW_AT_type(*$C$DW$T$157)
    7527                      .dwattr $C$DW$986, DW_AT_name("adcHandle")
    7528                      .dwattr $C$DW$986, DW_AT_TI_symbol_name("_adcHandle")
    7529                      .dwattr $C$DW$986, DW_AT_data_member_location[DW_OP_plus_uconst 0x0]
    7530                      .dwattr $C$DW$986, DW_AT_accessibility(DW_ACCESS_public)
    7531              
    7532              $C$DW$987       .dwtag  DW_TAG_member
    7533                      .dwattr $C$DW$987, DW_AT_type(*$C$DW$T$159)
    7534                      .dwattr $C$DW$987, DW_AT_name("clkHandle")
    7535                      .dwattr $C$DW$987, DW_AT_TI_symbol_name("_clkHandle")
    7536                      .dwattr $C$DW$987, DW_AT_data_member_location[DW_OP_plus_uconst 0x2]
    7537                      .dwattr $C$DW$987, DW_AT_accessibility(DW_ACCESS_public)
    7538              
    7539              $C$DW$988       .dwtag  DW_TAG_member
    7540                      .dwattr $C$DW$988, DW_AT_type(*$C$DW$T$161)
    7541                      .dwattr $C$DW$988, DW_AT_name("cpuHandle")
    7542                      .dwattr $C$DW$988, DW_AT_TI_symbol_name("_cpuHandle")
    7543                      .dwattr $C$DW$988, DW_AT_data_member_location[DW_OP_plus_uconst 0x4]
    7544                      .dwattr $C$DW$988, DW_AT_accessibility(DW_ACCESS_public)
TMS320C2000 Assembler PC v18.1.2 Sun Jun 17 14:52:32 2018

Tools Copyright (c) 1996-2017 Texas Instruments Incorporated
C:\Users\haowp\AppData\Local\Temp\{81472915-7FA4-430D-8ACB-BFB8F401620C} PAGE  143

    7545              
    7546              $C$DW$989       .dwtag  DW_TAG_member
    7547                      .dwattr $C$DW$989, DW_AT_type(*$C$DW$T$163)
    7548                      .dwattr $C$DW$989, DW_AT_name("flashHandle")
    7549                      .dwattr $C$DW$989, DW_AT_TI_symbol_name("_flashHandle")
    7550                      .dwattr $C$DW$989, DW_AT_data_member_location[DW_OP_plus_uconst 0x6]
    7551                      .dwattr $C$DW$989, DW_AT_accessibility(DW_ACCESS_public)
    7552              
    7553              $C$DW$990       .dwtag  DW_TAG_member
    7554                      .dwattr $C$DW$990, DW_AT_type(*$C$DW$T$77)
    7555                      .dwattr $C$DW$990, DW_AT_name("gpioHandle")
    7556                      .dwattr $C$DW$990, DW_AT_TI_symbol_name("_gpioHandle")
    7557                      .dwattr $C$DW$990, DW_AT_data_member_location[DW_OP_plus_uconst 0x8]
    7558                      .dwattr $C$DW$990, DW_AT_accessibility(DW_ACCESS_public)
    7559              
    7560              $C$DW$991       .dwtag  DW_TAG_member
    7561                      .dwattr $C$DW$991, DW_AT_type(*$C$DW$T$166)
    7562                      .dwattr $C$DW$991, DW_AT_name("offsetHandle_I")
    7563                      .dwattr $C$DW$991, DW_AT_TI_symbol_name("_offsetHandle_I")
    7564                      .dwattr $C$DW$991, DW_AT_data_member_location[DW_OP_plus_uconst 0xa]
    7565                      .dwattr $C$DW$991, DW_AT_accessibility(DW_ACCESS_public)
    7566              
    7567              $C$DW$992       .dwtag  DW_TAG_member
    7568                      .dwattr $C$DW$992, DW_AT_type(*$C$DW$T$168)
    7569                      .dwattr $C$DW$992, DW_AT_name("offset_I")
    7570                      .dwattr $C$DW$992, DW_AT_TI_symbol_name("_offset_I")
    7571                      .dwattr $C$DW$992, DW_AT_data_member_location[DW_OP_plus_uconst 0x10]
    7572                      .dwattr $C$DW$992, DW_AT_accessibility(DW_ACCESS_public)
    7573              
    7574              $C$DW$993       .dwtag  DW_TAG_member
    7575                      .dwattr $C$DW$993, DW_AT_type(*$C$DW$T$166)
    7576                      .dwattr $C$DW$993, DW_AT_name("offsetHandle_V")
    7577                      .dwattr $C$DW$993, DW_AT_TI_symbol_name("_offsetHandle_V")
    7578                      .dwattr $C$DW$993, DW_AT_data_member_location[DW_OP_plus_uconst 0x40]
    7579                      .dwattr $C$DW$993, DW_AT_accessibility(DW_ACCESS_public)
    7580              
    7581              $C$DW$994       .dwtag  DW_TAG_member
    7582                      .dwattr $C$DW$994, DW_AT_type(*$C$DW$T$168)
    7583                      .dwattr $C$DW$994, DW_AT_name("offset_V")
    7584                      .dwattr $C$DW$994, DW_AT_TI_symbol_name("_offset_V")
    7585                      .dwattr $C$DW$994, DW_AT_data_member_location[DW_OP_plus_uconst 0x46]
    7586                      .dwattr $C$DW$994, DW_AT_accessibility(DW_ACCESS_public)
    7587              
    7588              $C$DW$995       .dwtag  DW_TAG_member
    7589                      .dwattr $C$DW$995, DW_AT_type(*$C$DW$T$170)
    7590                      .dwattr $C$DW$995, DW_AT_name("oscHandle")
    7591                      .dwattr $C$DW$995, DW_AT_TI_symbol_name("_oscHandle")
    7592                      .dwattr $C$DW$995, DW_AT_data_member_location[DW_OP_plus_uconst 0x76]
    7593                      .dwattr $C$DW$995, DW_AT_accessibility(DW_ACCESS_public)
    7594              
    7595              $C$DW$996       .dwtag  DW_TAG_member
    7596                      .dwattr $C$DW$996, DW_AT_type(*$C$DW$T$172)
    7597                      .dwattr $C$DW$996, DW_AT_name("pieHandle")
    7598                      .dwattr $C$DW$996, DW_AT_TI_symbol_name("_pieHandle")
    7599                      .dwattr $C$DW$996, DW_AT_data_member_location[DW_OP_plus_uconst 0x78]
TMS320C2000 Assembler PC v18.1.2 Sun Jun 17 14:52:32 2018

Tools Copyright (c) 1996-2017 Texas Instruments Incorporated
C:\Users\haowp\AppData\Local\Temp\{81472915-7FA4-430D-8ACB-BFB8F401620C} PAGE  144

    7600                      .dwattr $C$DW$996, DW_AT_accessibility(DW_ACCESS_public)
    7601              
    7602              $C$DW$997       .dwtag  DW_TAG_member
    7603                      .dwattr $C$DW$997, DW_AT_type(*$C$DW$T$174)
    7604                      .dwattr $C$DW$997, DW_AT_name("pllHandle")
    7605                      .dwattr $C$DW$997, DW_AT_TI_symbol_name("_pllHandle")
    7606                      .dwattr $C$DW$997, DW_AT_data_member_location[DW_OP_plus_uconst 0x7a]
    7607                      .dwattr $C$DW$997, DW_AT_accessibility(DW_ACCESS_public)
    7608              
    7609              $C$DW$998       .dwtag  DW_TAG_member
    7610                      .dwattr $C$DW$998, DW_AT_type(*$C$DW$T$177)
    7611                      .dwattr $C$DW$998, DW_AT_name("pwmHandle")
    7612                      .dwattr $C$DW$998, DW_AT_TI_symbol_name("_pwmHandle")
    7613                      .dwattr $C$DW$998, DW_AT_data_member_location[DW_OP_plus_uconst 0x7c]
    7614                      .dwattr $C$DW$998, DW_AT_accessibility(DW_ACCESS_public)
    7615              
    7616              $C$DW$999       .dwtag  DW_TAG_member
    7617                      .dwattr $C$DW$999, DW_AT_type(*$C$DW$T$177)
    7618                      .dwattr $C$DW$999, DW_AT_name("pwmDacHandle")
    7619                      .dwattr $C$DW$999, DW_AT_TI_symbol_name("_pwmDacHandle")
    7620                      .dwattr $C$DW$999, DW_AT_data_member_location[DW_OP_plus_uconst 0x82]
    7621                      .dwattr $C$DW$999, DW_AT_accessibility(DW_ACCESS_public)
    7622              
    7623              $C$DW$1000      .dwtag  DW_TAG_member
    7624                      .dwattr $C$DW$1000, DW_AT_type(*$C$DW$T$179)
    7625                      .dwattr $C$DW$1000, DW_AT_name("pwrHandle")
    7626                      .dwattr $C$DW$1000, DW_AT_TI_symbol_name("_pwrHandle")
    7627                      .dwattr $C$DW$1000, DW_AT_data_member_location[DW_OP_plus_uconst 0x88]
    7628                      .dwattr $C$DW$1000, DW_AT_accessibility(DW_ACCESS_public)
    7629              
    7630              $C$DW$1001      .dwtag  DW_TAG_member
    7631                      .dwattr $C$DW$1001, DW_AT_type(*$C$DW$T$182)
    7632                      .dwattr $C$DW$1001, DW_AT_name("timerHandle")
    7633                      .dwattr $C$DW$1001, DW_AT_TI_symbol_name("_timerHandle")
    7634                      .dwattr $C$DW$1001, DW_AT_data_member_location[DW_OP_plus_uconst 0x8a]
    7635                      .dwattr $C$DW$1001, DW_AT_accessibility(DW_ACCESS_public)
    7636              
    7637              $C$DW$1002      .dwtag  DW_TAG_member
    7638                      .dwattr $C$DW$1002, DW_AT_type(*$C$DW$T$184)
    7639                      .dwattr $C$DW$1002, DW_AT_name("wdogHandle")
    7640                      .dwattr $C$DW$1002, DW_AT_TI_symbol_name("_wdogHandle")
    7641                      .dwattr $C$DW$1002, DW_AT_data_member_location[DW_OP_plus_uconst 0x90]
    7642                      .dwattr $C$DW$1002, DW_AT_accessibility(DW_ACCESS_public)
    7643              
    7644              $C$DW$1003      .dwtag  DW_TAG_member
    7645                      .dwattr $C$DW$1003, DW_AT_type(*$C$DW$T$185)
    7646                      .dwattr $C$DW$1003, DW_AT_name("adcBias")
    7647                      .dwattr $C$DW$1003, DW_AT_TI_symbol_name("_adcBias")
    7648                      .dwattr $C$DW$1003, DW_AT_data_member_location[DW_OP_plus_uconst 0x92]
    7649                      .dwattr $C$DW$1003, DW_AT_accessibility(DW_ACCESS_public)
    7650              
    7651              $C$DW$1004      .dwtag  DW_TAG_member
    7652                      .dwattr $C$DW$1004, DW_AT_type(*$C$DW$T$31)
    7653                      .dwattr $C$DW$1004, DW_AT_name("current_sf")
    7654                      .dwattr $C$DW$1004, DW_AT_TI_symbol_name("_current_sf")
TMS320C2000 Assembler PC v18.1.2 Sun Jun 17 14:52:32 2018

Tools Copyright (c) 1996-2017 Texas Instruments Incorporated
C:\Users\haowp\AppData\Local\Temp\{81472915-7FA4-430D-8ACB-BFB8F401620C} PAGE  145

    7655                      .dwattr $C$DW$1004, DW_AT_data_member_location[DW_OP_plus_uconst 0xa0]
    7656                      .dwattr $C$DW$1004, DW_AT_accessibility(DW_ACCESS_public)
    7657              
    7658              $C$DW$1005      .dwtag  DW_TAG_member
    7659                      .dwattr $C$DW$1005, DW_AT_type(*$C$DW$T$31)
    7660                      .dwattr $C$DW$1005, DW_AT_name("voltage_sf")
    7661                      .dwattr $C$DW$1005, DW_AT_TI_symbol_name("_voltage_sf")
    7662                      .dwattr $C$DW$1005, DW_AT_data_member_location[DW_OP_plus_uconst 0xa2]
    7663                      .dwattr $C$DW$1005, DW_AT_accessibility(DW_ACCESS_public)
    7664              
    7665              $C$DW$1006      .dwtag  DW_TAG_member
    7666                      .dwattr $C$DW$1006, DW_AT_type(*$C$DW$T$32)
    7667                      .dwattr $C$DW$1006, DW_AT_name("numCurrentSensors")
    7668                      .dwattr $C$DW$1006, DW_AT_TI_symbol_name("_numCurrentSensors")
    7669                      .dwattr $C$DW$1006, DW_AT_data_member_location[DW_OP_plus_uconst 0xa4]
    7670                      .dwattr $C$DW$1006, DW_AT_accessibility(DW_ACCESS_public)
    7671              
    7672              $C$DW$1007      .dwtag  DW_TAG_member
    7673                      .dwattr $C$DW$1007, DW_AT_type(*$C$DW$T$32)
    7674                      .dwattr $C$DW$1007, DW_AT_name("numVoltageSensors")
    7675                      .dwattr $C$DW$1007, DW_AT_TI_symbol_name("_numVoltageSensors")
    7676                      .dwattr $C$DW$1007, DW_AT_data_member_location[DW_OP_plus_uconst 0xa5]
    7677                      .dwattr $C$DW$1007, DW_AT_accessibility(DW_ACCESS_public)
    7678              
    7679              $C$DW$1008      .dwtag  DW_TAG_member
    7680                      .dwattr $C$DW$1008, DW_AT_type(*$C$DW$T$75)
    7681                      .dwattr $C$DW$1008, DW_AT_name("spiAHandle")
    7682                      .dwattr $C$DW$1008, DW_AT_TI_symbol_name("_spiAHandle")
    7683                      .dwattr $C$DW$1008, DW_AT_data_member_location[DW_OP_plus_uconst 0xa6]
    7684                      .dwattr $C$DW$1008, DW_AT_accessibility(DW_ACCESS_public)
    7685              
    7686              $C$DW$1009      .dwtag  DW_TAG_member
    7687                      .dwattr $C$DW$1009, DW_AT_type(*$C$DW$T$186)
    7688                      .dwattr $C$DW$1009, DW_AT_name("spiA")
    7689                      .dwattr $C$DW$1009, DW_AT_TI_symbol_name("_spiA")
    7690                      .dwattr $C$DW$1009, DW_AT_data_member_location[DW_OP_plus_uconst 0xa8]
    7691                      .dwattr $C$DW$1009, DW_AT_accessibility(DW_ACCESS_public)
    7692              
    7693              $C$DW$1010      .dwtag  DW_TAG_member
    7694                      .dwattr $C$DW$1010, DW_AT_type(*$C$DW$T$188)
    7695                      .dwattr $C$DW$1010, DW_AT_name("drv8305Handle")
    7696                      .dwattr $C$DW$1010, DW_AT_TI_symbol_name("_drv8305Handle")
    7697                      .dwattr $C$DW$1010, DW_AT_data_member_location[DW_OP_plus_uconst 0xb8]
    7698                      .dwattr $C$DW$1010, DW_AT_accessibility(DW_ACCESS_public)
    7699              
    7700              $C$DW$1011      .dwtag  DW_TAG_member
    7701                      .dwattr $C$DW$1011, DW_AT_type(*$C$DW$T$189)
    7702                      .dwattr $C$DW$1011, DW_AT_name("drv8305")
    7703                      .dwattr $C$DW$1011, DW_AT_TI_symbol_name("_drv8305")
    7704                      .dwattr $C$DW$1011, DW_AT_data_member_location[DW_OP_plus_uconst 0xba]
    7705                      .dwattr $C$DW$1011, DW_AT_accessibility(DW_ACCESS_public)
    7706              
    7707                      .dwendtag $C$DW$T$190
    7708              
    7709              $C$DW$T$284     .dwtag  DW_TAG_typedef
TMS320C2000 Assembler PC v18.1.2 Sun Jun 17 14:52:32 2018

Tools Copyright (c) 1996-2017 Texas Instruments Incorporated
C:\Users\haowp\AppData\Local\Temp\{81472915-7FA4-430D-8ACB-BFB8F401620C} PAGE  146

    7710                      .dwattr $C$DW$T$284, DW_AT_name("HAL_Obj")
    7711                      .dwattr $C$DW$T$284, DW_AT_type(*$C$DW$T$190)
    7712                      .dwattr $C$DW$T$284, DW_AT_language(DW_LANG_C)
    7713              
    7714              $C$DW$T$285     .dwtag  DW_TAG_pointer_type
    7715                      .dwattr $C$DW$T$285, DW_AT_type(*$C$DW$T$190)
    7716                      .dwattr $C$DW$T$285, DW_AT_address_class(0x20)
    7717              
    7718              $C$DW$T$286     .dwtag  DW_TAG_typedef
    7719                      .dwattr $C$DW$T$286, DW_AT_name("HAL_Handle")
    7720                      .dwattr $C$DW$T$286, DW_AT_type(*$C$DW$T$285)
    7721                      .dwattr $C$DW$T$286, DW_AT_language(DW_LANG_C)
    7722              
    7723              
    7724              $C$DW$T$191     .dwtag  DW_TAG_structure_type
    7725                      .dwattr $C$DW$T$191, DW_AT_name("_HAL_PwmData_t_")
    7726                      .dwattr $C$DW$T$191, DW_AT_byte_size(0x06)
    7727              $C$DW$1012      .dwtag  DW_TAG_member
    7728                      .dwattr $C$DW$1012, DW_AT_type(*$C$DW$T$154)
    7729                      .dwattr $C$DW$1012, DW_AT_name("Tabc")
    7730                      .dwattr $C$DW$1012, DW_AT_TI_symbol_name("_Tabc")
    7731                      .dwattr $C$DW$1012, DW_AT_data_member_location[DW_OP_plus_uconst 0x0]
    7732                      .dwattr $C$DW$1012, DW_AT_accessibility(DW_ACCESS_public)
    7733              
    7734                      .dwendtag $C$DW$T$191
    7735              
    7736              $C$DW$T$290     .dwtag  DW_TAG_typedef
    7737                      .dwattr $C$DW$T$290, DW_AT_name("HAL_PwmData_t")
    7738                      .dwattr $C$DW$T$290, DW_AT_type(*$C$DW$T$191)
    7739                      .dwattr $C$DW$T$290, DW_AT_language(DW_LANG_C)
    7740              
    7741              $C$DW$T$291     .dwtag  DW_TAG_pointer_type
    7742                      .dwattr $C$DW$T$291, DW_AT_type(*$C$DW$T$290)
    7743                      .dwattr $C$DW$T$291, DW_AT_address_class(0x20)
    7744              
    7745              
    7746              $C$DW$T$192     .dwtag  DW_TAG_structure_type
    7747                      .dwattr $C$DW$T$192, DW_AT_name("_IPARK_Obj_")
    7748                      .dwattr $C$DW$T$192, DW_AT_byte_size(0x04)
    7749              $C$DW$1013      .dwtag  DW_TAG_member
    7750                      .dwattr $C$DW$1013, DW_AT_type(*$C$DW$T$31)
    7751                      .dwattr $C$DW$1013, DW_AT_name("sinTh")
    7752                      .dwattr $C$DW$1013, DW_AT_TI_symbol_name("_sinTh")
    7753                      .dwattr $C$DW$1013, DW_AT_data_member_location[DW_OP_plus_uconst 0x0]
    7754                      .dwattr $C$DW$1013, DW_AT_accessibility(DW_ACCESS_public)
    7755              
    7756              $C$DW$1014      .dwtag  DW_TAG_member
    7757                      .dwattr $C$DW$1014, DW_AT_type(*$C$DW$T$31)
    7758                      .dwattr $C$DW$1014, DW_AT_name("cosTh")
    7759                      .dwattr $C$DW$1014, DW_AT_TI_symbol_name("_cosTh")
    7760                      .dwattr $C$DW$1014, DW_AT_data_member_location[DW_OP_plus_uconst 0x2]
    7761                      .dwattr $C$DW$1014, DW_AT_accessibility(DW_ACCESS_public)
    7762              
    7763                      .dwendtag $C$DW$T$192
    7764              
TMS320C2000 Assembler PC v18.1.2 Sun Jun 17 14:52:32 2018

Tools Copyright (c) 1996-2017 Texas Instruments Incorporated
C:\Users\haowp\AppData\Local\Temp\{81472915-7FA4-430D-8ACB-BFB8F401620C} PAGE  147

    7765              $C$DW$T$55      .dwtag  DW_TAG_typedef
    7766                      .dwattr $C$DW$T$55, DW_AT_name("IPARK_Obj")
    7767                      .dwattr $C$DW$T$55, DW_AT_type(*$C$DW$T$192)
    7768                      .dwattr $C$DW$T$55, DW_AT_language(DW_LANG_C)
    7769              
    7770              $C$DW$T$53      .dwtag  DW_TAG_pointer_type
    7771                      .dwattr $C$DW$T$53, DW_AT_type(*$C$DW$T$192)
    7772                      .dwattr $C$DW$T$53, DW_AT_address_class(0x20)
    7773              
    7774              $C$DW$T$54      .dwtag  DW_TAG_typedef
    7775                      .dwattr $C$DW$T$54, DW_AT_name("IPARK_Handle")
    7776                      .dwattr $C$DW$T$54, DW_AT_type(*$C$DW$T$53)
    7777                      .dwattr $C$DW$T$54, DW_AT_language(DW_LANG_C)
    7778              
    7779              
    7780              $C$DW$T$194     .dwtag  DW_TAG_structure_type
    7781                      .dwattr $C$DW$T$194, DW_AT_name("_MATH_vec2_")
    7782                      .dwattr $C$DW$T$194, DW_AT_byte_size(0x04)
    7783              $C$DW$1015      .dwtag  DW_TAG_member
    7784                      .dwattr $C$DW$1015, DW_AT_type(*$C$DW$T$193)
    7785                      .dwattr $C$DW$1015, DW_AT_name("value")
    7786                      .dwattr $C$DW$1015, DW_AT_TI_symbol_name("_value")
    7787                      .dwattr $C$DW$1015, DW_AT_data_member_location[DW_OP_plus_uconst 0x0]
    7788                      .dwattr $C$DW$1015, DW_AT_accessibility(DW_ACCESS_public)
    7789              
    7790                      .dwendtag $C$DW$T$194
    7791              
    7792              $C$DW$T$68      .dwtag  DW_TAG_typedef
    7793                      .dwattr $C$DW$T$68, DW_AT_name("MATH_vec2")
    7794                      .dwattr $C$DW$T$68, DW_AT_type(*$C$DW$T$194)
    7795                      .dwattr $C$DW$T$68, DW_AT_language(DW_LANG_C)
    7796              
    7797              
    7798              $C$DW$T$196     .dwtag  DW_TAG_structure_type
    7799                      .dwattr $C$DW$T$196, DW_AT_name("_MATH_vec3_")
    7800                      .dwattr $C$DW$T$196, DW_AT_byte_size(0x06)
    7801              $C$DW$1016      .dwtag  DW_TAG_member
    7802                      .dwattr $C$DW$1016, DW_AT_type(*$C$DW$T$195)
    7803                      .dwattr $C$DW$1016, DW_AT_name("value")
    7804                      .dwattr $C$DW$1016, DW_AT_TI_symbol_name("_value")
    7805                      .dwattr $C$DW$1016, DW_AT_data_member_location[DW_OP_plus_uconst 0x0]
    7806                      .dwattr $C$DW$1016, DW_AT_accessibility(DW_ACCESS_public)
    7807              
    7808                      .dwendtag $C$DW$T$196
    7809              
    7810              $C$DW$T$154     .dwtag  DW_TAG_typedef
    7811                      .dwattr $C$DW$T$154, DW_AT_name("MATH_vec3")
    7812                      .dwattr $C$DW$T$154, DW_AT_type(*$C$DW$T$196)
    7813                      .dwattr $C$DW$T$154, DW_AT_language(DW_LANG_C)
    7814              
    7815              
    7816              $C$DW$T$199     .dwtag  DW_TAG_structure_type
    7817                      .dwattr $C$DW$T$199, DW_AT_name("_MOTOR_Params_")
    7818                      .dwattr $C$DW$T$199, DW_AT_byte_size(0x0e)
    7819              $C$DW$1017      .dwtag  DW_TAG_member
TMS320C2000 Assembler PC v18.1.2 Sun Jun 17 14:52:32 2018

Tools Copyright (c) 1996-2017 Texas Instruments Incorporated
C:\Users\haowp\AppData\Local\Temp\{81472915-7FA4-430D-8ACB-BFB8F401620C} PAGE  148

    7820                      .dwattr $C$DW$1017, DW_AT_type(*$C$DW$T$198)
    7821                      .dwattr $C$DW$1017, DW_AT_name("type")
    7822                      .dwattr $C$DW$1017, DW_AT_TI_symbol_name("_type")
    7823                      .dwattr $C$DW$1017, DW_AT_data_member_location[DW_OP_plus_uconst 0x0]
    7824                      .dwattr $C$DW$1017, DW_AT_accessibility(DW_ACCESS_public)
    7825              
    7826              $C$DW$1018      .dwtag  DW_TAG_member
    7827                      .dwattr $C$DW$1018, DW_AT_type(*$C$DW$T$66)
    7828                      .dwattr $C$DW$1018, DW_AT_name("numPolePairs")
    7829                      .dwattr $C$DW$1018, DW_AT_TI_symbol_name("_numPolePairs")
    7830                      .dwattr $C$DW$1018, DW_AT_data_member_location[DW_OP_plus_uconst 0x1]
    7831                      .dwattr $C$DW$1018, DW_AT_accessibility(DW_ACCESS_public)
    7832              
    7833              $C$DW$1019      .dwtag  DW_TAG_member
    7834                      .dwattr $C$DW$1019, DW_AT_type(*$C$DW$T$67)
    7835                      .dwattr $C$DW$1019, DW_AT_name("Lr_H")
    7836                      .dwattr $C$DW$1019, DW_AT_TI_symbol_name("_Lr_H")
    7837                      .dwattr $C$DW$1019, DW_AT_data_member_location[DW_OP_plus_uconst 0x2]
    7838                      .dwattr $C$DW$1019, DW_AT_accessibility(DW_ACCESS_public)
    7839              
    7840              $C$DW$1020      .dwtag  DW_TAG_member
    7841                      .dwattr $C$DW$1020, DW_AT_type(*$C$DW$T$67)
    7842                      .dwattr $C$DW$1020, DW_AT_name("Ls_d_H")
    7843                      .dwattr $C$DW$1020, DW_AT_TI_symbol_name("_Ls_d_H")
    7844                      .dwattr $C$DW$1020, DW_AT_data_member_location[DW_OP_plus_uconst 0x4]
    7845                      .dwattr $C$DW$1020, DW_AT_accessibility(DW_ACCESS_public)
    7846              
    7847              $C$DW$1021      .dwtag  DW_TAG_member
    7848                      .dwattr $C$DW$1021, DW_AT_type(*$C$DW$T$67)
    7849                      .dwattr $C$DW$1021, DW_AT_name("Ls_q_H")
    7850                      .dwattr $C$DW$1021, DW_AT_TI_symbol_name("_Ls_q_H")
    7851                      .dwattr $C$DW$1021, DW_AT_data_member_location[DW_OP_plus_uconst 0x6]
    7852                      .dwattr $C$DW$1021, DW_AT_accessibility(DW_ACCESS_public)
    7853              
    7854              $C$DW$1022      .dwtag  DW_TAG_member
    7855                      .dwattr $C$DW$1022, DW_AT_type(*$C$DW$T$67)
    7856                      .dwattr $C$DW$1022, DW_AT_name("Rr_Ohm")
    7857                      .dwattr $C$DW$1022, DW_AT_TI_symbol_name("_Rr_Ohm")
    7858                      .dwattr $C$DW$1022, DW_AT_data_member_location[DW_OP_plus_uconst 0x8]
    7859                      .dwattr $C$DW$1022, DW_AT_accessibility(DW_ACCESS_public)
    7860              
    7861              $C$DW$1023      .dwtag  DW_TAG_member
    7862                      .dwattr $C$DW$1023, DW_AT_type(*$C$DW$T$67)
    7863                      .dwattr $C$DW$1023, DW_AT_name("Rs_Ohm")
    7864                      .dwattr $C$DW$1023, DW_AT_TI_symbol_name("_Rs_Ohm")
    7865                      .dwattr $C$DW$1023, DW_AT_data_member_location[DW_OP_plus_uconst 0xa]
    7866                      .dwattr $C$DW$1023, DW_AT_accessibility(DW_ACCESS_public)
    7867              
    7868              $C$DW$1024      .dwtag  DW_TAG_member
    7869                      .dwattr $C$DW$1024, DW_AT_type(*$C$DW$T$67)
    7870                      .dwattr $C$DW$1024, DW_AT_name("ratedFlux_VpHz")
    7871                      .dwattr $C$DW$1024, DW_AT_TI_symbol_name("_ratedFlux_VpHz")
    7872                      .dwattr $C$DW$1024, DW_AT_data_member_location[DW_OP_plus_uconst 0xc]
    7873                      .dwattr $C$DW$1024, DW_AT_accessibility(DW_ACCESS_public)
    7874              
TMS320C2000 Assembler PC v18.1.2 Sun Jun 17 14:52:32 2018

Tools Copyright (c) 1996-2017 Texas Instruments Incorporated
C:\Users\haowp\AppData\Local\Temp\{81472915-7FA4-430D-8ACB-BFB8F401620C} PAGE  149

    7875                      .dwendtag $C$DW$T$199
    7876              
    7877              $C$DW$T$62      .dwtag  DW_TAG_typedef
    7878                      .dwattr $C$DW$T$62, DW_AT_name("MOTOR_Params")
    7879                      .dwattr $C$DW$T$62, DW_AT_type(*$C$DW$T$199)
    7880                      .dwattr $C$DW$T$62, DW_AT_language(DW_LANG_C)
    7881              
    7882              
    7883              $C$DW$T$204     .dwtag  DW_TAG_structure_type
    7884                      .dwattr $C$DW$T$204, DW_AT_name("_MOTOR_Vars_t_")
    7885                      .dwattr $C$DW$T$204, DW_AT_byte_size(0x80)
    7886              $C$DW$1025      .dwtag  DW_TAG_member
    7887                      .dwattr $C$DW$1025, DW_AT_type(*$C$DW$T$69)
    7888                      .dwattr $C$DW$1025, DW_AT_name("Flag_enableSys")
    7889                      .dwattr $C$DW$1025, DW_AT_TI_symbol_name("_Flag_enableSys")
    7890                      .dwattr $C$DW$1025, DW_AT_data_member_location[DW_OP_plus_uconst 0x0]
    7891                      .dwattr $C$DW$1025, DW_AT_accessibility(DW_ACCESS_public)
    7892              
    7893              $C$DW$1026      .dwtag  DW_TAG_member
    7894                      .dwattr $C$DW$1026, DW_AT_type(*$C$DW$T$69)
    7895                      .dwattr $C$DW$1026, DW_AT_name("Flag_Run_Identify")
    7896                      .dwattr $C$DW$1026, DW_AT_TI_symbol_name("_Flag_Run_Identify")
    7897                      .dwattr $C$DW$1026, DW_AT_data_member_location[DW_OP_plus_uconst 0x1]
    7898                      .dwattr $C$DW$1026, DW_AT_accessibility(DW_ACCESS_public)
    7899              
    7900              $C$DW$1027      .dwtag  DW_TAG_member
    7901                      .dwattr $C$DW$1027, DW_AT_type(*$C$DW$T$69)
    7902                      .dwattr $C$DW$1027, DW_AT_name("Flag_MotorIdentified")
    7903                      .dwattr $C$DW$1027, DW_AT_TI_symbol_name("_Flag_MotorIdentified")
    7904                      .dwattr $C$DW$1027, DW_AT_data_member_location[DW_OP_plus_uconst 0x2]
    7905                      .dwattr $C$DW$1027, DW_AT_accessibility(DW_ACCESS_public)
    7906              
    7907              $C$DW$1028      .dwtag  DW_TAG_member
    7908                      .dwattr $C$DW$1028, DW_AT_type(*$C$DW$T$69)
    7909                      .dwattr $C$DW$1028, DW_AT_name("Flag_enableForceAngle")
    7910                      .dwattr $C$DW$1028, DW_AT_TI_symbol_name("_Flag_enableForceAngle")
    7911                      .dwattr $C$DW$1028, DW_AT_data_member_location[DW_OP_plus_uconst 0x3]
    7912                      .dwattr $C$DW$1028, DW_AT_accessibility(DW_ACCESS_public)
    7913              
    7914              $C$DW$1029      .dwtag  DW_TAG_member
    7915                      .dwattr $C$DW$1029, DW_AT_type(*$C$DW$T$69)
    7916                      .dwattr $C$DW$1029, DW_AT_name("Flag_enableFieldWeakening")
    7917                      .dwattr $C$DW$1029, DW_AT_TI_symbol_name("_Flag_enableFieldWeakening")
    7918                      .dwattr $C$DW$1029, DW_AT_data_member_location[DW_OP_plus_uconst 0x4]
    7919                      .dwattr $C$DW$1029, DW_AT_accessibility(DW_ACCESS_public)
    7920              
    7921              $C$DW$1030      .dwtag  DW_TAG_member
    7922                      .dwattr $C$DW$1030, DW_AT_type(*$C$DW$T$69)
    7923                      .dwattr $C$DW$1030, DW_AT_name("Flag_enableRsRecalc")
    7924                      .dwattr $C$DW$1030, DW_AT_TI_symbol_name("_Flag_enableRsRecalc")
    7925                      .dwattr $C$DW$1030, DW_AT_data_member_location[DW_OP_plus_uconst 0x5]
    7926                      .dwattr $C$DW$1030, DW_AT_accessibility(DW_ACCESS_public)
    7927              
    7928              $C$DW$1031      .dwtag  DW_TAG_member
    7929                      .dwattr $C$DW$1031, DW_AT_type(*$C$DW$T$69)
TMS320C2000 Assembler PC v18.1.2 Sun Jun 17 14:52:32 2018

Tools Copyright (c) 1996-2017 Texas Instruments Incorporated
C:\Users\haowp\AppData\Local\Temp\{81472915-7FA4-430D-8ACB-BFB8F401620C} PAGE  150

    7930                      .dwattr $C$DW$1031, DW_AT_name("Flag_enableUserParams")
    7931                      .dwattr $C$DW$1031, DW_AT_TI_symbol_name("_Flag_enableUserParams")
    7932                      .dwattr $C$DW$1031, DW_AT_data_member_location[DW_OP_plus_uconst 0x6]
    7933                      .dwattr $C$DW$1031, DW_AT_accessibility(DW_ACCESS_public)
    7934              
    7935              $C$DW$1032      .dwtag  DW_TAG_member
    7936                      .dwattr $C$DW$1032, DW_AT_type(*$C$DW$T$69)
    7937                      .dwattr $C$DW$1032, DW_AT_name("Flag_enableOffsetcalc")
    7938                      .dwattr $C$DW$1032, DW_AT_TI_symbol_name("_Flag_enableOffsetcalc")
    7939                      .dwattr $C$DW$1032, DW_AT_data_member_location[DW_OP_plus_uconst 0x7]
    7940                      .dwattr $C$DW$1032, DW_AT_accessibility(DW_ACCESS_public)
    7941              
    7942              $C$DW$1033      .dwtag  DW_TAG_member
    7943                      .dwattr $C$DW$1033, DW_AT_type(*$C$DW$T$69)
    7944                      .dwattr $C$DW$1033, DW_AT_name("Flag_enablePowerWarp")
    7945                      .dwattr $C$DW$1033, DW_AT_TI_symbol_name("_Flag_enablePowerWarp")
    7946                      .dwattr $C$DW$1033, DW_AT_data_member_location[DW_OP_plus_uconst 0x8]
    7947                      .dwattr $C$DW$1033, DW_AT_accessibility(DW_ACCESS_public)
    7948              
    7949              $C$DW$1034      .dwtag  DW_TAG_member
    7950                      .dwattr $C$DW$1034, DW_AT_type(*$C$DW$T$69)
    7951                      .dwattr $C$DW$1034, DW_AT_name("Flag_enableSpeedCtrl")
    7952                      .dwattr $C$DW$1034, DW_AT_TI_symbol_name("_Flag_enableSpeedCtrl")
    7953                      .dwattr $C$DW$1034, DW_AT_data_member_location[DW_OP_plus_uconst 0x9]
    7954                      .dwattr $C$DW$1034, DW_AT_accessibility(DW_ACCESS_public)
    7955              
    7956              $C$DW$1035      .dwtag  DW_TAG_member
    7957                      .dwattr $C$DW$1035, DW_AT_type(*$C$DW$T$69)
    7958                      .dwattr $C$DW$1035, DW_AT_name("Flag_enableRun")
    7959                      .dwattr $C$DW$1035, DW_AT_TI_symbol_name("_Flag_enableRun")
    7960                      .dwattr $C$DW$1035, DW_AT_data_member_location[DW_OP_plus_uconst 0xa]
    7961                      .dwattr $C$DW$1035, DW_AT_accessibility(DW_ACCESS_public)
    7962              
    7963              $C$DW$1036      .dwtag  DW_TAG_member
    7964                      .dwattr $C$DW$1036, DW_AT_type(*$C$DW$T$69)
    7965                      .dwattr $C$DW$1036, DW_AT_name("Flag_RunState")
    7966                      .dwattr $C$DW$1036, DW_AT_TI_symbol_name("_Flag_RunState")
    7967                      .dwattr $C$DW$1036, DW_AT_data_member_location[DW_OP_plus_uconst 0xb]
    7968                      .dwattr $C$DW$1036, DW_AT_accessibility(DW_ACCESS_public)
    7969              
    7970              $C$DW$1037      .dwtag  DW_TAG_member
    7971                      .dwattr $C$DW$1037, DW_AT_type(*$C$DW$T$69)
    7972                      .dwattr $C$DW$1037, DW_AT_name("Flag_enableFlyingStart")
    7973                      .dwattr $C$DW$1037, DW_AT_TI_symbol_name("_Flag_enableFlyingStart")
    7974                      .dwattr $C$DW$1037, DW_AT_data_member_location[DW_OP_plus_uconst 0xc]
    7975                      .dwattr $C$DW$1037, DW_AT_accessibility(DW_ACCESS_public)
    7976              
    7977              $C$DW$1038      .dwtag  DW_TAG_member
    7978                      .dwattr $C$DW$1038, DW_AT_type(*$C$DW$T$39)
    7979                      .dwattr $C$DW$1038, DW_AT_name("CtrlState")
    7980                      .dwattr $C$DW$1038, DW_AT_TI_symbol_name("_CtrlState")
    7981                      .dwattr $C$DW$1038, DW_AT_data_member_location[DW_OP_plus_uconst 0xd]
    7982                      .dwattr $C$DW$1038, DW_AT_accessibility(DW_ACCESS_public)
    7983              
    7984              $C$DW$1039      .dwtag  DW_TAG_member
TMS320C2000 Assembler PC v18.1.2 Sun Jun 17 14:52:32 2018

Tools Copyright (c) 1996-2017 Texas Instruments Incorporated
C:\Users\haowp\AppData\Local\Temp\{81472915-7FA4-430D-8ACB-BFB8F401620C} PAGE  151

    7985                      .dwattr $C$DW$1039, DW_AT_type(*$C$DW$T$201)
    7986                      .dwattr $C$DW$1039, DW_AT_name("EstState")
    7987                      .dwattr $C$DW$1039, DW_AT_TI_symbol_name("_EstState")
    7988                      .dwattr $C$DW$1039, DW_AT_data_member_location[DW_OP_plus_uconst 0xe]
    7989                      .dwattr $C$DW$1039, DW_AT_accessibility(DW_ACCESS_public)
    7990              
    7991              $C$DW$1040      .dwtag  DW_TAG_member
    7992                      .dwattr $C$DW$1040, DW_AT_type(*$C$DW$T$203)
    7993                      .dwattr $C$DW$1040, DW_AT_name("UserErrorCode")
    7994                      .dwattr $C$DW$1040, DW_AT_TI_symbol_name("_UserErrorCode")
    7995                      .dwattr $C$DW$1040, DW_AT_data_member_location[DW_OP_plus_uconst 0xf]
    7996                      .dwattr $C$DW$1040, DW_AT_accessibility(DW_ACCESS_public)
    7997              
    7998              $C$DW$1041      .dwtag  DW_TAG_member
    7999                      .dwattr $C$DW$1041, DW_AT_type(*$C$DW$T$37)
    8000                      .dwattr $C$DW$1041, DW_AT_name("CtrlVersion")
    8001                      .dwattr $C$DW$1041, DW_AT_TI_symbol_name("_CtrlVersion")
    8002                      .dwattr $C$DW$1041, DW_AT_data_member_location[DW_OP_plus_uconst 0x10]
    8003                      .dwattr $C$DW$1041, DW_AT_accessibility(DW_ACCESS_public)
    8004              
    8005              $C$DW$1042      .dwtag  DW_TAG_member
    8006                      .dwattr $C$DW$1042, DW_AT_type(*$C$DW$T$31)
    8007                      .dwattr $C$DW$1042, DW_AT_name("IdRef_A")
    8008                      .dwattr $C$DW$1042, DW_AT_TI_symbol_name("_IdRef_A")
    8009                      .dwattr $C$DW$1042, DW_AT_data_member_location[DW_OP_plus_uconst 0x14]
    8010                      .dwattr $C$DW$1042, DW_AT_accessibility(DW_ACCESS_public)
    8011              
    8012              $C$DW$1043      .dwtag  DW_TAG_member
    8013                      .dwattr $C$DW$1043, DW_AT_type(*$C$DW$T$31)
    8014                      .dwattr $C$DW$1043, DW_AT_name("IqRef_A")
    8015                      .dwattr $C$DW$1043, DW_AT_TI_symbol_name("_IqRef_A")
    8016                      .dwattr $C$DW$1043, DW_AT_data_member_location[DW_OP_plus_uconst 0x16]
    8017                      .dwattr $C$DW$1043, DW_AT_accessibility(DW_ACCESS_public)
    8018              
    8019              $C$DW$1044      .dwtag  DW_TAG_member
    8020                      .dwattr $C$DW$1044, DW_AT_type(*$C$DW$T$31)
    8021                      .dwattr $C$DW$1044, DW_AT_name("SpeedRef_pu")
    8022                      .dwattr $C$DW$1044, DW_AT_TI_symbol_name("_SpeedRef_pu")
    8023                      .dwattr $C$DW$1044, DW_AT_data_member_location[DW_OP_plus_uconst 0x18]
    8024                      .dwattr $C$DW$1044, DW_AT_accessibility(DW_ACCESS_public)
    8025              
    8026              $C$DW$1045      .dwtag  DW_TAG_member
    8027                      .dwattr $C$DW$1045, DW_AT_type(*$C$DW$T$31)
    8028                      .dwattr $C$DW$1045, DW_AT_name("SpeedRef_krpm")
    8029                      .dwattr $C$DW$1045, DW_AT_TI_symbol_name("_SpeedRef_krpm")
    8030                      .dwattr $C$DW$1045, DW_AT_data_member_location[DW_OP_plus_uconst 0x1a]
    8031                      .dwattr $C$DW$1045, DW_AT_accessibility(DW_ACCESS_public)
    8032              
    8033              $C$DW$1046      .dwtag  DW_TAG_member
    8034                      .dwattr $C$DW$1046, DW_AT_type(*$C$DW$T$31)
    8035                      .dwattr $C$DW$1046, DW_AT_name("SpeedTraj_krpm")
    8036                      .dwattr $C$DW$1046, DW_AT_TI_symbol_name("_SpeedTraj_krpm")
    8037                      .dwattr $C$DW$1046, DW_AT_data_member_location[DW_OP_plus_uconst 0x1c]
    8038                      .dwattr $C$DW$1046, DW_AT_accessibility(DW_ACCESS_public)
    8039              
TMS320C2000 Assembler PC v18.1.2 Sun Jun 17 14:52:32 2018

Tools Copyright (c) 1996-2017 Texas Instruments Incorporated
C:\Users\haowp\AppData\Local\Temp\{81472915-7FA4-430D-8ACB-BFB8F401620C} PAGE  152

    8040              $C$DW$1047      .dwtag  DW_TAG_member
    8041                      .dwattr $C$DW$1047, DW_AT_type(*$C$DW$T$31)
    8042                      .dwattr $C$DW$1047, DW_AT_name("MaxAccel_krpmps")
    8043                      .dwattr $C$DW$1047, DW_AT_TI_symbol_name("_MaxAccel_krpmps")
    8044                      .dwattr $C$DW$1047, DW_AT_data_member_location[DW_OP_plus_uconst 0x1e]
    8045                      .dwattr $C$DW$1047, DW_AT_accessibility(DW_ACCESS_public)
    8046              
    8047              $C$DW$1048      .dwtag  DW_TAG_member
    8048                      .dwattr $C$DW$1048, DW_AT_type(*$C$DW$T$31)
    8049                      .dwattr $C$DW$1048, DW_AT_name("Speed_krpm")
    8050                      .dwattr $C$DW$1048, DW_AT_TI_symbol_name("_Speed_krpm")
    8051                      .dwattr $C$DW$1048, DW_AT_data_member_location[DW_OP_plus_uconst 0x20]
    8052                      .dwattr $C$DW$1048, DW_AT_accessibility(DW_ACCESS_public)
    8053              
    8054              $C$DW$1049      .dwtag  DW_TAG_member
    8055                      .dwattr $C$DW$1049, DW_AT_type(*$C$DW$T$31)
    8056                      .dwattr $C$DW$1049, DW_AT_name("OverModulation")
    8057                      .dwattr $C$DW$1049, DW_AT_TI_symbol_name("_OverModulation")
    8058                      .dwattr $C$DW$1049, DW_AT_data_member_location[DW_OP_plus_uconst 0x22]
    8059                      .dwattr $C$DW$1049, DW_AT_accessibility(DW_ACCESS_public)
    8060              
    8061              $C$DW$1050      .dwtag  DW_TAG_member
    8062                      .dwattr $C$DW$1050, DW_AT_type(*$C$DW$T$31)
    8063                      .dwattr $C$DW$1050, DW_AT_name("RsOnLineCurrent_A")
    8064                      .dwattr $C$DW$1050, DW_AT_TI_symbol_name("_RsOnLineCurrent_A")
    8065                      .dwattr $C$DW$1050, DW_AT_data_member_location[DW_OP_plus_uconst 0x24]
    8066                      .dwattr $C$DW$1050, DW_AT_accessibility(DW_ACCESS_public)
    8067              
    8068              $C$DW$1051      .dwtag  DW_TAG_member
    8069                      .dwattr $C$DW$1051, DW_AT_type(*$C$DW$T$31)
    8070                      .dwattr $C$DW$1051, DW_AT_name("SvgenMaxModulation_ticks")
    8071                      .dwattr $C$DW$1051, DW_AT_TI_symbol_name("_SvgenMaxModulation_ticks")
    8072                      .dwattr $C$DW$1051, DW_AT_data_member_location[DW_OP_plus_uconst 0x26]
    8073                      .dwattr $C$DW$1051, DW_AT_accessibility(DW_ACCESS_public)
    8074              
    8075              $C$DW$1052      .dwtag  DW_TAG_member
    8076                      .dwattr $C$DW$1052, DW_AT_type(*$C$DW$T$31)
    8077                      .dwattr $C$DW$1052, DW_AT_name("Flux_Wb")
    8078                      .dwattr $C$DW$1052, DW_AT_TI_symbol_name("_Flux_Wb")
    8079                      .dwattr $C$DW$1052, DW_AT_data_member_location[DW_OP_plus_uconst 0x28]
    8080                      .dwattr $C$DW$1052, DW_AT_accessibility(DW_ACCESS_public)
    8081              
    8082              $C$DW$1053      .dwtag  DW_TAG_member
    8083                      .dwattr $C$DW$1053, DW_AT_type(*$C$DW$T$31)
    8084                      .dwattr $C$DW$1053, DW_AT_name("Torque_Nm")
    8085                      .dwattr $C$DW$1053, DW_AT_TI_symbol_name("_Torque_Nm")
    8086                      .dwattr $C$DW$1053, DW_AT_data_member_location[DW_OP_plus_uconst 0x2a]
    8087                      .dwattr $C$DW$1053, DW_AT_accessibility(DW_ACCESS_public)
    8088              
    8089              $C$DW$1054      .dwtag  DW_TAG_member
    8090                      .dwattr $C$DW$1054, DW_AT_type(*$C$DW$T$67)
    8091                      .dwattr $C$DW$1054, DW_AT_name("MagnCurr_A")
    8092                      .dwattr $C$DW$1054, DW_AT_TI_symbol_name("_MagnCurr_A")
    8093                      .dwattr $C$DW$1054, DW_AT_data_member_location[DW_OP_plus_uconst 0x2c]
    8094                      .dwattr $C$DW$1054, DW_AT_accessibility(DW_ACCESS_public)
TMS320C2000 Assembler PC v18.1.2 Sun Jun 17 14:52:32 2018

Tools Copyright (c) 1996-2017 Texas Instruments Incorporated
C:\Users\haowp\AppData\Local\Temp\{81472915-7FA4-430D-8ACB-BFB8F401620C} PAGE  153

    8095              
    8096              $C$DW$1055      .dwtag  DW_TAG_member
    8097                      .dwattr $C$DW$1055, DW_AT_type(*$C$DW$T$67)
    8098                      .dwattr $C$DW$1055, DW_AT_name("Rr_Ohm")
    8099                      .dwattr $C$DW$1055, DW_AT_TI_symbol_name("_Rr_Ohm")
    8100                      .dwattr $C$DW$1055, DW_AT_data_member_location[DW_OP_plus_uconst 0x2e]
    8101                      .dwattr $C$DW$1055, DW_AT_accessibility(DW_ACCESS_public)
    8102              
    8103              $C$DW$1056      .dwtag  DW_TAG_member
    8104                      .dwattr $C$DW$1056, DW_AT_type(*$C$DW$T$67)
    8105                      .dwattr $C$DW$1056, DW_AT_name("Rs_Ohm")
    8106                      .dwattr $C$DW$1056, DW_AT_TI_symbol_name("_Rs_Ohm")
    8107                      .dwattr $C$DW$1056, DW_AT_data_member_location[DW_OP_plus_uconst 0x30]
    8108                      .dwattr $C$DW$1056, DW_AT_accessibility(DW_ACCESS_public)
    8109              
    8110              $C$DW$1057      .dwtag  DW_TAG_member
    8111                      .dwattr $C$DW$1057, DW_AT_type(*$C$DW$T$67)
    8112                      .dwattr $C$DW$1057, DW_AT_name("RsOnLine_Ohm")
    8113                      .dwattr $C$DW$1057, DW_AT_TI_symbol_name("_RsOnLine_Ohm")
    8114                      .dwattr $C$DW$1057, DW_AT_data_member_location[DW_OP_plus_uconst 0x32]
    8115                      .dwattr $C$DW$1057, DW_AT_accessibility(DW_ACCESS_public)
    8116              
    8117              $C$DW$1058      .dwtag  DW_TAG_member
    8118                      .dwattr $C$DW$1058, DW_AT_type(*$C$DW$T$67)
    8119                      .dwattr $C$DW$1058, DW_AT_name("Lsd_H")
    8120                      .dwattr $C$DW$1058, DW_AT_TI_symbol_name("_Lsd_H")
    8121                      .dwattr $C$DW$1058, DW_AT_data_member_location[DW_OP_plus_uconst 0x34]
    8122                      .dwattr $C$DW$1058, DW_AT_accessibility(DW_ACCESS_public)
    8123              
    8124              $C$DW$1059      .dwtag  DW_TAG_member
    8125                      .dwattr $C$DW$1059, DW_AT_type(*$C$DW$T$67)
    8126                      .dwattr $C$DW$1059, DW_AT_name("Lsq_H")
    8127                      .dwattr $C$DW$1059, DW_AT_TI_symbol_name("_Lsq_H")
    8128                      .dwattr $C$DW$1059, DW_AT_data_member_location[DW_OP_plus_uconst 0x36]
    8129                      .dwattr $C$DW$1059, DW_AT_accessibility(DW_ACCESS_public)
    8130              
    8131              $C$DW$1060      .dwtag  DW_TAG_member
    8132                      .dwattr $C$DW$1060, DW_AT_type(*$C$DW$T$67)
    8133                      .dwattr $C$DW$1060, DW_AT_name("Flux_VpHz")
    8134                      .dwattr $C$DW$1060, DW_AT_TI_symbol_name("_Flux_VpHz")
    8135                      .dwattr $C$DW$1060, DW_AT_data_member_location[DW_OP_plus_uconst 0x38]
    8136                      .dwattr $C$DW$1060, DW_AT_accessibility(DW_ACCESS_public)
    8137              
    8138              $C$DW$1061      .dwtag  DW_TAG_member
    8139                      .dwattr $C$DW$1061, DW_AT_type(*$C$DW$T$67)
    8140                      .dwattr $C$DW$1061, DW_AT_name("ipd_excFreq_Hz")
    8141                      .dwattr $C$DW$1061, DW_AT_TI_symbol_name("_ipd_excFreq_Hz")
    8142                      .dwattr $C$DW$1061, DW_AT_data_member_location[DW_OP_plus_uconst 0x3a]
    8143                      .dwattr $C$DW$1061, DW_AT_accessibility(DW_ACCESS_public)
    8144              
    8145              $C$DW$1062      .dwtag  DW_TAG_member
    8146                      .dwattr $C$DW$1062, DW_AT_type(*$C$DW$T$31)
    8147                      .dwattr $C$DW$1062, DW_AT_name("ipd_Kspd")
    8148                      .dwattr $C$DW$1062, DW_AT_TI_symbol_name("_ipd_Kspd")
    8149                      .dwattr $C$DW$1062, DW_AT_data_member_location[DW_OP_plus_uconst 0x3c]
TMS320C2000 Assembler PC v18.1.2 Sun Jun 17 14:52:32 2018

Tools Copyright (c) 1996-2017 Texas Instruments Incorporated
C:\Users\haowp\AppData\Local\Temp\{81472915-7FA4-430D-8ACB-BFB8F401620C} PAGE  154

    8150                      .dwattr $C$DW$1062, DW_AT_accessibility(DW_ACCESS_public)
    8151              
    8152              $C$DW$1063      .dwtag  DW_TAG_member
    8153                      .dwattr $C$DW$1063, DW_AT_type(*$C$DW$T$31)
    8154                      .dwattr $C$DW$1063, DW_AT_name("ipd_excMag_coarse_pu")
    8155                      .dwattr $C$DW$1063, DW_AT_TI_symbol_name("_ipd_excMag_coarse_pu")
    8156                      .dwattr $C$DW$1063, DW_AT_data_member_location[DW_OP_plus_uconst 0x3e]
    8157                      .dwattr $C$DW$1063, DW_AT_accessibility(DW_ACCESS_public)
    8158              
    8159              $C$DW$1064      .dwtag  DW_TAG_member
    8160                      .dwattr $C$DW$1064, DW_AT_type(*$C$DW$T$31)
    8161                      .dwattr $C$DW$1064, DW_AT_name("ipd_excMag_fine_pu")
    8162                      .dwattr $C$DW$1064, DW_AT_TI_symbol_name("_ipd_excMag_fine_pu")
    8163                      .dwattr $C$DW$1064, DW_AT_data_member_location[DW_OP_plus_uconst 0x40]
    8164                      .dwattr $C$DW$1064, DW_AT_accessibility(DW_ACCESS_public)
    8165              
    8166              $C$DW$1065      .dwtag  DW_TAG_member
    8167                      .dwattr $C$DW$1065, DW_AT_type(*$C$DW$T$16)
    8168                      .dwattr $C$DW$1065, DW_AT_name("ipd_waitTime_coarse_sec")
    8169                      .dwattr $C$DW$1065, DW_AT_TI_symbol_name("_ipd_waitTime_coarse_sec")
    8170                      .dwattr $C$DW$1065, DW_AT_data_member_location[DW_OP_plus_uconst 0x42]
    8171                      .dwattr $C$DW$1065, DW_AT_accessibility(DW_ACCESS_public)
    8172              
    8173              $C$DW$1066      .dwtag  DW_TAG_member
    8174                      .dwattr $C$DW$1066, DW_AT_type(*$C$DW$T$16)
    8175                      .dwattr $C$DW$1066, DW_AT_name("ipd_waitTime_fine_sec")
    8176                      .dwattr $C$DW$1066, DW_AT_TI_symbol_name("_ipd_waitTime_fine_sec")
    8177                      .dwattr $C$DW$1066, DW_AT_data_member_location[DW_OP_plus_uconst 0x44]
    8178                      .dwattr $C$DW$1066, DW_AT_accessibility(DW_ACCESS_public)
    8179              
    8180              $C$DW$1067      .dwtag  DW_TAG_member
    8181                      .dwattr $C$DW$1067, DW_AT_type(*$C$DW$T$31)
    8182                      .dwattr $C$DW$1067, DW_AT_name("Kp_spd")
    8183                      .dwattr $C$DW$1067, DW_AT_TI_symbol_name("_Kp_spd")
    8184                      .dwattr $C$DW$1067, DW_AT_data_member_location[DW_OP_plus_uconst 0x46]
    8185                      .dwattr $C$DW$1067, DW_AT_accessibility(DW_ACCESS_public)
    8186              
    8187              $C$DW$1068      .dwtag  DW_TAG_member
    8188                      .dwattr $C$DW$1068, DW_AT_type(*$C$DW$T$31)
    8189                      .dwattr $C$DW$1068, DW_AT_name("Ki_spd")
    8190                      .dwattr $C$DW$1068, DW_AT_TI_symbol_name("_Ki_spd")
    8191                      .dwattr $C$DW$1068, DW_AT_data_member_location[DW_OP_plus_uconst 0x48]
    8192                      .dwattr $C$DW$1068, DW_AT_accessibility(DW_ACCESS_public)
    8193              
    8194              $C$DW$1069      .dwtag  DW_TAG_member
    8195                      .dwattr $C$DW$1069, DW_AT_type(*$C$DW$T$31)
    8196                      .dwattr $C$DW$1069, DW_AT_name("Kp_Idq")
    8197                      .dwattr $C$DW$1069, DW_AT_TI_symbol_name("_Kp_Idq")
    8198                      .dwattr $C$DW$1069, DW_AT_data_member_location[DW_OP_plus_uconst 0x4a]
    8199                      .dwattr $C$DW$1069, DW_AT_accessibility(DW_ACCESS_public)
    8200              
    8201              $C$DW$1070      .dwtag  DW_TAG_member
    8202                      .dwattr $C$DW$1070, DW_AT_type(*$C$DW$T$31)
    8203                      .dwattr $C$DW$1070, DW_AT_name("Ki_Idq")
    8204                      .dwattr $C$DW$1070, DW_AT_TI_symbol_name("_Ki_Idq")
TMS320C2000 Assembler PC v18.1.2 Sun Jun 17 14:52:32 2018

Tools Copyright (c) 1996-2017 Texas Instruments Incorporated
C:\Users\haowp\AppData\Local\Temp\{81472915-7FA4-430D-8ACB-BFB8F401620C} PAGE  155

    8205                      .dwattr $C$DW$1070, DW_AT_data_member_location[DW_OP_plus_uconst 0x4c]
    8206                      .dwattr $C$DW$1070, DW_AT_accessibility(DW_ACCESS_public)
    8207              
    8208              $C$DW$1071      .dwtag  DW_TAG_member
    8209                      .dwattr $C$DW$1071, DW_AT_type(*$C$DW$T$31)
    8210                      .dwattr $C$DW$1071, DW_AT_name("Vd")
    8211                      .dwattr $C$DW$1071, DW_AT_TI_symbol_name("_Vd")
    8212                      .dwattr $C$DW$1071, DW_AT_data_member_location[DW_OP_plus_uconst 0x4e]
    8213                      .dwattr $C$DW$1071, DW_AT_accessibility(DW_ACCESS_public)
    8214              
    8215              $C$DW$1072      .dwtag  DW_TAG_member
    8216                      .dwattr $C$DW$1072, DW_AT_type(*$C$DW$T$31)
    8217                      .dwattr $C$DW$1072, DW_AT_name("Vq")
    8218                      .dwattr $C$DW$1072, DW_AT_TI_symbol_name("_Vq")
    8219                      .dwattr $C$DW$1072, DW_AT_data_member_location[DW_OP_plus_uconst 0x50]
    8220                      .dwattr $C$DW$1072, DW_AT_accessibility(DW_ACCESS_public)
    8221              
    8222              $C$DW$1073      .dwtag  DW_TAG_member
    8223                      .dwattr $C$DW$1073, DW_AT_type(*$C$DW$T$31)
    8224                      .dwattr $C$DW$1073, DW_AT_name("Vs")
    8225                      .dwattr $C$DW$1073, DW_AT_TI_symbol_name("_Vs")
    8226                      .dwattr $C$DW$1073, DW_AT_data_member_location[DW_OP_plus_uconst 0x52]
    8227                      .dwattr $C$DW$1073, DW_AT_accessibility(DW_ACCESS_public)
    8228              
    8229              $C$DW$1074      .dwtag  DW_TAG_member
    8230                      .dwattr $C$DW$1074, DW_AT_type(*$C$DW$T$31)
    8231                      .dwattr $C$DW$1074, DW_AT_name("VsRef")
    8232                      .dwattr $C$DW$1074, DW_AT_TI_symbol_name("_VsRef")
    8233                      .dwattr $C$DW$1074, DW_AT_data_member_location[DW_OP_plus_uconst 0x54]
    8234                      .dwattr $C$DW$1074, DW_AT_accessibility(DW_ACCESS_public)
    8235              
    8236              $C$DW$1075      .dwtag  DW_TAG_member
    8237                      .dwattr $C$DW$1075, DW_AT_type(*$C$DW$T$31)
    8238                      .dwattr $C$DW$1075, DW_AT_name("VdcBus_kV")
    8239                      .dwattr $C$DW$1075, DW_AT_TI_symbol_name("_VdcBus_kV")
    8240                      .dwattr $C$DW$1075, DW_AT_data_member_location[DW_OP_plus_uconst 0x56]
    8241                      .dwattr $C$DW$1075, DW_AT_accessibility(DW_ACCESS_public)
    8242              
    8243              $C$DW$1076      .dwtag  DW_TAG_member
    8244                      .dwattr $C$DW$1076, DW_AT_type(*$C$DW$T$31)
    8245                      .dwattr $C$DW$1076, DW_AT_name("Id_A")
    8246                      .dwattr $C$DW$1076, DW_AT_TI_symbol_name("_Id_A")
    8247                      .dwattr $C$DW$1076, DW_AT_data_member_location[DW_OP_plus_uconst 0x58]
    8248                      .dwattr $C$DW$1076, DW_AT_accessibility(DW_ACCESS_public)
    8249              
    8250              $C$DW$1077      .dwtag  DW_TAG_member
    8251                      .dwattr $C$DW$1077, DW_AT_type(*$C$DW$T$31)
    8252                      .dwattr $C$DW$1077, DW_AT_name("Iq_A")
    8253                      .dwattr $C$DW$1077, DW_AT_TI_symbol_name("_Iq_A")
    8254                      .dwattr $C$DW$1077, DW_AT_data_member_location[DW_OP_plus_uconst 0x5a]
    8255                      .dwattr $C$DW$1077, DW_AT_accessibility(DW_ACCESS_public)
    8256              
    8257              $C$DW$1078      .dwtag  DW_TAG_member
    8258                      .dwattr $C$DW$1078, DW_AT_type(*$C$DW$T$31)
    8259                      .dwattr $C$DW$1078, DW_AT_name("Is_A")
TMS320C2000 Assembler PC v18.1.2 Sun Jun 17 14:52:32 2018

Tools Copyright (c) 1996-2017 Texas Instruments Incorporated
C:\Users\haowp\AppData\Local\Temp\{81472915-7FA4-430D-8ACB-BFB8F401620C} PAGE  156

    8260                      .dwattr $C$DW$1078, DW_AT_TI_symbol_name("_Is_A")
    8261                      .dwattr $C$DW$1078, DW_AT_data_member_location[DW_OP_plus_uconst 0x5c]
    8262                      .dwattr $C$DW$1078, DW_AT_accessibility(DW_ACCESS_public)
    8263              
    8264              $C$DW$1079      .dwtag  DW_TAG_member
    8265                      .dwattr $C$DW$1079, DW_AT_type(*$C$DW$T$154)
    8266                      .dwattr $C$DW$1079, DW_AT_name("I_bias")
    8267                      .dwattr $C$DW$1079, DW_AT_TI_symbol_name("_I_bias")
    8268                      .dwattr $C$DW$1079, DW_AT_data_member_location[DW_OP_plus_uconst 0x5e]
    8269                      .dwattr $C$DW$1079, DW_AT_accessibility(DW_ACCESS_public)
    8270              
    8271              $C$DW$1080      .dwtag  DW_TAG_member
    8272                      .dwattr $C$DW$1080, DW_AT_type(*$C$DW$T$154)
    8273                      .dwattr $C$DW$1080, DW_AT_name("V_bias")
    8274                      .dwattr $C$DW$1080, DW_AT_TI_symbol_name("_V_bias")
    8275                      .dwattr $C$DW$1080, DW_AT_data_member_location[DW_OP_plus_uconst 0x64]
    8276                      .dwattr $C$DW$1080, DW_AT_accessibility(DW_ACCESS_public)
    8277              
    8278              $C$DW$1081      .dwtag  DW_TAG_member
    8279                      .dwattr $C$DW$1081, DW_AT_type(*$C$DW$T$31)
    8280                      .dwattr $C$DW$1081, DW_AT_name("SpeedSet_krpm")
    8281                      .dwattr $C$DW$1081, DW_AT_TI_symbol_name("_SpeedSet_krpm")
    8282                      .dwattr $C$DW$1081, DW_AT_data_member_location[DW_OP_plus_uconst 0x6a]
    8283                      .dwattr $C$DW$1081, DW_AT_accessibility(DW_ACCESS_public)
    8284              
    8285              $C$DW$1082      .dwtag  DW_TAG_member
    8286                      .dwattr $C$DW$1082, DW_AT_type(*$C$DW$T$31)
    8287                      .dwattr $C$DW$1082, DW_AT_name("angle_sen_pu")
    8288                      .dwattr $C$DW$1082, DW_AT_TI_symbol_name("_angle_sen_pu")
    8289                      .dwattr $C$DW$1082, DW_AT_data_member_location[DW_OP_plus_uconst 0x6c]
    8290                      .dwattr $C$DW$1082, DW_AT_accessibility(DW_ACCESS_public)
    8291              
    8292              $C$DW$1083      .dwtag  DW_TAG_member
    8293                      .dwattr $C$DW$1083, DW_AT_type(*$C$DW$T$31)
    8294                      .dwattr $C$DW$1083, DW_AT_name("angle_est_pu")
    8295                      .dwattr $C$DW$1083, DW_AT_TI_symbol_name("_angle_est_pu")
    8296                      .dwattr $C$DW$1083, DW_AT_data_member_location[DW_OP_plus_uconst 0x6e]
    8297                      .dwattr $C$DW$1083, DW_AT_accessibility(DW_ACCESS_public)
    8298              
    8299              $C$DW$1084      .dwtag  DW_TAG_member
    8300                      .dwattr $C$DW$1084, DW_AT_type(*$C$DW$T$31)
    8301                      .dwattr $C$DW$1084, DW_AT_name("speed_sen_pu")
    8302                      .dwattr $C$DW$1084, DW_AT_TI_symbol_name("_speed_sen_pu")
    8303                      .dwattr $C$DW$1084, DW_AT_data_member_location[DW_OP_plus_uconst 0x70]
    8304                      .dwattr $C$DW$1084, DW_AT_accessibility(DW_ACCESS_public)
    8305              
    8306              $C$DW$1085      .dwtag  DW_TAG_member
    8307                      .dwattr $C$DW$1085, DW_AT_type(*$C$DW$T$31)
    8308                      .dwattr $C$DW$1085, DW_AT_name("speed_est_pu")
    8309                      .dwattr $C$DW$1085, DW_AT_TI_symbol_name("_speed_est_pu")
    8310                      .dwattr $C$DW$1085, DW_AT_data_member_location[DW_OP_plus_uconst 0x72]
    8311                      .dwattr $C$DW$1085, DW_AT_accessibility(DW_ACCESS_public)
    8312              
    8313              $C$DW$1086      .dwtag  DW_TAG_member
    8314                      .dwattr $C$DW$1086, DW_AT_type(*$C$DW$T$31)
TMS320C2000 Assembler PC v18.1.2 Sun Jun 17 14:52:32 2018

Tools Copyright (c) 1996-2017 Texas Instruments Incorporated
C:\Users\haowp\AppData\Local\Temp\{81472915-7FA4-430D-8ACB-BFB8F401620C} PAGE  157

    8315                      .dwattr $C$DW$1086, DW_AT_name("speedHigh_hall2fast_pu")
    8316                      .dwattr $C$DW$1086, DW_AT_TI_symbol_name("_speedHigh_hall2fast_pu")
    8317                      .dwattr $C$DW$1086, DW_AT_data_member_location[DW_OP_plus_uconst 0x74]
    8318                      .dwattr $C$DW$1086, DW_AT_accessibility(DW_ACCESS_public)
    8319              
    8320              $C$DW$1087      .dwtag  DW_TAG_member
    8321                      .dwattr $C$DW$1087, DW_AT_type(*$C$DW$T$31)
    8322                      .dwattr $C$DW$1087, DW_AT_name("speedLow_hall2fast_pu")
    8323                      .dwattr $C$DW$1087, DW_AT_TI_symbol_name("_speedLow_hall2fast_pu")
    8324                      .dwattr $C$DW$1087, DW_AT_data_member_location[DW_OP_plus_uconst 0x76]
    8325                      .dwattr $C$DW$1087, DW_AT_accessibility(DW_ACCESS_public)
    8326              
    8327              $C$DW$1088      .dwtag  DW_TAG_member
    8328                      .dwattr $C$DW$1088, DW_AT_type(*$C$DW$T$31)
    8329                      .dwattr $C$DW$1088, DW_AT_name("IdSet_A")
    8330                      .dwattr $C$DW$1088, DW_AT_TI_symbol_name("_IdSet_A")
    8331                      .dwattr $C$DW$1088, DW_AT_data_member_location[DW_OP_plus_uconst 0x78]
    8332                      .dwattr $C$DW$1088, DW_AT_accessibility(DW_ACCESS_public)
    8333              
    8334              $C$DW$1089      .dwtag  DW_TAG_member
    8335                      .dwattr $C$DW$1089, DW_AT_type(*$C$DW$T$31)
    8336                      .dwattr $C$DW$1089, DW_AT_name("IqSet_A")
    8337                      .dwattr $C$DW$1089, DW_AT_TI_symbol_name("_IqSet_A")
    8338                      .dwattr $C$DW$1089, DW_AT_data_member_location[DW_OP_plus_uconst 0x7a]
    8339                      .dwattr $C$DW$1089, DW_AT_accessibility(DW_ACCESS_public)
    8340              
    8341              $C$DW$1090      .dwtag  DW_TAG_member
    8342                      .dwattr $C$DW$1090, DW_AT_type(*$C$DW$T$31)
    8343                      .dwattr $C$DW$1090, DW_AT_name("IdRef_pu")
    8344                      .dwattr $C$DW$1090, DW_AT_TI_symbol_name("_IdRef_pu")
    8345                      .dwattr $C$DW$1090, DW_AT_data_member_location[DW_OP_plus_uconst 0x7c]
    8346                      .dwattr $C$DW$1090, DW_AT_accessibility(DW_ACCESS_public)
    8347              
    8348              $C$DW$1091      .dwtag  DW_TAG_member
    8349                      .dwattr $C$DW$1091, DW_AT_type(*$C$DW$T$31)
    8350                      .dwattr $C$DW$1091, DW_AT_name("IqRef_pu")
    8351                      .dwattr $C$DW$1091, DW_AT_TI_symbol_name("_IqRef_pu")
    8352                      .dwattr $C$DW$1091, DW_AT_data_member_location[DW_OP_plus_uconst 0x7e]
    8353                      .dwattr $C$DW$1091, DW_AT_accessibility(DW_ACCESS_public)
    8354              
    8355                      .dwendtag $C$DW$T$204
    8356              
    8357              $C$DW$T$293     .dwtag  DW_TAG_typedef
    8358                      .dwattr $C$DW$T$293, DW_AT_name("MOTOR_Vars_t")
    8359                      .dwattr $C$DW$T$293, DW_AT_type(*$C$DW$T$204)
    8360                      .dwattr $C$DW$T$293, DW_AT_language(DW_LANG_C)
    8361              
    8362              $C$DW$1092      .dwtag  DW_TAG_TI_far_type
    8363                      .dwattr $C$DW$1092, DW_AT_type(*$C$DW$T$293)
    8364              
    8365              $C$DW$T$294     .dwtag  DW_TAG_volatile_type
    8366                      .dwattr $C$DW$T$294, DW_AT_type(*$C$DW$1092)
    8367              
    8368              
    8369              $C$DW$T$208     .dwtag  DW_TAG_structure_type
TMS320C2000 Assembler PC v18.1.2 Sun Jun 17 14:52:32 2018

Tools Copyright (c) 1996-2017 Texas Instruments Incorporated
C:\Users\haowp\AppData\Local\Temp\{81472915-7FA4-430D-8ACB-BFB8F401620C} PAGE  158

    8370                      .dwattr $C$DW$T$208, DW_AT_name("_OFFSET_")
    8371                      .dwattr $C$DW$T$208, DW_AT_byte_size(0x10)
    8372              $C$DW$1093      .dwtag  DW_TAG_member
    8373                      .dwattr $C$DW$1093, DW_AT_type(*$C$DW$T$31)
    8374                      .dwattr $C$DW$1093, DW_AT_name("value")
    8375                      .dwattr $C$DW$1093, DW_AT_TI_symbol_name("_value")
    8376                      .dwattr $C$DW$1093, DW_AT_data_member_location[DW_OP_plus_uconst 0x0]
    8377                      .dwattr $C$DW$1093, DW_AT_accessibility(DW_ACCESS_public)
    8378              
    8379              $C$DW$1094      .dwtag  DW_TAG_member
    8380                      .dwattr $C$DW$1094, DW_AT_type(*$C$DW$T$31)
    8381                      .dwattr $C$DW$1094, DW_AT_name("bias")
    8382                      .dwattr $C$DW$1094, DW_AT_TI_symbol_name("_bias")
    8383                      .dwattr $C$DW$1094, DW_AT_data_member_location[DW_OP_plus_uconst 0x2]
    8384                      .dwattr $C$DW$1094, DW_AT_accessibility(DW_ACCESS_public)
    8385              
    8386              $C$DW$1095      .dwtag  DW_TAG_member
    8387                      .dwattr $C$DW$1095, DW_AT_type(*$C$DW$T$205)
    8388                      .dwattr $C$DW$1095, DW_AT_name("filter")
    8389                      .dwattr $C$DW$1095, DW_AT_TI_symbol_name("_filter")
    8390                      .dwattr $C$DW$1095, DW_AT_data_member_location[DW_OP_plus_uconst 0x4]
    8391                      .dwattr $C$DW$1095, DW_AT_accessibility(DW_ACCESS_public)
    8392              
    8393              $C$DW$1096      .dwtag  DW_TAG_member
    8394                      .dwattr $C$DW$1096, DW_AT_type(*$C$DW$T$207)
    8395                      .dwattr $C$DW$1096, DW_AT_name("filterHandle")
    8396                      .dwattr $C$DW$1096, DW_AT_TI_symbol_name("_filterHandle")
    8397                      .dwattr $C$DW$1096, DW_AT_data_member_location[DW_OP_plus_uconst 0xe]
    8398                      .dwattr $C$DW$1096, DW_AT_accessibility(DW_ACCESS_public)
    8399              
    8400                      .dwendtag $C$DW$T$208
    8401              
    8402              $C$DW$T$167     .dwtag  DW_TAG_typedef
    8403                      .dwattr $C$DW$T$167, DW_AT_name("OFFSET_Obj")
    8404                      .dwattr $C$DW$T$167, DW_AT_type(*$C$DW$T$208)
    8405                      .dwattr $C$DW$T$167, DW_AT_language(DW_LANG_C)
    8406              
    8407              
    8408              $C$DW$T$168     .dwtag  DW_TAG_array_type
    8409                      .dwattr $C$DW$T$168, DW_AT_type(*$C$DW$T$167)
    8410                      .dwattr $C$DW$T$168, DW_AT_language(DW_LANG_C)
    8411                      .dwattr $C$DW$T$168, DW_AT_byte_size(0x30)
    8412              $C$DW$1097      .dwtag  DW_TAG_subrange_type
    8413                      .dwattr $C$DW$1097, DW_AT_upper_bound(0x02)
    8414              
    8415                      .dwendtag $C$DW$T$168
    8416              
    8417              
    8418              $C$DW$T$21      .dwtag  DW_TAG_structure_type
    8419                      .dwattr $C$DW$T$21, DW_AT_name("_OFFSET_Obj_")
    8420                      .dwattr $C$DW$T$21, DW_AT_declaration
    8421                      .dwendtag $C$DW$T$21
    8422              
    8423              $C$DW$T$164     .dwtag  DW_TAG_pointer_type
    8424                      .dwattr $C$DW$T$164, DW_AT_type(*$C$DW$T$21)
TMS320C2000 Assembler PC v18.1.2 Sun Jun 17 14:52:32 2018

Tools Copyright (c) 1996-2017 Texas Instruments Incorporated
C:\Users\haowp\AppData\Local\Temp\{81472915-7FA4-430D-8ACB-BFB8F401620C} PAGE  159

    8425                      .dwattr $C$DW$T$164, DW_AT_address_class(0x20)
    8426              
    8427              $C$DW$T$165     .dwtag  DW_TAG_typedef
    8428                      .dwattr $C$DW$T$165, DW_AT_name("OFFSET_Handle")
    8429                      .dwattr $C$DW$T$165, DW_AT_type(*$C$DW$T$164)
    8430                      .dwattr $C$DW$T$165, DW_AT_language(DW_LANG_C)
    8431              
    8432              
    8433              $C$DW$T$166     .dwtag  DW_TAG_array_type
    8434                      .dwattr $C$DW$T$166, DW_AT_type(*$C$DW$T$165)
    8435                      .dwattr $C$DW$T$166, DW_AT_language(DW_LANG_C)
    8436                      .dwattr $C$DW$T$166, DW_AT_byte_size(0x06)
    8437              $C$DW$1098      .dwtag  DW_TAG_subrange_type
    8438                      .dwattr $C$DW$1098, DW_AT_upper_bound(0x02)
    8439              
    8440                      .dwendtag $C$DW$T$166
    8441              
    8442              
    8443              $C$DW$T$209     .dwtag  DW_TAG_structure_type
    8444                      .dwattr $C$DW$T$209, DW_AT_name("_OSC_Obj_")
    8445                      .dwattr $C$DW$T$209, DW_AT_byte_size(0x03)
    8446              $C$DW$1099      .dwtag  DW_TAG_member
    8447                      .dwattr $C$DW$1099, DW_AT_type(*$C$DW$T$23)
    8448                      .dwattr $C$DW$1099, DW_AT_name("INTOSC1TRIM")
    8449                      .dwattr $C$DW$1099, DW_AT_TI_symbol_name("_INTOSC1TRIM")
    8450                      .dwattr $C$DW$1099, DW_AT_data_member_location[DW_OP_plus_uconst 0x0]
    8451                      .dwattr $C$DW$1099, DW_AT_accessibility(DW_ACCESS_public)
    8452              
    8453              $C$DW$1100      .dwtag  DW_TAG_member
    8454                      .dwattr $C$DW$1100, DW_AT_type(*$C$DW$T$23)
    8455                      .dwattr $C$DW$1100, DW_AT_name("rsvd_1")
    8456                      .dwattr $C$DW$1100, DW_AT_TI_symbol_name("_rsvd_1")
    8457                      .dwattr $C$DW$1100, DW_AT_data_member_location[DW_OP_plus_uconst 0x1]
    8458                      .dwattr $C$DW$1100, DW_AT_accessibility(DW_ACCESS_public)
    8459              
    8460              $C$DW$1101      .dwtag  DW_TAG_member
    8461                      .dwattr $C$DW$1101, DW_AT_type(*$C$DW$T$23)
    8462                      .dwattr $C$DW$1101, DW_AT_name("INTOSC2TRIM")
    8463                      .dwattr $C$DW$1101, DW_AT_TI_symbol_name("_INTOSC2TRIM")
    8464                      .dwattr $C$DW$1101, DW_AT_data_member_location[DW_OP_plus_uconst 0x2]
    8465                      .dwattr $C$DW$1101, DW_AT_accessibility(DW_ACCESS_public)
    8466              
    8467                      .dwendtag $C$DW$T$209
    8468              
    8469              $C$DW$T$169     .dwtag  DW_TAG_pointer_type
    8470                      .dwattr $C$DW$T$169, DW_AT_type(*$C$DW$T$209)
    8471                      .dwattr $C$DW$T$169, DW_AT_address_class(0x20)
    8472              
    8473              $C$DW$T$170     .dwtag  DW_TAG_typedef
    8474                      .dwattr $C$DW$T$170, DW_AT_name("OSC_Handle")
    8475                      .dwattr $C$DW$T$170, DW_AT_type(*$C$DW$T$169)
    8476                      .dwattr $C$DW$T$170, DW_AT_language(DW_LANG_C)
    8477              
    8478              
    8479              $C$DW$T$210     .dwtag  DW_TAG_structure_type
TMS320C2000 Assembler PC v18.1.2 Sun Jun 17 14:52:32 2018

Tools Copyright (c) 1996-2017 Texas Instruments Incorporated
C:\Users\haowp\AppData\Local\Temp\{81472915-7FA4-430D-8ACB-BFB8F401620C} PAGE  160

    8480                      .dwattr $C$DW$T$210, DW_AT_name("_PARK_Obj_")
    8481                      .dwattr $C$DW$T$210, DW_AT_byte_size(0x04)
    8482              $C$DW$1102      .dwtag  DW_TAG_member
    8483                      .dwattr $C$DW$1102, DW_AT_type(*$C$DW$T$31)
    8484                      .dwattr $C$DW$1102, DW_AT_name("sinTh")
    8485                      .dwattr $C$DW$1102, DW_AT_TI_symbol_name("_sinTh")
    8486                      .dwattr $C$DW$1102, DW_AT_data_member_location[DW_OP_plus_uconst 0x0]
    8487                      .dwattr $C$DW$1102, DW_AT_accessibility(DW_ACCESS_public)
    8488              
    8489              $C$DW$1103      .dwtag  DW_TAG_member
    8490                      .dwattr $C$DW$1103, DW_AT_type(*$C$DW$T$31)
    8491                      .dwattr $C$DW$1103, DW_AT_name("cosTh")
    8492                      .dwattr $C$DW$1103, DW_AT_TI_symbol_name("_cosTh")
    8493                      .dwattr $C$DW$1103, DW_AT_data_member_location[DW_OP_plus_uconst 0x2]
    8494                      .dwattr $C$DW$1103, DW_AT_accessibility(DW_ACCESS_public)
    8495              
    8496                      .dwendtag $C$DW$T$210
    8497              
    8498              $C$DW$T$49      .dwtag  DW_TAG_typedef
    8499                      .dwattr $C$DW$T$49, DW_AT_name("PARK_Obj")
    8500                      .dwattr $C$DW$T$49, DW_AT_type(*$C$DW$T$210)
    8501                      .dwattr $C$DW$T$49, DW_AT_language(DW_LANG_C)
    8502              
    8503              $C$DW$T$47      .dwtag  DW_TAG_pointer_type
    8504                      .dwattr $C$DW$T$47, DW_AT_type(*$C$DW$T$210)
    8505                      .dwattr $C$DW$T$47, DW_AT_address_class(0x20)
    8506              
    8507              $C$DW$T$48      .dwtag  DW_TAG_typedef
    8508                      .dwattr $C$DW$T$48, DW_AT_name("PARK_Handle")
    8509                      .dwattr $C$DW$T$48, DW_AT_type(*$C$DW$T$47)
    8510                      .dwattr $C$DW$T$48, DW_AT_language(DW_LANG_C)
    8511              
    8512              
    8513              $C$DW$T$211     .dwtag  DW_TAG_structure_type
    8514                      .dwattr $C$DW$T$211, DW_AT_name("_PID_Obj_")
    8515                      .dwattr $C$DW$T$211, DW_AT_byte_size(0x10)
    8516              $C$DW$1104      .dwtag  DW_TAG_member
    8517                      .dwattr $C$DW$1104, DW_AT_type(*$C$DW$T$31)
    8518                      .dwattr $C$DW$1104, DW_AT_name("Kp")
    8519                      .dwattr $C$DW$1104, DW_AT_TI_symbol_name("_Kp")
    8520                      .dwattr $C$DW$1104, DW_AT_data_member_location[DW_OP_plus_uconst 0x0]
    8521                      .dwattr $C$DW$1104, DW_AT_accessibility(DW_ACCESS_public)
    8522              
    8523              $C$DW$1105      .dwtag  DW_TAG_member
    8524                      .dwattr $C$DW$1105, DW_AT_type(*$C$DW$T$31)
    8525                      .dwattr $C$DW$1105, DW_AT_name("Ki")
    8526                      .dwattr $C$DW$1105, DW_AT_TI_symbol_name("_Ki")
    8527                      .dwattr $C$DW$1105, DW_AT_data_member_location[DW_OP_plus_uconst 0x2]
    8528                      .dwattr $C$DW$1105, DW_AT_accessibility(DW_ACCESS_public)
    8529              
    8530              $C$DW$1106      .dwtag  DW_TAG_member
    8531                      .dwattr $C$DW$1106, DW_AT_type(*$C$DW$T$31)
    8532                      .dwattr $C$DW$1106, DW_AT_name("Kd")
    8533                      .dwattr $C$DW$1106, DW_AT_TI_symbol_name("_Kd")
    8534                      .dwattr $C$DW$1106, DW_AT_data_member_location[DW_OP_plus_uconst 0x4]
TMS320C2000 Assembler PC v18.1.2 Sun Jun 17 14:52:32 2018

Tools Copyright (c) 1996-2017 Texas Instruments Incorporated
C:\Users\haowp\AppData\Local\Temp\{81472915-7FA4-430D-8ACB-BFB8F401620C} PAGE  161

    8535                      .dwattr $C$DW$1106, DW_AT_accessibility(DW_ACCESS_public)
    8536              
    8537              $C$DW$1107      .dwtag  DW_TAG_member
    8538                      .dwattr $C$DW$1107, DW_AT_type(*$C$DW$T$31)
    8539                      .dwattr $C$DW$1107, DW_AT_name("Ui")
    8540                      .dwattr $C$DW$1107, DW_AT_TI_symbol_name("_Ui")
    8541                      .dwattr $C$DW$1107, DW_AT_data_member_location[DW_OP_plus_uconst 0x6]
    8542                      .dwattr $C$DW$1107, DW_AT_accessibility(DW_ACCESS_public)
    8543              
    8544              $C$DW$1108      .dwtag  DW_TAG_member
    8545                      .dwattr $C$DW$1108, DW_AT_type(*$C$DW$T$31)
    8546                      .dwattr $C$DW$1108, DW_AT_name("refValue")
    8547                      .dwattr $C$DW$1108, DW_AT_TI_symbol_name("_refValue")
    8548                      .dwattr $C$DW$1108, DW_AT_data_member_location[DW_OP_plus_uconst 0x8]
    8549                      .dwattr $C$DW$1108, DW_AT_accessibility(DW_ACCESS_public)
    8550              
    8551              $C$DW$1109      .dwtag  DW_TAG_member
    8552                      .dwattr $C$DW$1109, DW_AT_type(*$C$DW$T$31)
    8553                      .dwattr $C$DW$1109, DW_AT_name("fbackValue")
    8554                      .dwattr $C$DW$1109, DW_AT_TI_symbol_name("_fbackValue")
    8555                      .dwattr $C$DW$1109, DW_AT_data_member_location[DW_OP_plus_uconst 0xa]
    8556                      .dwattr $C$DW$1109, DW_AT_accessibility(DW_ACCESS_public)
    8557              
    8558              $C$DW$1110      .dwtag  DW_TAG_member
    8559                      .dwattr $C$DW$1110, DW_AT_type(*$C$DW$T$31)
    8560                      .dwattr $C$DW$1110, DW_AT_name("outMin")
    8561                      .dwattr $C$DW$1110, DW_AT_TI_symbol_name("_outMin")
    8562                      .dwattr $C$DW$1110, DW_AT_data_member_location[DW_OP_plus_uconst 0xc]
    8563                      .dwattr $C$DW$1110, DW_AT_accessibility(DW_ACCESS_public)
    8564              
    8565              $C$DW$1111      .dwtag  DW_TAG_member
    8566                      .dwattr $C$DW$1111, DW_AT_type(*$C$DW$T$31)
    8567                      .dwattr $C$DW$1111, DW_AT_name("outMax")
    8568                      .dwattr $C$DW$1111, DW_AT_TI_symbol_name("_outMax")
    8569                      .dwattr $C$DW$1111, DW_AT_data_member_location[DW_OP_plus_uconst 0xe]
    8570                      .dwattr $C$DW$1111, DW_AT_accessibility(DW_ACCESS_public)
    8571              
    8572                      .dwendtag $C$DW$T$211
    8573              
    8574              $C$DW$T$52      .dwtag  DW_TAG_typedef
    8575                      .dwattr $C$DW$T$52, DW_AT_name("PID_Obj")
    8576                      .dwattr $C$DW$T$52, DW_AT_type(*$C$DW$T$211)
    8577                      .dwattr $C$DW$T$52, DW_AT_language(DW_LANG_C)
    8578              
    8579              $C$DW$T$50      .dwtag  DW_TAG_pointer_type
    8580                      .dwattr $C$DW$T$50, DW_AT_type(*$C$DW$T$211)
    8581                      .dwattr $C$DW$T$50, DW_AT_address_class(0x20)
    8582              
    8583              $C$DW$T$51      .dwtag  DW_TAG_typedef
    8584                      .dwattr $C$DW$T$51, DW_AT_name("PID_Handle")
    8585                      .dwattr $C$DW$T$51, DW_AT_type(*$C$DW$T$50)
    8586                      .dwattr $C$DW$T$51, DW_AT_language(DW_LANG_C)
    8587              
    8588              
    8589              $C$DW$T$212     .dwtag  DW_TAG_structure_type
TMS320C2000 Assembler PC v18.1.2 Sun Jun 17 14:52:32 2018

Tools Copyright (c) 1996-2017 Texas Instruments Incorporated
C:\Users\haowp\AppData\Local\Temp\{81472915-7FA4-430D-8ACB-BFB8F401620C} PAGE  162

    8590                      .dwattr $C$DW$T$212, DW_AT_name("_PIE_IERIFR_t")
    8591                      .dwattr $C$DW$T$212, DW_AT_byte_size(0x02)
    8592              $C$DW$1112      .dwtag  DW_TAG_member
    8593                      .dwattr $C$DW$1112, DW_AT_type(*$C$DW$T$23)
    8594                      .dwattr $C$DW$1112, DW_AT_name("IER")
    8595                      .dwattr $C$DW$1112, DW_AT_TI_symbol_name("_IER")
    8596                      .dwattr $C$DW$1112, DW_AT_data_member_location[DW_OP_plus_uconst 0x0]
    8597                      .dwattr $C$DW$1112, DW_AT_accessibility(DW_ACCESS_public)
    8598              
    8599              $C$DW$1113      .dwtag  DW_TAG_member
    8600                      .dwattr $C$DW$1113, DW_AT_type(*$C$DW$T$23)
    8601                      .dwattr $C$DW$1113, DW_AT_name("IFR")
    8602                      .dwattr $C$DW$1113, DW_AT_TI_symbol_name("_IFR")
    8603                      .dwattr $C$DW$1113, DW_AT_data_member_location[DW_OP_plus_uconst 0x1]
    8604                      .dwattr $C$DW$1113, DW_AT_accessibility(DW_ACCESS_public)
    8605              
    8606                      .dwendtag $C$DW$T$212
    8607              
    8608              $C$DW$T$213     .dwtag  DW_TAG_typedef
    8609                      .dwattr $C$DW$T$213, DW_AT_name("PIE_IERIFR_t")
    8610                      .dwattr $C$DW$T$213, DW_AT_type(*$C$DW$T$212)
    8611                      .dwattr $C$DW$T$213, DW_AT_language(DW_LANG_C)
    8612              
    8613              $C$DW$1114      .dwtag  DW_TAG_TI_far_type
    8614                      .dwattr $C$DW$1114, DW_AT_type(*$C$DW$T$213)
    8615              
    8616              $C$DW$T$214     .dwtag  DW_TAG_volatile_type
    8617                      .dwattr $C$DW$T$214, DW_AT_type(*$C$DW$1114)
    8618              
    8619              
    8620              $C$DW$T$215     .dwtag  DW_TAG_array_type
    8621                      .dwattr $C$DW$T$215, DW_AT_type(*$C$DW$T$214)
    8622                      .dwattr $C$DW$T$215, DW_AT_language(DW_LANG_C)
    8623                      .dwattr $C$DW$T$215, DW_AT_byte_size(0x18)
    8624              $C$DW$1115      .dwtag  DW_TAG_subrange_type
    8625                      .dwattr $C$DW$1115, DW_AT_upper_bound(0x0b)
    8626              
    8627                      .dwendtag $C$DW$T$215
    8628              
    8629              
    8630              $C$DW$T$222     .dwtag  DW_TAG_structure_type
    8631                      .dwattr $C$DW$T$222, DW_AT_name("_PIE_Obj_")
    8632                      .dwattr $C$DW$T$222, DW_AT_byte_size(0x639c)
    8633              $C$DW$1116      .dwtag  DW_TAG_member
    8634                      .dwattr $C$DW$1116, DW_AT_type(*$C$DW$T$23)
    8635                      .dwattr $C$DW$1116, DW_AT_name("PIECTRL")
    8636                      .dwattr $C$DW$1116, DW_AT_TI_symbol_name("_PIECTRL")
    8637                      .dwattr $C$DW$1116, DW_AT_data_member_location[DW_OP_plus_uconst 0x0]
    8638                      .dwattr $C$DW$1116, DW_AT_accessibility(DW_ACCESS_public)
    8639              
    8640              $C$DW$1117      .dwtag  DW_TAG_member
    8641                      .dwattr $C$DW$1117, DW_AT_type(*$C$DW$T$23)
    8642                      .dwattr $C$DW$1117, DW_AT_name("PIEACK")
    8643                      .dwattr $C$DW$1117, DW_AT_TI_symbol_name("_PIEACK")
    8644                      .dwattr $C$DW$1117, DW_AT_data_member_location[DW_OP_plus_uconst 0x1]
TMS320C2000 Assembler PC v18.1.2 Sun Jun 17 14:52:32 2018

Tools Copyright (c) 1996-2017 Texas Instruments Incorporated
C:\Users\haowp\AppData\Local\Temp\{81472915-7FA4-430D-8ACB-BFB8F401620C} PAGE  163

    8645                      .dwattr $C$DW$1117, DW_AT_accessibility(DW_ACCESS_public)
    8646              
    8647              $C$DW$1118      .dwtag  DW_TAG_member
    8648                      .dwattr $C$DW$1118, DW_AT_type(*$C$DW$T$215)
    8649                      .dwattr $C$DW$1118, DW_AT_name("PIEIER_PIEIFR")
    8650                      .dwattr $C$DW$1118, DW_AT_TI_symbol_name("_PIEIER_PIEIFR")
    8651                      .dwattr $C$DW$1118, DW_AT_data_member_location[DW_OP_plus_uconst 0x2]
    8652                      .dwattr $C$DW$1118, DW_AT_accessibility(DW_ACCESS_public)
    8653              
    8654              $C$DW$1119      .dwtag  DW_TAG_member
    8655                      .dwattr $C$DW$1119, DW_AT_type(*$C$DW$T$216)
    8656                      .dwattr $C$DW$1119, DW_AT_name("rsvd_1")
    8657                      .dwattr $C$DW$1119, DW_AT_TI_symbol_name("_rsvd_1")
    8658                      .dwattr $C$DW$1119, DW_AT_data_member_location[DW_OP_plus_uconst 0x1a]
    8659                      .dwattr $C$DW$1119, DW_AT_accessibility(DW_ACCESS_public)
    8660              
    8661              $C$DW$1120      .dwtag  DW_TAG_member
    8662                      .dwattr $C$DW$1120, DW_AT_type(*$C$DW$T$220)
    8663                      .dwattr $C$DW$1120, DW_AT_name("Reset")
    8664                      .dwattr $C$DW$1120, DW_AT_TI_symbol_name("_Reset")
    8665                      .dwattr $C$DW$1120, DW_AT_data_member_location[DW_OP_plus_uconst 0x20]
    8666                      .dwattr $C$DW$1120, DW_AT_accessibility(DW_ACCESS_public)
    8667              
    8668              $C$DW$1121      .dwtag  DW_TAG_member
    8669                      .dwattr $C$DW$1121, DW_AT_type(*$C$DW$T$220)
    8670                      .dwattr $C$DW$1121, DW_AT_name("INT1")
    8671                      .dwattr $C$DW$1121, DW_AT_TI_symbol_name("_INT1")
    8672                      .dwattr $C$DW$1121, DW_AT_data_member_location[DW_OP_plus_uconst 0x22]
    8673                      .dwattr $C$DW$1121, DW_AT_accessibility(DW_ACCESS_public)
    8674              
    8675              $C$DW$1122      .dwtag  DW_TAG_member
    8676                      .dwattr $C$DW$1122, DW_AT_type(*$C$DW$T$220)
    8677                      .dwattr $C$DW$1122, DW_AT_name("INT2")
    8678                      .dwattr $C$DW$1122, DW_AT_TI_symbol_name("_INT2")
    8679                      .dwattr $C$DW$1122, DW_AT_data_member_location[DW_OP_plus_uconst 0x24]
    8680                      .dwattr $C$DW$1122, DW_AT_accessibility(DW_ACCESS_public)
    8681              
    8682              $C$DW$1123      .dwtag  DW_TAG_member
    8683                      .dwattr $C$DW$1123, DW_AT_type(*$C$DW$T$220)
    8684                      .dwattr $C$DW$1123, DW_AT_name("INT3")
    8685                      .dwattr $C$DW$1123, DW_AT_TI_symbol_name("_INT3")
    8686                      .dwattr $C$DW$1123, DW_AT_data_member_location[DW_OP_plus_uconst 0x26]
    8687                      .dwattr $C$DW$1123, DW_AT_accessibility(DW_ACCESS_public)
    8688              
    8689              $C$DW$1124      .dwtag  DW_TAG_member
    8690                      .dwattr $C$DW$1124, DW_AT_type(*$C$DW$T$220)
    8691                      .dwattr $C$DW$1124, DW_AT_name("INT4")
    8692                      .dwattr $C$DW$1124, DW_AT_TI_symbol_name("_INT4")
    8693                      .dwattr $C$DW$1124, DW_AT_data_member_location[DW_OP_plus_uconst 0x28]
    8694                      .dwattr $C$DW$1124, DW_AT_accessibility(DW_ACCESS_public)
    8695              
    8696              $C$DW$1125      .dwtag  DW_TAG_member
    8697                      .dwattr $C$DW$1125, DW_AT_type(*$C$DW$T$220)
    8698                      .dwattr $C$DW$1125, DW_AT_name("INT5")
    8699                      .dwattr $C$DW$1125, DW_AT_TI_symbol_name("_INT5")
TMS320C2000 Assembler PC v18.1.2 Sun Jun 17 14:52:32 2018

Tools Copyright (c) 1996-2017 Texas Instruments Incorporated
C:\Users\haowp\AppData\Local\Temp\{81472915-7FA4-430D-8ACB-BFB8F401620C} PAGE  164

    8700                      .dwattr $C$DW$1125, DW_AT_data_member_location[DW_OP_plus_uconst 0x2a]
    8701                      .dwattr $C$DW$1125, DW_AT_accessibility(DW_ACCESS_public)
    8702              
    8703              $C$DW$1126      .dwtag  DW_TAG_member
    8704                      .dwattr $C$DW$1126, DW_AT_type(*$C$DW$T$220)
    8705                      .dwattr $C$DW$1126, DW_AT_name("INT6")
    8706                      .dwattr $C$DW$1126, DW_AT_TI_symbol_name("_INT6")
    8707                      .dwattr $C$DW$1126, DW_AT_data_member_location[DW_OP_plus_uconst 0x2c]
    8708                      .dwattr $C$DW$1126, DW_AT_accessibility(DW_ACCESS_public)
    8709              
    8710              $C$DW$1127      .dwtag  DW_TAG_member
    8711                      .dwattr $C$DW$1127, DW_AT_type(*$C$DW$T$220)
    8712                      .dwattr $C$DW$1127, DW_AT_name("INT7")
    8713                      .dwattr $C$DW$1127, DW_AT_TI_symbol_name("_INT7")
    8714                      .dwattr $C$DW$1127, DW_AT_data_member_location[DW_OP_plus_uconst 0x2e]
    8715                      .dwattr $C$DW$1127, DW_AT_accessibility(DW_ACCESS_public)
    8716              
    8717              $C$DW$1128      .dwtag  DW_TAG_member
    8718                      .dwattr $C$DW$1128, DW_AT_type(*$C$DW$T$220)
    8719                      .dwattr $C$DW$1128, DW_AT_name("INT8")
    8720                      .dwattr $C$DW$1128, DW_AT_TI_symbol_name("_INT8")
    8721                      .dwattr $C$DW$1128, DW_AT_data_member_location[DW_OP_plus_uconst 0x30]
    8722                      .dwattr $C$DW$1128, DW_AT_accessibility(DW_ACCESS_public)
    8723              
    8724              $C$DW$1129      .dwtag  DW_TAG_member
    8725                      .dwattr $C$DW$1129, DW_AT_type(*$C$DW$T$220)
    8726                      .dwattr $C$DW$1129, DW_AT_name("INT9")
    8727                      .dwattr $C$DW$1129, DW_AT_TI_symbol_name("_INT9")
    8728                      .dwattr $C$DW$1129, DW_AT_data_member_location[DW_OP_plus_uconst 0x32]
    8729                      .dwattr $C$DW$1129, DW_AT_accessibility(DW_ACCESS_public)
    8730              
    8731              $C$DW$1130      .dwtag  DW_TAG_member
    8732                      .dwattr $C$DW$1130, DW_AT_type(*$C$DW$T$220)
    8733                      .dwattr $C$DW$1130, DW_AT_name("INT10")
    8734                      .dwattr $C$DW$1130, DW_AT_TI_symbol_name("_INT10")
    8735                      .dwattr $C$DW$1130, DW_AT_data_member_location[DW_OP_plus_uconst 0x34]
    8736                      .dwattr $C$DW$1130, DW_AT_accessibility(DW_ACCESS_public)
    8737              
    8738              $C$DW$1131      .dwtag  DW_TAG_member
    8739                      .dwattr $C$DW$1131, DW_AT_type(*$C$DW$T$220)
    8740                      .dwattr $C$DW$1131, DW_AT_name("INT11")
    8741                      .dwattr $C$DW$1131, DW_AT_TI_symbol_name("_INT11")
    8742                      .dwattr $C$DW$1131, DW_AT_data_member_location[DW_OP_plus_uconst 0x36]
    8743                      .dwattr $C$DW$1131, DW_AT_accessibility(DW_ACCESS_public)
    8744              
    8745              $C$DW$1132      .dwtag  DW_TAG_member
    8746                      .dwattr $C$DW$1132, DW_AT_type(*$C$DW$T$220)
    8747                      .dwattr $C$DW$1132, DW_AT_name("INT12")
    8748                      .dwattr $C$DW$1132, DW_AT_TI_symbol_name("_INT12")
    8749                      .dwattr $C$DW$1132, DW_AT_data_member_location[DW_OP_plus_uconst 0x38]
    8750                      .dwattr $C$DW$1132, DW_AT_accessibility(DW_ACCESS_public)
    8751              
    8752              $C$DW$1133      .dwtag  DW_TAG_member
    8753                      .dwattr $C$DW$1133, DW_AT_type(*$C$DW$T$220)
    8754                      .dwattr $C$DW$1133, DW_AT_name("TINT1")
TMS320C2000 Assembler PC v18.1.2 Sun Jun 17 14:52:32 2018

Tools Copyright (c) 1996-2017 Texas Instruments Incorporated
C:\Users\haowp\AppData\Local\Temp\{81472915-7FA4-430D-8ACB-BFB8F401620C} PAGE  165

    8755                      .dwattr $C$DW$1133, DW_AT_TI_symbol_name("_TINT1")
    8756                      .dwattr $C$DW$1133, DW_AT_data_member_location[DW_OP_plus_uconst 0x3a]
    8757                      .dwattr $C$DW$1133, DW_AT_accessibility(DW_ACCESS_public)
    8758              
    8759              $C$DW$1134      .dwtag  DW_TAG_member
    8760                      .dwattr $C$DW$1134, DW_AT_type(*$C$DW$T$220)
    8761                      .dwattr $C$DW$1134, DW_AT_name("TINT2")
    8762                      .dwattr $C$DW$1134, DW_AT_TI_symbol_name("_TINT2")
    8763                      .dwattr $C$DW$1134, DW_AT_data_member_location[DW_OP_plus_uconst 0x3c]
    8764                      .dwattr $C$DW$1134, DW_AT_accessibility(DW_ACCESS_public)
    8765              
    8766              $C$DW$1135      .dwtag  DW_TAG_member
    8767                      .dwattr $C$DW$1135, DW_AT_type(*$C$DW$T$220)
    8768                      .dwattr $C$DW$1135, DW_AT_name("DATALOG")
    8769                      .dwattr $C$DW$1135, DW_AT_TI_symbol_name("_DATALOG")
    8770                      .dwattr $C$DW$1135, DW_AT_data_member_location[DW_OP_plus_uconst 0x3e]
    8771                      .dwattr $C$DW$1135, DW_AT_accessibility(DW_ACCESS_public)
    8772              
    8773              $C$DW$1136      .dwtag  DW_TAG_member
    8774                      .dwattr $C$DW$1136, DW_AT_type(*$C$DW$T$220)
    8775                      .dwattr $C$DW$1136, DW_AT_name("RTOSINT")
    8776                      .dwattr $C$DW$1136, DW_AT_TI_symbol_name("_RTOSINT")
    8777                      .dwattr $C$DW$1136, DW_AT_data_member_location[DW_OP_plus_uconst 0x40]
    8778                      .dwattr $C$DW$1136, DW_AT_accessibility(DW_ACCESS_public)
    8779              
    8780              $C$DW$1137      .dwtag  DW_TAG_member
    8781                      .dwattr $C$DW$1137, DW_AT_type(*$C$DW$T$220)
    8782                      .dwattr $C$DW$1137, DW_AT_name("EMUINT")
    8783                      .dwattr $C$DW$1137, DW_AT_TI_symbol_name("_EMUINT")
    8784                      .dwattr $C$DW$1137, DW_AT_data_member_location[DW_OP_plus_uconst 0x42]
    8785                      .dwattr $C$DW$1137, DW_AT_accessibility(DW_ACCESS_public)
    8786              
    8787              $C$DW$1138      .dwtag  DW_TAG_member
    8788                      .dwattr $C$DW$1138, DW_AT_type(*$C$DW$T$220)
    8789                      .dwattr $C$DW$1138, DW_AT_name("NMI")
    8790                      .dwattr $C$DW$1138, DW_AT_TI_symbol_name("_NMI")
    8791                      .dwattr $C$DW$1138, DW_AT_data_member_location[DW_OP_plus_uconst 0x44]
    8792                      .dwattr $C$DW$1138, DW_AT_accessibility(DW_ACCESS_public)
    8793              
    8794              $C$DW$1139      .dwtag  DW_TAG_member
    8795                      .dwattr $C$DW$1139, DW_AT_type(*$C$DW$T$220)
    8796                      .dwattr $C$DW$1139, DW_AT_name("ILLEGAL")
    8797                      .dwattr $C$DW$1139, DW_AT_TI_symbol_name("_ILLEGAL")
    8798                      .dwattr $C$DW$1139, DW_AT_data_member_location[DW_OP_plus_uconst 0x46]
    8799                      .dwattr $C$DW$1139, DW_AT_accessibility(DW_ACCESS_public)
    8800              
    8801              $C$DW$1140      .dwtag  DW_TAG_member
    8802                      .dwattr $C$DW$1140, DW_AT_type(*$C$DW$T$220)
    8803                      .dwattr $C$DW$1140, DW_AT_name("USER1")
    8804                      .dwattr $C$DW$1140, DW_AT_TI_symbol_name("_USER1")
    8805                      .dwattr $C$DW$1140, DW_AT_data_member_location[DW_OP_plus_uconst 0x48]
    8806                      .dwattr $C$DW$1140, DW_AT_accessibility(DW_ACCESS_public)
    8807              
    8808              $C$DW$1141      .dwtag  DW_TAG_member
    8809                      .dwattr $C$DW$1141, DW_AT_type(*$C$DW$T$220)
TMS320C2000 Assembler PC v18.1.2 Sun Jun 17 14:52:32 2018

Tools Copyright (c) 1996-2017 Texas Instruments Incorporated
C:\Users\haowp\AppData\Local\Temp\{81472915-7FA4-430D-8ACB-BFB8F401620C} PAGE  166

    8810                      .dwattr $C$DW$1141, DW_AT_name("USER2")
    8811                      .dwattr $C$DW$1141, DW_AT_TI_symbol_name("_USER2")
    8812                      .dwattr $C$DW$1141, DW_AT_data_member_location[DW_OP_plus_uconst 0x4a]
    8813                      .dwattr $C$DW$1141, DW_AT_accessibility(DW_ACCESS_public)
    8814              
    8815              $C$DW$1142      .dwtag  DW_TAG_member
    8816                      .dwattr $C$DW$1142, DW_AT_type(*$C$DW$T$220)
    8817                      .dwattr $C$DW$1142, DW_AT_name("USER3")
    8818                      .dwattr $C$DW$1142, DW_AT_TI_symbol_name("_USER3")
    8819                      .dwattr $C$DW$1142, DW_AT_data_member_location[DW_OP_plus_uconst 0x4c]
    8820                      .dwattr $C$DW$1142, DW_AT_accessibility(DW_ACCESS_public)
    8821              
    8822              $C$DW$1143      .dwtag  DW_TAG_member
    8823                      .dwattr $C$DW$1143, DW_AT_type(*$C$DW$T$220)
    8824                      .dwattr $C$DW$1143, DW_AT_name("USER4")
    8825                      .dwattr $C$DW$1143, DW_AT_TI_symbol_name("_USER4")
    8826                      .dwattr $C$DW$1143, DW_AT_data_member_location[DW_OP_plus_uconst 0x4e]
    8827                      .dwattr $C$DW$1143, DW_AT_accessibility(DW_ACCESS_public)
    8828              
    8829              $C$DW$1144      .dwtag  DW_TAG_member
    8830                      .dwattr $C$DW$1144, DW_AT_type(*$C$DW$T$220)
    8831                      .dwattr $C$DW$1144, DW_AT_name("USER5")
    8832                      .dwattr $C$DW$1144, DW_AT_TI_symbol_name("_USER5")
    8833                      .dwattr $C$DW$1144, DW_AT_data_member_location[DW_OP_plus_uconst 0x50]
    8834                      .dwattr $C$DW$1144, DW_AT_accessibility(DW_ACCESS_public)
    8835              
    8836              $C$DW$1145      .dwtag  DW_TAG_member
    8837                      .dwattr $C$DW$1145, DW_AT_type(*$C$DW$T$220)
    8838                      .dwattr $C$DW$1145, DW_AT_name("USER6")
    8839                      .dwattr $C$DW$1145, DW_AT_TI_symbol_name("_USER6")
    8840                      .dwattr $C$DW$1145, DW_AT_data_member_location[DW_OP_plus_uconst 0x52]
    8841                      .dwattr $C$DW$1145, DW_AT_accessibility(DW_ACCESS_public)
    8842              
    8843              $C$DW$1146      .dwtag  DW_TAG_member
    8844                      .dwattr $C$DW$1146, DW_AT_type(*$C$DW$T$220)
    8845                      .dwattr $C$DW$1146, DW_AT_name("USER7")
    8846                      .dwattr $C$DW$1146, DW_AT_TI_symbol_name("_USER7")
    8847                      .dwattr $C$DW$1146, DW_AT_data_member_location[DW_OP_plus_uconst 0x54]
    8848                      .dwattr $C$DW$1146, DW_AT_accessibility(DW_ACCESS_public)
    8849              
    8850              $C$DW$1147      .dwtag  DW_TAG_member
    8851                      .dwattr $C$DW$1147, DW_AT_type(*$C$DW$T$220)
    8852                      .dwattr $C$DW$1147, DW_AT_name("USER8")
    8853                      .dwattr $C$DW$1147, DW_AT_TI_symbol_name("_USER8")
    8854                      .dwattr $C$DW$1147, DW_AT_data_member_location[DW_OP_plus_uconst 0x56]
    8855                      .dwattr $C$DW$1147, DW_AT_accessibility(DW_ACCESS_public)
    8856              
    8857              $C$DW$1148      .dwtag  DW_TAG_member
    8858                      .dwattr $C$DW$1148, DW_AT_type(*$C$DW$T$220)
    8859                      .dwattr $C$DW$1148, DW_AT_name("USER9")
    8860                      .dwattr $C$DW$1148, DW_AT_TI_symbol_name("_USER9")
    8861                      .dwattr $C$DW$1148, DW_AT_data_member_location[DW_OP_plus_uconst 0x58]
    8862                      .dwattr $C$DW$1148, DW_AT_accessibility(DW_ACCESS_public)
    8863              
    8864              $C$DW$1149      .dwtag  DW_TAG_member
TMS320C2000 Assembler PC v18.1.2 Sun Jun 17 14:52:32 2018

Tools Copyright (c) 1996-2017 Texas Instruments Incorporated
C:\Users\haowp\AppData\Local\Temp\{81472915-7FA4-430D-8ACB-BFB8F401620C} PAGE  167

    8865                      .dwattr $C$DW$1149, DW_AT_type(*$C$DW$T$220)
    8866                      .dwattr $C$DW$1149, DW_AT_name("USER10")
    8867                      .dwattr $C$DW$1149, DW_AT_TI_symbol_name("_USER10")
    8868                      .dwattr $C$DW$1149, DW_AT_data_member_location[DW_OP_plus_uconst 0x5a]
    8869                      .dwattr $C$DW$1149, DW_AT_accessibility(DW_ACCESS_public)
    8870              
    8871              $C$DW$1150      .dwtag  DW_TAG_member
    8872                      .dwattr $C$DW$1150, DW_AT_type(*$C$DW$T$220)
    8873                      .dwattr $C$DW$1150, DW_AT_name("USER11")
    8874                      .dwattr $C$DW$1150, DW_AT_TI_symbol_name("_USER11")
    8875                      .dwattr $C$DW$1150, DW_AT_data_member_location[DW_OP_plus_uconst 0x5c]
    8876                      .dwattr $C$DW$1150, DW_AT_accessibility(DW_ACCESS_public)
    8877              
    8878              $C$DW$1151      .dwtag  DW_TAG_member
    8879                      .dwattr $C$DW$1151, DW_AT_type(*$C$DW$T$220)
    8880                      .dwattr $C$DW$1151, DW_AT_name("USER12")
    8881                      .dwattr $C$DW$1151, DW_AT_TI_symbol_name("_USER12")
    8882                      .dwattr $C$DW$1151, DW_AT_data_member_location[DW_OP_plus_uconst 0x5e]
    8883                      .dwattr $C$DW$1151, DW_AT_accessibility(DW_ACCESS_public)
    8884              
    8885              $C$DW$1152      .dwtag  DW_TAG_member
    8886                      .dwattr $C$DW$1152, DW_AT_type(*$C$DW$T$220)
    8887                      .dwattr $C$DW$1152, DW_AT_name("ADCINT1_HP")
    8888                      .dwattr $C$DW$1152, DW_AT_TI_symbol_name("_ADCINT1_HP")
    8889                      .dwattr $C$DW$1152, DW_AT_data_member_location[DW_OP_plus_uconst 0x60]
    8890                      .dwattr $C$DW$1152, DW_AT_accessibility(DW_ACCESS_public)
    8891              
    8892              $C$DW$1153      .dwtag  DW_TAG_member
    8893                      .dwattr $C$DW$1153, DW_AT_type(*$C$DW$T$220)
    8894                      .dwattr $C$DW$1153, DW_AT_name("ADCINT2_HP")
    8895                      .dwattr $C$DW$1153, DW_AT_TI_symbol_name("_ADCINT2_HP")
    8896                      .dwattr $C$DW$1153, DW_AT_data_member_location[DW_OP_plus_uconst 0x62]
    8897                      .dwattr $C$DW$1153, DW_AT_accessibility(DW_ACCESS_public)
    8898              
    8899              $C$DW$1154      .dwtag  DW_TAG_member
    8900                      .dwattr $C$DW$1154, DW_AT_type(*$C$DW$T$220)
    8901                      .dwattr $C$DW$1154, DW_AT_name("rsvd1_3")
    8902                      .dwattr $C$DW$1154, DW_AT_TI_symbol_name("_rsvd1_3")
    8903                      .dwattr $C$DW$1154, DW_AT_data_member_location[DW_OP_plus_uconst 0x64]
    8904                      .dwattr $C$DW$1154, DW_AT_accessibility(DW_ACCESS_public)
    8905              
    8906              $C$DW$1155      .dwtag  DW_TAG_member
    8907                      .dwattr $C$DW$1155, DW_AT_type(*$C$DW$T$220)
    8908                      .dwattr $C$DW$1155, DW_AT_name("XINT1")
    8909                      .dwattr $C$DW$1155, DW_AT_TI_symbol_name("_XINT1")
    8910                      .dwattr $C$DW$1155, DW_AT_data_member_location[DW_OP_plus_uconst 0x66]
    8911                      .dwattr $C$DW$1155, DW_AT_accessibility(DW_ACCESS_public)
    8912              
    8913              $C$DW$1156      .dwtag  DW_TAG_member
    8914                      .dwattr $C$DW$1156, DW_AT_type(*$C$DW$T$220)
    8915                      .dwattr $C$DW$1156, DW_AT_name("XINT2")
    8916                      .dwattr $C$DW$1156, DW_AT_TI_symbol_name("_XINT2")
    8917                      .dwattr $C$DW$1156, DW_AT_data_member_location[DW_OP_plus_uconst 0x68]
    8918                      .dwattr $C$DW$1156, DW_AT_accessibility(DW_ACCESS_public)
    8919              
TMS320C2000 Assembler PC v18.1.2 Sun Jun 17 14:52:32 2018

Tools Copyright (c) 1996-2017 Texas Instruments Incorporated
C:\Users\haowp\AppData\Local\Temp\{81472915-7FA4-430D-8ACB-BFB8F401620C} PAGE  168

    8920              $C$DW$1157      .dwtag  DW_TAG_member
    8921                      .dwattr $C$DW$1157, DW_AT_type(*$C$DW$T$220)
    8922                      .dwattr $C$DW$1157, DW_AT_name("ADCINT9")
    8923                      .dwattr $C$DW$1157, DW_AT_TI_symbol_name("_ADCINT9")
    8924                      .dwattr $C$DW$1157, DW_AT_data_member_location[DW_OP_plus_uconst 0x6a]
    8925                      .dwattr $C$DW$1157, DW_AT_accessibility(DW_ACCESS_public)
    8926              
    8927              $C$DW$1158      .dwtag  DW_TAG_member
    8928                      .dwattr $C$DW$1158, DW_AT_type(*$C$DW$T$220)
    8929                      .dwattr $C$DW$1158, DW_AT_name("TINT0")
    8930                      .dwattr $C$DW$1158, DW_AT_TI_symbol_name("_TINT0")
    8931                      .dwattr $C$DW$1158, DW_AT_data_member_location[DW_OP_plus_uconst 0x6c]
    8932                      .dwattr $C$DW$1158, DW_AT_accessibility(DW_ACCESS_public)
    8933              
    8934              $C$DW$1159      .dwtag  DW_TAG_member
    8935                      .dwattr $C$DW$1159, DW_AT_type(*$C$DW$T$220)
    8936                      .dwattr $C$DW$1159, DW_AT_name("WAKEINT")
    8937                      .dwattr $C$DW$1159, DW_AT_TI_symbol_name("_WAKEINT")
    8938                      .dwattr $C$DW$1159, DW_AT_data_member_location[DW_OP_plus_uconst 0x6e]
    8939                      .dwattr $C$DW$1159, DW_AT_accessibility(DW_ACCESS_public)
    8940              
    8941              $C$DW$1160      .dwtag  DW_TAG_member
    8942                      .dwattr $C$DW$1160, DW_AT_type(*$C$DW$T$220)
    8943                      .dwattr $C$DW$1160, DW_AT_name("EPWM1_TZINT")
    8944                      .dwattr $C$DW$1160, DW_AT_TI_symbol_name("_EPWM1_TZINT")
    8945                      .dwattr $C$DW$1160, DW_AT_data_member_location[DW_OP_plus_uconst 0x70]
    8946                      .dwattr $C$DW$1160, DW_AT_accessibility(DW_ACCESS_public)
    8947              
    8948              $C$DW$1161      .dwtag  DW_TAG_member
    8949                      .dwattr $C$DW$1161, DW_AT_type(*$C$DW$T$220)
    8950                      .dwattr $C$DW$1161, DW_AT_name("EPWM2_TZINT")
    8951                      .dwattr $C$DW$1161, DW_AT_TI_symbol_name("_EPWM2_TZINT")
    8952                      .dwattr $C$DW$1161, DW_AT_data_member_location[DW_OP_plus_uconst 0x72]
    8953                      .dwattr $C$DW$1161, DW_AT_accessibility(DW_ACCESS_public)
    8954              
    8955              $C$DW$1162      .dwtag  DW_TAG_member
    8956                      .dwattr $C$DW$1162, DW_AT_type(*$C$DW$T$220)
    8957                      .dwattr $C$DW$1162, DW_AT_name("EPWM3_TZINT")
    8958                      .dwattr $C$DW$1162, DW_AT_TI_symbol_name("_EPWM3_TZINT")
    8959                      .dwattr $C$DW$1162, DW_AT_data_member_location[DW_OP_plus_uconst 0x74]
    8960                      .dwattr $C$DW$1162, DW_AT_accessibility(DW_ACCESS_public)
    8961              
    8962              $C$DW$1163      .dwtag  DW_TAG_member
    8963                      .dwattr $C$DW$1163, DW_AT_type(*$C$DW$T$220)
    8964                      .dwattr $C$DW$1163, DW_AT_name("EPWM4_TZINT")
    8965                      .dwattr $C$DW$1163, DW_AT_TI_symbol_name("_EPWM4_TZINT")
    8966                      .dwattr $C$DW$1163, DW_AT_data_member_location[DW_OP_plus_uconst 0x76]
    8967                      .dwattr $C$DW$1163, DW_AT_accessibility(DW_ACCESS_public)
    8968              
    8969              $C$DW$1164      .dwtag  DW_TAG_member
    8970                      .dwattr $C$DW$1164, DW_AT_type(*$C$DW$T$220)
    8971                      .dwattr $C$DW$1164, DW_AT_name("rsvd2_5")
    8972                      .dwattr $C$DW$1164, DW_AT_TI_symbol_name("_rsvd2_5")
    8973                      .dwattr $C$DW$1164, DW_AT_data_member_location[DW_OP_plus_uconst 0x78]
    8974                      .dwattr $C$DW$1164, DW_AT_accessibility(DW_ACCESS_public)
TMS320C2000 Assembler PC v18.1.2 Sun Jun 17 14:52:32 2018

Tools Copyright (c) 1996-2017 Texas Instruments Incorporated
C:\Users\haowp\AppData\Local\Temp\{81472915-7FA4-430D-8ACB-BFB8F401620C} PAGE  169

    8975              
    8976              $C$DW$1165      .dwtag  DW_TAG_member
    8977                      .dwattr $C$DW$1165, DW_AT_type(*$C$DW$T$220)
    8978                      .dwattr $C$DW$1165, DW_AT_name("rsvd2_6")
    8979                      .dwattr $C$DW$1165, DW_AT_TI_symbol_name("_rsvd2_6")
    8980                      .dwattr $C$DW$1165, DW_AT_data_member_location[DW_OP_plus_uconst 0x7a]
    8981                      .dwattr $C$DW$1165, DW_AT_accessibility(DW_ACCESS_public)
    8982              
    8983              $C$DW$1166      .dwtag  DW_TAG_member
    8984                      .dwattr $C$DW$1166, DW_AT_type(*$C$DW$T$220)
    8985                      .dwattr $C$DW$1166, DW_AT_name("rsvd2_7")
    8986                      .dwattr $C$DW$1166, DW_AT_TI_symbol_name("_rsvd2_7")
    8987                      .dwattr $C$DW$1166, DW_AT_data_member_location[DW_OP_plus_uconst 0x7c]
    8988                      .dwattr $C$DW$1166, DW_AT_accessibility(DW_ACCESS_public)
    8989              
    8990              $C$DW$1167      .dwtag  DW_TAG_member
    8991                      .dwattr $C$DW$1167, DW_AT_type(*$C$DW$T$220)
    8992                      .dwattr $C$DW$1167, DW_AT_name("rsvd2_8")
    8993                      .dwattr $C$DW$1167, DW_AT_TI_symbol_name("_rsvd2_8")
    8994                      .dwattr $C$DW$1167, DW_AT_data_member_location[DW_OP_plus_uconst 0x7e]
    8995                      .dwattr $C$DW$1167, DW_AT_accessibility(DW_ACCESS_public)
    8996              
    8997              $C$DW$1168      .dwtag  DW_TAG_member
    8998                      .dwattr $C$DW$1168, DW_AT_type(*$C$DW$T$220)
    8999                      .dwattr $C$DW$1168, DW_AT_name("EPWM1_INT")
    9000                      .dwattr $C$DW$1168, DW_AT_TI_symbol_name("_EPWM1_INT")
    9001                      .dwattr $C$DW$1168, DW_AT_data_member_location[DW_OP_plus_uconst 0x80]
    9002                      .dwattr $C$DW$1168, DW_AT_accessibility(DW_ACCESS_public)
    9003              
    9004              $C$DW$1169      .dwtag  DW_TAG_member
    9005                      .dwattr $C$DW$1169, DW_AT_type(*$C$DW$T$220)
    9006                      .dwattr $C$DW$1169, DW_AT_name("EPWM2_INT")
    9007                      .dwattr $C$DW$1169, DW_AT_TI_symbol_name("_EPWM2_INT")
    9008                      .dwattr $C$DW$1169, DW_AT_data_member_location[DW_OP_plus_uconst 0x82]
    9009                      .dwattr $C$DW$1169, DW_AT_accessibility(DW_ACCESS_public)
    9010              
    9011              $C$DW$1170      .dwtag  DW_TAG_member
    9012                      .dwattr $C$DW$1170, DW_AT_type(*$C$DW$T$220)
    9013                      .dwattr $C$DW$1170, DW_AT_name("EPWM3_INT")
    9014                      .dwattr $C$DW$1170, DW_AT_TI_symbol_name("_EPWM3_INT")
    9015                      .dwattr $C$DW$1170, DW_AT_data_member_location[DW_OP_plus_uconst 0x84]
    9016                      .dwattr $C$DW$1170, DW_AT_accessibility(DW_ACCESS_public)
    9017              
    9018              $C$DW$1171      .dwtag  DW_TAG_member
    9019                      .dwattr $C$DW$1171, DW_AT_type(*$C$DW$T$220)
    9020                      .dwattr $C$DW$1171, DW_AT_name("EPWM4_INT")
    9021                      .dwattr $C$DW$1171, DW_AT_TI_symbol_name("_EPWM4_INT")
    9022                      .dwattr $C$DW$1171, DW_AT_data_member_location[DW_OP_plus_uconst 0x86]
    9023                      .dwattr $C$DW$1171, DW_AT_accessibility(DW_ACCESS_public)
    9024              
    9025              $C$DW$1172      .dwtag  DW_TAG_member
    9026                      .dwattr $C$DW$1172, DW_AT_type(*$C$DW$T$220)
    9027                      .dwattr $C$DW$1172, DW_AT_name("rsvd3_5")
    9028                      .dwattr $C$DW$1172, DW_AT_TI_symbol_name("_rsvd3_5")
    9029                      .dwattr $C$DW$1172, DW_AT_data_member_location[DW_OP_plus_uconst 0x88]
TMS320C2000 Assembler PC v18.1.2 Sun Jun 17 14:52:32 2018

Tools Copyright (c) 1996-2017 Texas Instruments Incorporated
C:\Users\haowp\AppData\Local\Temp\{81472915-7FA4-430D-8ACB-BFB8F401620C} PAGE  170

    9030                      .dwattr $C$DW$1172, DW_AT_accessibility(DW_ACCESS_public)
    9031              
    9032              $C$DW$1173      .dwtag  DW_TAG_member
    9033                      .dwattr $C$DW$1173, DW_AT_type(*$C$DW$T$220)
    9034                      .dwattr $C$DW$1173, DW_AT_name("rsvd3_6")
    9035                      .dwattr $C$DW$1173, DW_AT_TI_symbol_name("_rsvd3_6")
    9036                      .dwattr $C$DW$1173, DW_AT_data_member_location[DW_OP_plus_uconst 0x8a]
    9037                      .dwattr $C$DW$1173, DW_AT_accessibility(DW_ACCESS_public)
    9038              
    9039              $C$DW$1174      .dwtag  DW_TAG_member
    9040                      .dwattr $C$DW$1174, DW_AT_type(*$C$DW$T$220)
    9041                      .dwattr $C$DW$1174, DW_AT_name("rsvd3_7")
    9042                      .dwattr $C$DW$1174, DW_AT_TI_symbol_name("_rsvd3_7")
    9043                      .dwattr $C$DW$1174, DW_AT_data_member_location[DW_OP_plus_uconst 0x8c]
    9044                      .dwattr $C$DW$1174, DW_AT_accessibility(DW_ACCESS_public)
    9045              
    9046              $C$DW$1175      .dwtag  DW_TAG_member
    9047                      .dwattr $C$DW$1175, DW_AT_type(*$C$DW$T$220)
    9048                      .dwattr $C$DW$1175, DW_AT_name("rsvd3_8")
    9049                      .dwattr $C$DW$1175, DW_AT_TI_symbol_name("_rsvd3_8")
    9050                      .dwattr $C$DW$1175, DW_AT_data_member_location[DW_OP_plus_uconst 0x8e]
    9051                      .dwattr $C$DW$1175, DW_AT_accessibility(DW_ACCESS_public)
    9052              
    9053              $C$DW$1176      .dwtag  DW_TAG_member
    9054                      .dwattr $C$DW$1176, DW_AT_type(*$C$DW$T$220)
    9055                      .dwattr $C$DW$1176, DW_AT_name("ECAP1_INT")
    9056                      .dwattr $C$DW$1176, DW_AT_TI_symbol_name("_ECAP1_INT")
    9057                      .dwattr $C$DW$1176, DW_AT_data_member_location[DW_OP_plus_uconst 0x90]
    9058                      .dwattr $C$DW$1176, DW_AT_accessibility(DW_ACCESS_public)
    9059              
    9060              $C$DW$1177      .dwtag  DW_TAG_member
    9061                      .dwattr $C$DW$1177, DW_AT_type(*$C$DW$T$220)
    9062                      .dwattr $C$DW$1177, DW_AT_name("rsvd4_2")
    9063                      .dwattr $C$DW$1177, DW_AT_TI_symbol_name("_rsvd4_2")
    9064                      .dwattr $C$DW$1177, DW_AT_data_member_location[DW_OP_plus_uconst 0x92]
    9065                      .dwattr $C$DW$1177, DW_AT_accessibility(DW_ACCESS_public)
    9066              
    9067              $C$DW$1178      .dwtag  DW_TAG_member
    9068                      .dwattr $C$DW$1178, DW_AT_type(*$C$DW$T$220)
    9069                      .dwattr $C$DW$1178, DW_AT_name("rsvd4_3")
    9070                      .dwattr $C$DW$1178, DW_AT_TI_symbol_name("_rsvd4_3")
    9071                      .dwattr $C$DW$1178, DW_AT_data_member_location[DW_OP_plus_uconst 0x94]
    9072                      .dwattr $C$DW$1178, DW_AT_accessibility(DW_ACCESS_public)
    9073              
    9074              $C$DW$1179      .dwtag  DW_TAG_member
    9075                      .dwattr $C$DW$1179, DW_AT_type(*$C$DW$T$220)
    9076                      .dwattr $C$DW$1179, DW_AT_name("rsvd4_4")
    9077                      .dwattr $C$DW$1179, DW_AT_TI_symbol_name("_rsvd4_4")
    9078                      .dwattr $C$DW$1179, DW_AT_data_member_location[DW_OP_plus_uconst 0x96]
    9079                      .dwattr $C$DW$1179, DW_AT_accessibility(DW_ACCESS_public)
    9080              
    9081              $C$DW$1180      .dwtag  DW_TAG_member
    9082                      .dwattr $C$DW$1180, DW_AT_type(*$C$DW$T$220)
    9083                      .dwattr $C$DW$1180, DW_AT_name("rsvd4_5")
    9084                      .dwattr $C$DW$1180, DW_AT_TI_symbol_name("_rsvd4_5")
TMS320C2000 Assembler PC v18.1.2 Sun Jun 17 14:52:32 2018

Tools Copyright (c) 1996-2017 Texas Instruments Incorporated
C:\Users\haowp\AppData\Local\Temp\{81472915-7FA4-430D-8ACB-BFB8F401620C} PAGE  171

    9085                      .dwattr $C$DW$1180, DW_AT_data_member_location[DW_OP_plus_uconst 0x98]
    9086                      .dwattr $C$DW$1180, DW_AT_accessibility(DW_ACCESS_public)
    9087              
    9088              $C$DW$1181      .dwtag  DW_TAG_member
    9089                      .dwattr $C$DW$1181, DW_AT_type(*$C$DW$T$220)
    9090                      .dwattr $C$DW$1181, DW_AT_name("rsvd4_6")
    9091                      .dwattr $C$DW$1181, DW_AT_TI_symbol_name("_rsvd4_6")
    9092                      .dwattr $C$DW$1181, DW_AT_data_member_location[DW_OP_plus_uconst 0x9a]
    9093                      .dwattr $C$DW$1181, DW_AT_accessibility(DW_ACCESS_public)
    9094              
    9095              $C$DW$1182      .dwtag  DW_TAG_member
    9096                      .dwattr $C$DW$1182, DW_AT_type(*$C$DW$T$220)
    9097                      .dwattr $C$DW$1182, DW_AT_name("rsvd4_7")
    9098                      .dwattr $C$DW$1182, DW_AT_TI_symbol_name("_rsvd4_7")
    9099                      .dwattr $C$DW$1182, DW_AT_data_member_location[DW_OP_plus_uconst 0x9c]
    9100                      .dwattr $C$DW$1182, DW_AT_accessibility(DW_ACCESS_public)
    9101              
    9102              $C$DW$1183      .dwtag  DW_TAG_member
    9103                      .dwattr $C$DW$1183, DW_AT_type(*$C$DW$T$220)
    9104                      .dwattr $C$DW$1183, DW_AT_name("rsvd4_8")
    9105                      .dwattr $C$DW$1183, DW_AT_TI_symbol_name("_rsvd4_8")
    9106                      .dwattr $C$DW$1183, DW_AT_data_member_location[DW_OP_plus_uconst 0x9e]
    9107                      .dwattr $C$DW$1183, DW_AT_accessibility(DW_ACCESS_public)
    9108              
    9109              $C$DW$1184      .dwtag  DW_TAG_member
    9110                      .dwattr $C$DW$1184, DW_AT_type(*$C$DW$T$220)
    9111                      .dwattr $C$DW$1184, DW_AT_name("rsvd5_1")
    9112                      .dwattr $C$DW$1184, DW_AT_TI_symbol_name("_rsvd5_1")
    9113                      .dwattr $C$DW$1184, DW_AT_data_member_location[DW_OP_plus_uconst 0xa0]
    9114                      .dwattr $C$DW$1184, DW_AT_accessibility(DW_ACCESS_public)
    9115              
    9116              $C$DW$1185      .dwtag  DW_TAG_member
    9117                      .dwattr $C$DW$1185, DW_AT_type(*$C$DW$T$220)
    9118                      .dwattr $C$DW$1185, DW_AT_name("rsvd5_2")
    9119                      .dwattr $C$DW$1185, DW_AT_TI_symbol_name("_rsvd5_2")
    9120                      .dwattr $C$DW$1185, DW_AT_data_member_location[DW_OP_plus_uconst 0xa2]
    9121                      .dwattr $C$DW$1185, DW_AT_accessibility(DW_ACCESS_public)
    9122              
    9123              $C$DW$1186      .dwtag  DW_TAG_member
    9124                      .dwattr $C$DW$1186, DW_AT_type(*$C$DW$T$220)
    9125                      .dwattr $C$DW$1186, DW_AT_name("rsvd5_3")
    9126                      .dwattr $C$DW$1186, DW_AT_TI_symbol_name("_rsvd5_3")
    9127                      .dwattr $C$DW$1186, DW_AT_data_member_location[DW_OP_plus_uconst 0xa4]
    9128                      .dwattr $C$DW$1186, DW_AT_accessibility(DW_ACCESS_public)
    9129              
    9130              $C$DW$1187      .dwtag  DW_TAG_member
    9131                      .dwattr $C$DW$1187, DW_AT_type(*$C$DW$T$220)
    9132                      .dwattr $C$DW$1187, DW_AT_name("rsvd5_4")
    9133                      .dwattr $C$DW$1187, DW_AT_TI_symbol_name("_rsvd5_4")
    9134                      .dwattr $C$DW$1187, DW_AT_data_member_location[DW_OP_plus_uconst 0xa6]
    9135                      .dwattr $C$DW$1187, DW_AT_accessibility(DW_ACCESS_public)
    9136              
    9137              $C$DW$1188      .dwtag  DW_TAG_member
    9138                      .dwattr $C$DW$1188, DW_AT_type(*$C$DW$T$220)
    9139                      .dwattr $C$DW$1188, DW_AT_name("rsvd5_5")
TMS320C2000 Assembler PC v18.1.2 Sun Jun 17 14:52:32 2018

Tools Copyright (c) 1996-2017 Texas Instruments Incorporated
C:\Users\haowp\AppData\Local\Temp\{81472915-7FA4-430D-8ACB-BFB8F401620C} PAGE  172

    9140                      .dwattr $C$DW$1188, DW_AT_TI_symbol_name("_rsvd5_5")
    9141                      .dwattr $C$DW$1188, DW_AT_data_member_location[DW_OP_plus_uconst 0xa8]
    9142                      .dwattr $C$DW$1188, DW_AT_accessibility(DW_ACCESS_public)
    9143              
    9144              $C$DW$1189      .dwtag  DW_TAG_member
    9145                      .dwattr $C$DW$1189, DW_AT_type(*$C$DW$T$220)
    9146                      .dwattr $C$DW$1189, DW_AT_name("rsvd5_6")
    9147                      .dwattr $C$DW$1189, DW_AT_TI_symbol_name("_rsvd5_6")
    9148                      .dwattr $C$DW$1189, DW_AT_data_member_location[DW_OP_plus_uconst 0xaa]
    9149                      .dwattr $C$DW$1189, DW_AT_accessibility(DW_ACCESS_public)
    9150              
    9151              $C$DW$1190      .dwtag  DW_TAG_member
    9152                      .dwattr $C$DW$1190, DW_AT_type(*$C$DW$T$220)
    9153                      .dwattr $C$DW$1190, DW_AT_name("rsvd5_7")
    9154                      .dwattr $C$DW$1190, DW_AT_TI_symbol_name("_rsvd5_7")
    9155                      .dwattr $C$DW$1190, DW_AT_data_member_location[DW_OP_plus_uconst 0xac]
    9156                      .dwattr $C$DW$1190, DW_AT_accessibility(DW_ACCESS_public)
    9157              
    9158              $C$DW$1191      .dwtag  DW_TAG_member
    9159                      .dwattr $C$DW$1191, DW_AT_type(*$C$DW$T$220)
    9160                      .dwattr $C$DW$1191, DW_AT_name("rsvd5_8")
    9161                      .dwattr $C$DW$1191, DW_AT_TI_symbol_name("_rsvd5_8")
    9162                      .dwattr $C$DW$1191, DW_AT_data_member_location[DW_OP_plus_uconst 0xae]
    9163                      .dwattr $C$DW$1191, DW_AT_accessibility(DW_ACCESS_public)
    9164              
    9165              $C$DW$1192      .dwtag  DW_TAG_member
    9166                      .dwattr $C$DW$1192, DW_AT_type(*$C$DW$T$220)
    9167                      .dwattr $C$DW$1192, DW_AT_name("SPIRXINTA")
    9168                      .dwattr $C$DW$1192, DW_AT_TI_symbol_name("_SPIRXINTA")
    9169                      .dwattr $C$DW$1192, DW_AT_data_member_location[DW_OP_plus_uconst 0xb0]
    9170                      .dwattr $C$DW$1192, DW_AT_accessibility(DW_ACCESS_public)
    9171              
    9172              $C$DW$1193      .dwtag  DW_TAG_member
    9173                      .dwattr $C$DW$1193, DW_AT_type(*$C$DW$T$220)
    9174                      .dwattr $C$DW$1193, DW_AT_name("SPITXINTA")
    9175                      .dwattr $C$DW$1193, DW_AT_TI_symbol_name("_SPITXINTA")
    9176                      .dwattr $C$DW$1193, DW_AT_data_member_location[DW_OP_plus_uconst 0xb2]
    9177                      .dwattr $C$DW$1193, DW_AT_accessibility(DW_ACCESS_public)
    9178              
    9179              $C$DW$1194      .dwtag  DW_TAG_member
    9180                      .dwattr $C$DW$1194, DW_AT_type(*$C$DW$T$220)
    9181                      .dwattr $C$DW$1194, DW_AT_name("rsvd6_3")
    9182                      .dwattr $C$DW$1194, DW_AT_TI_symbol_name("_rsvd6_3")
    9183                      .dwattr $C$DW$1194, DW_AT_data_member_location[DW_OP_plus_uconst 0xb4]
    9184                      .dwattr $C$DW$1194, DW_AT_accessibility(DW_ACCESS_public)
    9185              
    9186              $C$DW$1195      .dwtag  DW_TAG_member
    9187                      .dwattr $C$DW$1195, DW_AT_type(*$C$DW$T$220)
    9188                      .dwattr $C$DW$1195, DW_AT_name("rsvd6_4")
    9189                      .dwattr $C$DW$1195, DW_AT_TI_symbol_name("_rsvd6_4")
    9190                      .dwattr $C$DW$1195, DW_AT_data_member_location[DW_OP_plus_uconst 0xb6]
    9191                      .dwattr $C$DW$1195, DW_AT_accessibility(DW_ACCESS_public)
    9192              
    9193              $C$DW$1196      .dwtag  DW_TAG_member
    9194                      .dwattr $C$DW$1196, DW_AT_type(*$C$DW$T$220)
TMS320C2000 Assembler PC v18.1.2 Sun Jun 17 14:52:32 2018

Tools Copyright (c) 1996-2017 Texas Instruments Incorporated
C:\Users\haowp\AppData\Local\Temp\{81472915-7FA4-430D-8ACB-BFB8F401620C} PAGE  173

    9195                      .dwattr $C$DW$1196, DW_AT_name("rsvd6_5")
    9196                      .dwattr $C$DW$1196, DW_AT_TI_symbol_name("_rsvd6_5")
    9197                      .dwattr $C$DW$1196, DW_AT_data_member_location[DW_OP_plus_uconst 0xb8]
    9198                      .dwattr $C$DW$1196, DW_AT_accessibility(DW_ACCESS_public)
    9199              
    9200              $C$DW$1197      .dwtag  DW_TAG_member
    9201                      .dwattr $C$DW$1197, DW_AT_type(*$C$DW$T$220)
    9202                      .dwattr $C$DW$1197, DW_AT_name("rsvd6_6")
    9203                      .dwattr $C$DW$1197, DW_AT_TI_symbol_name("_rsvd6_6")
    9204                      .dwattr $C$DW$1197, DW_AT_data_member_location[DW_OP_plus_uconst 0xba]
    9205                      .dwattr $C$DW$1197, DW_AT_accessibility(DW_ACCESS_public)
    9206              
    9207              $C$DW$1198      .dwtag  DW_TAG_member
    9208                      .dwattr $C$DW$1198, DW_AT_type(*$C$DW$T$220)
    9209                      .dwattr $C$DW$1198, DW_AT_name("rsvd6_7")
    9210                      .dwattr $C$DW$1198, DW_AT_TI_symbol_name("_rsvd6_7")
    9211                      .dwattr $C$DW$1198, DW_AT_data_member_location[DW_OP_plus_uconst 0xbc]
    9212                      .dwattr $C$DW$1198, DW_AT_accessibility(DW_ACCESS_public)
    9213              
    9214              $C$DW$1199      .dwtag  DW_TAG_member
    9215                      .dwattr $C$DW$1199, DW_AT_type(*$C$DW$T$220)
    9216                      .dwattr $C$DW$1199, DW_AT_name("rsvd6_8")
    9217                      .dwattr $C$DW$1199, DW_AT_TI_symbol_name("_rsvd6_8")
    9218                      .dwattr $C$DW$1199, DW_AT_data_member_location[DW_OP_plus_uconst 0xbe]
    9219                      .dwattr $C$DW$1199, DW_AT_accessibility(DW_ACCESS_public)
    9220              
    9221              $C$DW$1200      .dwtag  DW_TAG_member
    9222                      .dwattr $C$DW$1200, DW_AT_type(*$C$DW$T$220)
    9223                      .dwattr $C$DW$1200, DW_AT_name("rsvd7_1")
    9224                      .dwattr $C$DW$1200, DW_AT_TI_symbol_name("_rsvd7_1")
    9225                      .dwattr $C$DW$1200, DW_AT_data_member_location[DW_OP_plus_uconst 0xc0]
    9226                      .dwattr $C$DW$1200, DW_AT_accessibility(DW_ACCESS_public)
    9227              
    9228              $C$DW$1201      .dwtag  DW_TAG_member
    9229                      .dwattr $C$DW$1201, DW_AT_type(*$C$DW$T$220)
    9230                      .dwattr $C$DW$1201, DW_AT_name("rsvd7_2")
    9231                      .dwattr $C$DW$1201, DW_AT_TI_symbol_name("_rsvd7_2")
    9232                      .dwattr $C$DW$1201, DW_AT_data_member_location[DW_OP_plus_uconst 0xc2]
    9233                      .dwattr $C$DW$1201, DW_AT_accessibility(DW_ACCESS_public)
    9234              
    9235              $C$DW$1202      .dwtag  DW_TAG_member
    9236                      .dwattr $C$DW$1202, DW_AT_type(*$C$DW$T$220)
    9237                      .dwattr $C$DW$1202, DW_AT_name("rsvd7_3")
    9238                      .dwattr $C$DW$1202, DW_AT_TI_symbol_name("_rsvd7_3")
    9239                      .dwattr $C$DW$1202, DW_AT_data_member_location[DW_OP_plus_uconst 0xc4]
    9240                      .dwattr $C$DW$1202, DW_AT_accessibility(DW_ACCESS_public)
    9241              
    9242              $C$DW$1203      .dwtag  DW_TAG_member
    9243                      .dwattr $C$DW$1203, DW_AT_type(*$C$DW$T$220)
    9244                      .dwattr $C$DW$1203, DW_AT_name("rsvd7_4")
    9245                      .dwattr $C$DW$1203, DW_AT_TI_symbol_name("_rsvd7_4")
    9246                      .dwattr $C$DW$1203, DW_AT_data_member_location[DW_OP_plus_uconst 0xc6]
    9247                      .dwattr $C$DW$1203, DW_AT_accessibility(DW_ACCESS_public)
    9248              
    9249              $C$DW$1204      .dwtag  DW_TAG_member
TMS320C2000 Assembler PC v18.1.2 Sun Jun 17 14:52:32 2018

Tools Copyright (c) 1996-2017 Texas Instruments Incorporated
C:\Users\haowp\AppData\Local\Temp\{81472915-7FA4-430D-8ACB-BFB8F401620C} PAGE  174

    9250                      .dwattr $C$DW$1204, DW_AT_type(*$C$DW$T$220)
    9251                      .dwattr $C$DW$1204, DW_AT_name("rsvd7_5")
    9252                      .dwattr $C$DW$1204, DW_AT_TI_symbol_name("_rsvd7_5")
    9253                      .dwattr $C$DW$1204, DW_AT_data_member_location[DW_OP_plus_uconst 0xc8]
    9254                      .dwattr $C$DW$1204, DW_AT_accessibility(DW_ACCESS_public)
    9255              
    9256              $C$DW$1205      .dwtag  DW_TAG_member
    9257                      .dwattr $C$DW$1205, DW_AT_type(*$C$DW$T$220)
    9258                      .dwattr $C$DW$1205, DW_AT_name("rsvd7_6")
    9259                      .dwattr $C$DW$1205, DW_AT_TI_symbol_name("_rsvd7_6")
    9260                      .dwattr $C$DW$1205, DW_AT_data_member_location[DW_OP_plus_uconst 0xca]
    9261                      .dwattr $C$DW$1205, DW_AT_accessibility(DW_ACCESS_public)
    9262              
    9263              $C$DW$1206      .dwtag  DW_TAG_member
    9264                      .dwattr $C$DW$1206, DW_AT_type(*$C$DW$T$220)
    9265                      .dwattr $C$DW$1206, DW_AT_name("rsvd7_7")
    9266                      .dwattr $C$DW$1206, DW_AT_TI_symbol_name("_rsvd7_7")
    9267                      .dwattr $C$DW$1206, DW_AT_data_member_location[DW_OP_plus_uconst 0xcc]
    9268                      .dwattr $C$DW$1206, DW_AT_accessibility(DW_ACCESS_public)
    9269              
    9270              $C$DW$1207      .dwtag  DW_TAG_member
    9271                      .dwattr $C$DW$1207, DW_AT_type(*$C$DW$T$220)
    9272                      .dwattr $C$DW$1207, DW_AT_name("rsvd7_8")
    9273                      .dwattr $C$DW$1207, DW_AT_TI_symbol_name("_rsvd7_8")
    9274                      .dwattr $C$DW$1207, DW_AT_data_member_location[DW_OP_plus_uconst 0xce]
    9275                      .dwattr $C$DW$1207, DW_AT_accessibility(DW_ACCESS_public)
    9276              
    9277              $C$DW$1208      .dwtag  DW_TAG_member
    9278                      .dwattr $C$DW$1208, DW_AT_type(*$C$DW$T$220)
    9279                      .dwattr $C$DW$1208, DW_AT_name("I2CINT1A")
    9280                      .dwattr $C$DW$1208, DW_AT_TI_symbol_name("_I2CINT1A")
    9281                      .dwattr $C$DW$1208, DW_AT_data_member_location[DW_OP_plus_uconst 0xd0]
    9282                      .dwattr $C$DW$1208, DW_AT_accessibility(DW_ACCESS_public)
    9283              
    9284              $C$DW$1209      .dwtag  DW_TAG_member
    9285                      .dwattr $C$DW$1209, DW_AT_type(*$C$DW$T$220)
    9286                      .dwattr $C$DW$1209, DW_AT_name("I2CINT2A")
    9287                      .dwattr $C$DW$1209, DW_AT_TI_symbol_name("_I2CINT2A")
    9288                      .dwattr $C$DW$1209, DW_AT_data_member_location[DW_OP_plus_uconst 0xd2]
    9289                      .dwattr $C$DW$1209, DW_AT_accessibility(DW_ACCESS_public)
    9290              
    9291              $C$DW$1210      .dwtag  DW_TAG_member
    9292                      .dwattr $C$DW$1210, DW_AT_type(*$C$DW$T$220)
    9293                      .dwattr $C$DW$1210, DW_AT_name("rsvd8_3")
    9294                      .dwattr $C$DW$1210, DW_AT_TI_symbol_name("_rsvd8_3")
    9295                      .dwattr $C$DW$1210, DW_AT_data_member_location[DW_OP_plus_uconst 0xd4]
    9296                      .dwattr $C$DW$1210, DW_AT_accessibility(DW_ACCESS_public)
    9297              
    9298              $C$DW$1211      .dwtag  DW_TAG_member
    9299                      .dwattr $C$DW$1211, DW_AT_type(*$C$DW$T$220)
    9300                      .dwattr $C$DW$1211, DW_AT_name("rsvd8_4")
    9301                      .dwattr $C$DW$1211, DW_AT_TI_symbol_name("_rsvd8_4")
    9302                      .dwattr $C$DW$1211, DW_AT_data_member_location[DW_OP_plus_uconst 0xd6]
    9303                      .dwattr $C$DW$1211, DW_AT_accessibility(DW_ACCESS_public)
    9304              
TMS320C2000 Assembler PC v18.1.2 Sun Jun 17 14:52:32 2018

Tools Copyright (c) 1996-2017 Texas Instruments Incorporated
C:\Users\haowp\AppData\Local\Temp\{81472915-7FA4-430D-8ACB-BFB8F401620C} PAGE  175

    9305              $C$DW$1212      .dwtag  DW_TAG_member
    9306                      .dwattr $C$DW$1212, DW_AT_type(*$C$DW$T$220)
    9307                      .dwattr $C$DW$1212, DW_AT_name("rsvd8_5")
    9308                      .dwattr $C$DW$1212, DW_AT_TI_symbol_name("_rsvd8_5")
    9309                      .dwattr $C$DW$1212, DW_AT_data_member_location[DW_OP_plus_uconst 0xd8]
    9310                      .dwattr $C$DW$1212, DW_AT_accessibility(DW_ACCESS_public)
    9311              
    9312              $C$DW$1213      .dwtag  DW_TAG_member
    9313                      .dwattr $C$DW$1213, DW_AT_type(*$C$DW$T$220)
    9314                      .dwattr $C$DW$1213, DW_AT_name("rsvd8_6")
    9315                      .dwattr $C$DW$1213, DW_AT_TI_symbol_name("_rsvd8_6")
    9316                      .dwattr $C$DW$1213, DW_AT_data_member_location[DW_OP_plus_uconst 0xda]
    9317                      .dwattr $C$DW$1213, DW_AT_accessibility(DW_ACCESS_public)
    9318              
    9319              $C$DW$1214      .dwtag  DW_TAG_member
    9320                      .dwattr $C$DW$1214, DW_AT_type(*$C$DW$T$220)
    9321                      .dwattr $C$DW$1214, DW_AT_name("rsvd8_7")
    9322                      .dwattr $C$DW$1214, DW_AT_TI_symbol_name("_rsvd8_7")
    9323                      .dwattr $C$DW$1214, DW_AT_data_member_location[DW_OP_plus_uconst 0xdc]
    9324                      .dwattr $C$DW$1214, DW_AT_accessibility(DW_ACCESS_public)
    9325              
    9326              $C$DW$1215      .dwtag  DW_TAG_member
    9327                      .dwattr $C$DW$1215, DW_AT_type(*$C$DW$T$220)
    9328                      .dwattr $C$DW$1215, DW_AT_name("rsvd8_8")
    9329                      .dwattr $C$DW$1215, DW_AT_TI_symbol_name("_rsvd8_8")
    9330                      .dwattr $C$DW$1215, DW_AT_data_member_location[DW_OP_plus_uconst 0xde]
    9331                      .dwattr $C$DW$1215, DW_AT_accessibility(DW_ACCESS_public)
    9332              
    9333              $C$DW$1216      .dwtag  DW_TAG_member
    9334                      .dwattr $C$DW$1216, DW_AT_type(*$C$DW$T$220)
    9335                      .dwattr $C$DW$1216, DW_AT_name("SCIRXINTA")
    9336                      .dwattr $C$DW$1216, DW_AT_TI_symbol_name("_SCIRXINTA")
    9337                      .dwattr $C$DW$1216, DW_AT_data_member_location[DW_OP_plus_uconst 0xe0]
    9338                      .dwattr $C$DW$1216, DW_AT_accessibility(DW_ACCESS_public)
    9339              
    9340              $C$DW$1217      .dwtag  DW_TAG_member
    9341                      .dwattr $C$DW$1217, DW_AT_type(*$C$DW$T$220)
    9342                      .dwattr $C$DW$1217, DW_AT_name("SCITXINTA")
    9343                      .dwattr $C$DW$1217, DW_AT_TI_symbol_name("_SCITXINTA")
    9344                      .dwattr $C$DW$1217, DW_AT_data_member_location[DW_OP_plus_uconst 0xe2]
    9345                      .dwattr $C$DW$1217, DW_AT_accessibility(DW_ACCESS_public)
    9346              
    9347              $C$DW$1218      .dwtag  DW_TAG_member
    9348                      .dwattr $C$DW$1218, DW_AT_type(*$C$DW$T$220)
    9349                      .dwattr $C$DW$1218, DW_AT_name("rsvd9_3")
    9350                      .dwattr $C$DW$1218, DW_AT_TI_symbol_name("_rsvd9_3")
    9351                      .dwattr $C$DW$1218, DW_AT_data_member_location[DW_OP_plus_uconst 0xe4]
    9352                      .dwattr $C$DW$1218, DW_AT_accessibility(DW_ACCESS_public)
    9353              
    9354              $C$DW$1219      .dwtag  DW_TAG_member
    9355                      .dwattr $C$DW$1219, DW_AT_type(*$C$DW$T$220)
    9356                      .dwattr $C$DW$1219, DW_AT_name("rsvd9_4")
    9357                      .dwattr $C$DW$1219, DW_AT_TI_symbol_name("_rsvd9_4")
    9358                      .dwattr $C$DW$1219, DW_AT_data_member_location[DW_OP_plus_uconst 0xe6]
    9359                      .dwattr $C$DW$1219, DW_AT_accessibility(DW_ACCESS_public)
TMS320C2000 Assembler PC v18.1.2 Sun Jun 17 14:52:32 2018

Tools Copyright (c) 1996-2017 Texas Instruments Incorporated
C:\Users\haowp\AppData\Local\Temp\{81472915-7FA4-430D-8ACB-BFB8F401620C} PAGE  176

    9360              
    9361              $C$DW$1220      .dwtag  DW_TAG_member
    9362                      .dwattr $C$DW$1220, DW_AT_type(*$C$DW$T$220)
    9363                      .dwattr $C$DW$1220, DW_AT_name("rsvd9_5")
    9364                      .dwattr $C$DW$1220, DW_AT_TI_symbol_name("_rsvd9_5")
    9365                      .dwattr $C$DW$1220, DW_AT_data_member_location[DW_OP_plus_uconst 0xe8]
    9366                      .dwattr $C$DW$1220, DW_AT_accessibility(DW_ACCESS_public)
    9367              
    9368              $C$DW$1221      .dwtag  DW_TAG_member
    9369                      .dwattr $C$DW$1221, DW_AT_type(*$C$DW$T$220)
    9370                      .dwattr $C$DW$1221, DW_AT_name("rsvd9_6")
    9371                      .dwattr $C$DW$1221, DW_AT_TI_symbol_name("_rsvd9_6")
    9372                      .dwattr $C$DW$1221, DW_AT_data_member_location[DW_OP_plus_uconst 0xea]
    9373                      .dwattr $C$DW$1221, DW_AT_accessibility(DW_ACCESS_public)
    9374              
    9375              $C$DW$1222      .dwtag  DW_TAG_member
    9376                      .dwattr $C$DW$1222, DW_AT_type(*$C$DW$T$220)
    9377                      .dwattr $C$DW$1222, DW_AT_name("rsvd9_7")
    9378                      .dwattr $C$DW$1222, DW_AT_TI_symbol_name("_rsvd9_7")
    9379                      .dwattr $C$DW$1222, DW_AT_data_member_location[DW_OP_plus_uconst 0xec]
    9380                      .dwattr $C$DW$1222, DW_AT_accessibility(DW_ACCESS_public)
    9381              
    9382              $C$DW$1223      .dwtag  DW_TAG_member
    9383                      .dwattr $C$DW$1223, DW_AT_type(*$C$DW$T$220)
    9384                      .dwattr $C$DW$1223, DW_AT_name("rsvd9_8")
    9385                      .dwattr $C$DW$1223, DW_AT_TI_symbol_name("_rsvd9_8")
    9386                      .dwattr $C$DW$1223, DW_AT_data_member_location[DW_OP_plus_uconst 0xee]
    9387                      .dwattr $C$DW$1223, DW_AT_accessibility(DW_ACCESS_public)
    9388              
    9389              $C$DW$1224      .dwtag  DW_TAG_member
    9390                      .dwattr $C$DW$1224, DW_AT_type(*$C$DW$T$220)
    9391                      .dwattr $C$DW$1224, DW_AT_name("ADCINT1")
    9392                      .dwattr $C$DW$1224, DW_AT_TI_symbol_name("_ADCINT1")
    9393                      .dwattr $C$DW$1224, DW_AT_data_member_location[DW_OP_plus_uconst 0xf0]
    9394                      .dwattr $C$DW$1224, DW_AT_accessibility(DW_ACCESS_public)
    9395              
    9396              $C$DW$1225      .dwtag  DW_TAG_member
    9397                      .dwattr $C$DW$1225, DW_AT_type(*$C$DW$T$220)
    9398                      .dwattr $C$DW$1225, DW_AT_name("ADCINT2")
    9399                      .dwattr $C$DW$1225, DW_AT_TI_symbol_name("_ADCINT2")
    9400                      .dwattr $C$DW$1225, DW_AT_data_member_location[DW_OP_plus_uconst 0xf2]
    9401                      .dwattr $C$DW$1225, DW_AT_accessibility(DW_ACCESS_public)
    9402              
    9403              $C$DW$1226      .dwtag  DW_TAG_member
    9404                      .dwattr $C$DW$1226, DW_AT_type(*$C$DW$T$220)
    9405                      .dwattr $C$DW$1226, DW_AT_name("ADCINT3")
    9406                      .dwattr $C$DW$1226, DW_AT_TI_symbol_name("_ADCINT3")
    9407                      .dwattr $C$DW$1226, DW_AT_data_member_location[DW_OP_plus_uconst 0xf4]
    9408                      .dwattr $C$DW$1226, DW_AT_accessibility(DW_ACCESS_public)
    9409              
    9410              $C$DW$1227      .dwtag  DW_TAG_member
    9411                      .dwattr $C$DW$1227, DW_AT_type(*$C$DW$T$220)
    9412                      .dwattr $C$DW$1227, DW_AT_name("ADCINT4")
    9413                      .dwattr $C$DW$1227, DW_AT_TI_symbol_name("_ADCINT4")
    9414                      .dwattr $C$DW$1227, DW_AT_data_member_location[DW_OP_plus_uconst 0xf6]
TMS320C2000 Assembler PC v18.1.2 Sun Jun 17 14:52:32 2018

Tools Copyright (c) 1996-2017 Texas Instruments Incorporated
C:\Users\haowp\AppData\Local\Temp\{81472915-7FA4-430D-8ACB-BFB8F401620C} PAGE  177

    9415                      .dwattr $C$DW$1227, DW_AT_accessibility(DW_ACCESS_public)
    9416              
    9417              $C$DW$1228      .dwtag  DW_TAG_member
    9418                      .dwattr $C$DW$1228, DW_AT_type(*$C$DW$T$220)
    9419                      .dwattr $C$DW$1228, DW_AT_name("ADCINT5")
    9420                      .dwattr $C$DW$1228, DW_AT_TI_symbol_name("_ADCINT5")
    9421                      .dwattr $C$DW$1228, DW_AT_data_member_location[DW_OP_plus_uconst 0xf8]
    9422                      .dwattr $C$DW$1228, DW_AT_accessibility(DW_ACCESS_public)
    9423              
    9424              $C$DW$1229      .dwtag  DW_TAG_member
    9425                      .dwattr $C$DW$1229, DW_AT_type(*$C$DW$T$220)
    9426                      .dwattr $C$DW$1229, DW_AT_name("ADCINT6")
    9427                      .dwattr $C$DW$1229, DW_AT_TI_symbol_name("_ADCINT6")
    9428                      .dwattr $C$DW$1229, DW_AT_data_member_location[DW_OP_plus_uconst 0xfa]
    9429                      .dwattr $C$DW$1229, DW_AT_accessibility(DW_ACCESS_public)
    9430              
    9431              $C$DW$1230      .dwtag  DW_TAG_member
    9432                      .dwattr $C$DW$1230, DW_AT_type(*$C$DW$T$220)
    9433                      .dwattr $C$DW$1230, DW_AT_name("ADCINT7")
    9434                      .dwattr $C$DW$1230, DW_AT_TI_symbol_name("_ADCINT7")
    9435                      .dwattr $C$DW$1230, DW_AT_data_member_location[DW_OP_plus_uconst 0xfc]
    9436                      .dwattr $C$DW$1230, DW_AT_accessibility(DW_ACCESS_public)
    9437              
    9438              $C$DW$1231      .dwtag  DW_TAG_member
    9439                      .dwattr $C$DW$1231, DW_AT_type(*$C$DW$T$220)
    9440                      .dwattr $C$DW$1231, DW_AT_name("ADCINT8")
    9441                      .dwattr $C$DW$1231, DW_AT_TI_symbol_name("_ADCINT8")
    9442                      .dwattr $C$DW$1231, DW_AT_data_member_location[DW_OP_plus_uconst 0xfe]
    9443                      .dwattr $C$DW$1231, DW_AT_accessibility(DW_ACCESS_public)
    9444              
    9445              $C$DW$1232      .dwtag  DW_TAG_member
    9446                      .dwattr $C$DW$1232, DW_AT_type(*$C$DW$T$220)
    9447                      .dwattr $C$DW$1232, DW_AT_name("rsvd11_1")
    9448                      .dwattr $C$DW$1232, DW_AT_TI_symbol_name("_rsvd11_1")
    9449                      .dwattr $C$DW$1232, DW_AT_data_member_location[DW_OP_plus_uconst 0x100]
    9450                      .dwattr $C$DW$1232, DW_AT_accessibility(DW_ACCESS_public)
    9451              
    9452              $C$DW$1233      .dwtag  DW_TAG_member
    9453                      .dwattr $C$DW$1233, DW_AT_type(*$C$DW$T$220)
    9454                      .dwattr $C$DW$1233, DW_AT_name("rsvd11_2")
    9455                      .dwattr $C$DW$1233, DW_AT_TI_symbol_name("_rsvd11_2")
    9456                      .dwattr $C$DW$1233, DW_AT_data_member_location[DW_OP_plus_uconst 0x102]
    9457                      .dwattr $C$DW$1233, DW_AT_accessibility(DW_ACCESS_public)
    9458              
    9459              $C$DW$1234      .dwtag  DW_TAG_member
    9460                      .dwattr $C$DW$1234, DW_AT_type(*$C$DW$T$220)
    9461                      .dwattr $C$DW$1234, DW_AT_name("rsvd11_3")
    9462                      .dwattr $C$DW$1234, DW_AT_TI_symbol_name("_rsvd11_3")
    9463                      .dwattr $C$DW$1234, DW_AT_data_member_location[DW_OP_plus_uconst 0x104]
    9464                      .dwattr $C$DW$1234, DW_AT_accessibility(DW_ACCESS_public)
    9465              
    9466              $C$DW$1235      .dwtag  DW_TAG_member
    9467                      .dwattr $C$DW$1235, DW_AT_type(*$C$DW$T$220)
    9468                      .dwattr $C$DW$1235, DW_AT_name("rsvd11_4")
    9469                      .dwattr $C$DW$1235, DW_AT_TI_symbol_name("_rsvd11_4")
TMS320C2000 Assembler PC v18.1.2 Sun Jun 17 14:52:32 2018

Tools Copyright (c) 1996-2017 Texas Instruments Incorporated
C:\Users\haowp\AppData\Local\Temp\{81472915-7FA4-430D-8ACB-BFB8F401620C} PAGE  178

    9470                      .dwattr $C$DW$1235, DW_AT_data_member_location[DW_OP_plus_uconst 0x106]
    9471                      .dwattr $C$DW$1235, DW_AT_accessibility(DW_ACCESS_public)
    9472              
    9473              $C$DW$1236      .dwtag  DW_TAG_member
    9474                      .dwattr $C$DW$1236, DW_AT_type(*$C$DW$T$220)
    9475                      .dwattr $C$DW$1236, DW_AT_name("rsvd11_5")
    9476                      .dwattr $C$DW$1236, DW_AT_TI_symbol_name("_rsvd11_5")
    9477                      .dwattr $C$DW$1236, DW_AT_data_member_location[DW_OP_plus_uconst 0x108]
    9478                      .dwattr $C$DW$1236, DW_AT_accessibility(DW_ACCESS_public)
    9479              
    9480              $C$DW$1237      .dwtag  DW_TAG_member
    9481                      .dwattr $C$DW$1237, DW_AT_type(*$C$DW$T$220)
    9482                      .dwattr $C$DW$1237, DW_AT_name("rsvd11_6")
    9483                      .dwattr $C$DW$1237, DW_AT_TI_symbol_name("_rsvd11_6")
    9484                      .dwattr $C$DW$1237, DW_AT_data_member_location[DW_OP_plus_uconst 0x10a]
    9485                      .dwattr $C$DW$1237, DW_AT_accessibility(DW_ACCESS_public)
    9486              
    9487              $C$DW$1238      .dwtag  DW_TAG_member
    9488                      .dwattr $C$DW$1238, DW_AT_type(*$C$DW$T$220)
    9489                      .dwattr $C$DW$1238, DW_AT_name("rsvd11_7")
    9490                      .dwattr $C$DW$1238, DW_AT_TI_symbol_name("_rsvd11_7")
    9491                      .dwattr $C$DW$1238, DW_AT_data_member_location[DW_OP_plus_uconst 0x10c]
    9492                      .dwattr $C$DW$1238, DW_AT_accessibility(DW_ACCESS_public)
    9493              
    9494              $C$DW$1239      .dwtag  DW_TAG_member
    9495                      .dwattr $C$DW$1239, DW_AT_type(*$C$DW$T$220)
    9496                      .dwattr $C$DW$1239, DW_AT_name("rsvd11_8")
    9497                      .dwattr $C$DW$1239, DW_AT_TI_symbol_name("_rsvd11_8")
    9498                      .dwattr $C$DW$1239, DW_AT_data_member_location[DW_OP_plus_uconst 0x10e]
    9499                      .dwattr $C$DW$1239, DW_AT_accessibility(DW_ACCESS_public)
    9500              
    9501              $C$DW$1240      .dwtag  DW_TAG_member
    9502                      .dwattr $C$DW$1240, DW_AT_type(*$C$DW$T$220)
    9503                      .dwattr $C$DW$1240, DW_AT_name("XINT3")
    9504                      .dwattr $C$DW$1240, DW_AT_TI_symbol_name("_XINT3")
    9505                      .dwattr $C$DW$1240, DW_AT_data_member_location[DW_OP_plus_uconst 0x110]
    9506                      .dwattr $C$DW$1240, DW_AT_accessibility(DW_ACCESS_public)
    9507              
    9508              $C$DW$1241      .dwtag  DW_TAG_member
    9509                      .dwattr $C$DW$1241, DW_AT_type(*$C$DW$T$220)
    9510                      .dwattr $C$DW$1241, DW_AT_name("rsvd12_2")
    9511                      .dwattr $C$DW$1241, DW_AT_TI_symbol_name("_rsvd12_2")
    9512                      .dwattr $C$DW$1241, DW_AT_data_member_location[DW_OP_plus_uconst 0x112]
    9513                      .dwattr $C$DW$1241, DW_AT_accessibility(DW_ACCESS_public)
    9514              
    9515              $C$DW$1242      .dwtag  DW_TAG_member
    9516                      .dwattr $C$DW$1242, DW_AT_type(*$C$DW$T$220)
    9517                      .dwattr $C$DW$1242, DW_AT_name("rsvd12_3")
    9518                      .dwattr $C$DW$1242, DW_AT_TI_symbol_name("_rsvd12_3")
    9519                      .dwattr $C$DW$1242, DW_AT_data_member_location[DW_OP_plus_uconst 0x114]
    9520                      .dwattr $C$DW$1242, DW_AT_accessibility(DW_ACCESS_public)
    9521              
    9522              $C$DW$1243      .dwtag  DW_TAG_member
    9523                      .dwattr $C$DW$1243, DW_AT_type(*$C$DW$T$220)
    9524                      .dwattr $C$DW$1243, DW_AT_name("rsvd12_4")
TMS320C2000 Assembler PC v18.1.2 Sun Jun 17 14:52:32 2018

Tools Copyright (c) 1996-2017 Texas Instruments Incorporated
C:\Users\haowp\AppData\Local\Temp\{81472915-7FA4-430D-8ACB-BFB8F401620C} PAGE  179

    9525                      .dwattr $C$DW$1243, DW_AT_TI_symbol_name("_rsvd12_4")
    9526                      .dwattr $C$DW$1243, DW_AT_data_member_location[DW_OP_plus_uconst 0x116]
    9527                      .dwattr $C$DW$1243, DW_AT_accessibility(DW_ACCESS_public)
    9528              
    9529              $C$DW$1244      .dwtag  DW_TAG_member
    9530                      .dwattr $C$DW$1244, DW_AT_type(*$C$DW$T$220)
    9531                      .dwattr $C$DW$1244, DW_AT_name("rsvd12_5")
    9532                      .dwattr $C$DW$1244, DW_AT_TI_symbol_name("_rsvd12_5")
    9533                      .dwattr $C$DW$1244, DW_AT_data_member_location[DW_OP_plus_uconst 0x118]
    9534                      .dwattr $C$DW$1244, DW_AT_accessibility(DW_ACCESS_public)
    9535              
    9536              $C$DW$1245      .dwtag  DW_TAG_member
    9537                      .dwattr $C$DW$1245, DW_AT_type(*$C$DW$T$220)
    9538                      .dwattr $C$DW$1245, DW_AT_name("rsvd12_6")
    9539                      .dwattr $C$DW$1245, DW_AT_TI_symbol_name("_rsvd12_6")
    9540                      .dwattr $C$DW$1245, DW_AT_data_member_location[DW_OP_plus_uconst 0x11a]
    9541                      .dwattr $C$DW$1245, DW_AT_accessibility(DW_ACCESS_public)
    9542              
    9543              $C$DW$1246      .dwtag  DW_TAG_member
    9544                      .dwattr $C$DW$1246, DW_AT_type(*$C$DW$T$220)
    9545                      .dwattr $C$DW$1246, DW_AT_name("rsvd12_7")
    9546                      .dwattr $C$DW$1246, DW_AT_TI_symbol_name("_rsvd12_7")
    9547                      .dwattr $C$DW$1246, DW_AT_data_member_location[DW_OP_plus_uconst 0x11c]
    9548                      .dwattr $C$DW$1246, DW_AT_accessibility(DW_ACCESS_public)
    9549              
    9550              $C$DW$1247      .dwtag  DW_TAG_member
    9551                      .dwattr $C$DW$1247, DW_AT_type(*$C$DW$T$220)
    9552                      .dwattr $C$DW$1247, DW_AT_name("rsvd12_8")
    9553                      .dwattr $C$DW$1247, DW_AT_TI_symbol_name("_rsvd12_8")
    9554                      .dwattr $C$DW$1247, DW_AT_data_member_location[DW_OP_plus_uconst 0x11e]
    9555                      .dwattr $C$DW$1247, DW_AT_accessibility(DW_ACCESS_public)
    9556              
    9557              $C$DW$1248      .dwtag  DW_TAG_member
    9558                      .dwattr $C$DW$1248, DW_AT_type(*$C$DW$T$221)
    9559                      .dwattr $C$DW$1248, DW_AT_name("rsvd13")
    9560                      .dwattr $C$DW$1248, DW_AT_TI_symbol_name("_rsvd13")
    9561                      .dwattr $C$DW$1248, DW_AT_data_member_location[DW_OP_plus_uconst 0x120]
    9562                      .dwattr $C$DW$1248, DW_AT_accessibility(DW_ACCESS_public)
    9563              
    9564              $C$DW$1249      .dwtag  DW_TAG_member
    9565                      .dwattr $C$DW$1249, DW_AT_type(*$C$DW$T$28)
    9566                      .dwattr $C$DW$1249, DW_AT_name("XINTnCR")
    9567                      .dwattr $C$DW$1249, DW_AT_TI_symbol_name("_XINTnCR")
    9568                      .dwattr $C$DW$1249, DW_AT_data_member_location[DW_OP_plus_uconst 0x6390]
    9569                      .dwattr $C$DW$1249, DW_AT_accessibility(DW_ACCESS_public)
    9570              
    9571              $C$DW$1250      .dwtag  DW_TAG_member
    9572                      .dwattr $C$DW$1250, DW_AT_type(*$C$DW$T$27)
    9573                      .dwattr $C$DW$1250, DW_AT_name("rsvd14")
    9574                      .dwattr $C$DW$1250, DW_AT_TI_symbol_name("_rsvd14")
    9575                      .dwattr $C$DW$1250, DW_AT_data_member_location[DW_OP_plus_uconst 0x6393]
    9576                      .dwattr $C$DW$1250, DW_AT_accessibility(DW_ACCESS_public)
    9577              
    9578              $C$DW$1251      .dwtag  DW_TAG_member
    9579                      .dwattr $C$DW$1251, DW_AT_type(*$C$DW$T$28)
TMS320C2000 Assembler PC v18.1.2 Sun Jun 17 14:52:32 2018

Tools Copyright (c) 1996-2017 Texas Instruments Incorporated
C:\Users\haowp\AppData\Local\Temp\{81472915-7FA4-430D-8ACB-BFB8F401620C} PAGE  180

    9580                      .dwattr $C$DW$1251, DW_AT_name("XINTnCTR")
    9581                      .dwattr $C$DW$1251, DW_AT_TI_symbol_name("_XINTnCTR")
    9582                      .dwattr $C$DW$1251, DW_AT_data_member_location[DW_OP_plus_uconst 0x6398]
    9583                      .dwattr $C$DW$1251, DW_AT_accessibility(DW_ACCESS_public)
    9584              
    9585                      .dwendtag $C$DW$T$222
    9586              
    9587              $C$DW$T$299     .dwtag  DW_TAG_typedef
    9588                      .dwattr $C$DW$T$299, DW_AT_name("PIE_Obj")
    9589                      .dwattr $C$DW$T$299, DW_AT_type(*$C$DW$T$222)
    9590                      .dwattr $C$DW$T$299, DW_AT_language(DW_LANG_C)
    9591              
    9592              $C$DW$T$171     .dwtag  DW_TAG_pointer_type
    9593                      .dwattr $C$DW$T$171, DW_AT_type(*$C$DW$T$222)
    9594                      .dwattr $C$DW$T$171, DW_AT_address_class(0x20)
    9595              
    9596              $C$DW$T$172     .dwtag  DW_TAG_typedef
    9597                      .dwattr $C$DW$T$172, DW_AT_name("PIE_Handle")
    9598                      .dwattr $C$DW$T$172, DW_AT_type(*$C$DW$T$171)
    9599                      .dwattr $C$DW$T$172, DW_AT_language(DW_LANG_C)
    9600              
    9601              
    9602              $C$DW$T$223     .dwtag  DW_TAG_structure_type
    9603                      .dwattr $C$DW$T$223, DW_AT_name("_PLL_Obj_")
    9604                      .dwattr $C$DW$T$223, DW_AT_byte_size(0x11)
    9605              $C$DW$1252      .dwtag  DW_TAG_member
    9606                      .dwattr $C$DW$1252, DW_AT_type(*$C$DW$T$23)
    9607                      .dwattr $C$DW$1252, DW_AT_name("PLLSTS")
    9608                      .dwattr $C$DW$1252, DW_AT_TI_symbol_name("_PLLSTS")
    9609                      .dwattr $C$DW$1252, DW_AT_data_member_location[DW_OP_plus_uconst 0x0]
    9610                      .dwattr $C$DW$1252, DW_AT_accessibility(DW_ACCESS_public)
    9611              
    9612              $C$DW$1253      .dwtag  DW_TAG_member
    9613                      .dwattr $C$DW$1253, DW_AT_type(*$C$DW$T$23)
    9614                      .dwattr $C$DW$1253, DW_AT_name("rsvd_1")
    9615                      .dwattr $C$DW$1253, DW_AT_TI_symbol_name("_rsvd_1")
    9616                      .dwattr $C$DW$1253, DW_AT_data_member_location[DW_OP_plus_uconst 0x1]
    9617                      .dwattr $C$DW$1253, DW_AT_accessibility(DW_ACCESS_public)
    9618              
    9619              $C$DW$1254      .dwtag  DW_TAG_member
    9620                      .dwattr $C$DW$1254, DW_AT_type(*$C$DW$T$23)
    9621                      .dwattr $C$DW$1254, DW_AT_name("PLLLOCKPRD")
    9622                      .dwattr $C$DW$1254, DW_AT_TI_symbol_name("_PLLLOCKPRD")
    9623                      .dwattr $C$DW$1254, DW_AT_data_member_location[DW_OP_plus_uconst 0x2]
    9624                      .dwattr $C$DW$1254, DW_AT_accessibility(DW_ACCESS_public)
    9625              
    9626              $C$DW$1255      .dwtag  DW_TAG_member
    9627                      .dwattr $C$DW$1255, DW_AT_type(*$C$DW$T$29)
    9628                      .dwattr $C$DW$1255, DW_AT_name("rsvd_2")
    9629                      .dwattr $C$DW$1255, DW_AT_TI_symbol_name("_rsvd_2")
    9630                      .dwattr $C$DW$1255, DW_AT_data_member_location[DW_OP_plus_uconst 0x3]
    9631                      .dwattr $C$DW$1255, DW_AT_accessibility(DW_ACCESS_public)
    9632              
    9633              $C$DW$1256      .dwtag  DW_TAG_member
    9634                      .dwattr $C$DW$1256, DW_AT_type(*$C$DW$T$23)
TMS320C2000 Assembler PC v18.1.2 Sun Jun 17 14:52:32 2018

Tools Copyright (c) 1996-2017 Texas Instruments Incorporated
C:\Users\haowp\AppData\Local\Temp\{81472915-7FA4-430D-8ACB-BFB8F401620C} PAGE  181

    9635                      .dwattr $C$DW$1256, DW_AT_name("PLLCR")
    9636                      .dwattr $C$DW$1256, DW_AT_TI_symbol_name("_PLLCR")
    9637                      .dwattr $C$DW$1256, DW_AT_data_member_location[DW_OP_plus_uconst 0x10]
    9638                      .dwattr $C$DW$1256, DW_AT_accessibility(DW_ACCESS_public)
    9639              
    9640                      .dwendtag $C$DW$T$223
    9641              
    9642              $C$DW$T$173     .dwtag  DW_TAG_pointer_type
    9643                      .dwattr $C$DW$T$173, DW_AT_type(*$C$DW$T$223)
    9644                      .dwattr $C$DW$T$173, DW_AT_address_class(0x20)
    9645              
    9646              $C$DW$T$174     .dwtag  DW_TAG_typedef
    9647                      .dwattr $C$DW$T$174, DW_AT_name("PLL_Handle")
    9648                      .dwattr $C$DW$T$174, DW_AT_type(*$C$DW$T$173)
    9649                      .dwattr $C$DW$T$174, DW_AT_language(DW_LANG_C)
    9650              
    9651              
    9652              $C$DW$T$224     .dwtag  DW_TAG_structure_type
    9653                      .dwattr $C$DW$T$224, DW_AT_name("_PWM_Obj_")
    9654                      .dwattr $C$DW$T$224, DW_AT_byte_size(0x3a)
    9655              $C$DW$1257      .dwtag  DW_TAG_member
    9656                      .dwattr $C$DW$1257, DW_AT_type(*$C$DW$T$23)
    9657                      .dwattr $C$DW$1257, DW_AT_name("TBCTL")
    9658                      .dwattr $C$DW$1257, DW_AT_TI_symbol_name("_TBCTL")
    9659                      .dwattr $C$DW$1257, DW_AT_data_member_location[DW_OP_plus_uconst 0x0]
    9660                      .dwattr $C$DW$1257, DW_AT_accessibility(DW_ACCESS_public)
    9661              
    9662              $C$DW$1258      .dwtag  DW_TAG_member
    9663                      .dwattr $C$DW$1258, DW_AT_type(*$C$DW$T$23)
    9664                      .dwattr $C$DW$1258, DW_AT_name("TBSTS")
    9665                      .dwattr $C$DW$1258, DW_AT_TI_symbol_name("_TBSTS")
    9666                      .dwattr $C$DW$1258, DW_AT_data_member_location[DW_OP_plus_uconst 0x1]
    9667                      .dwattr $C$DW$1258, DW_AT_accessibility(DW_ACCESS_public)
    9668              
    9669              $C$DW$1259      .dwtag  DW_TAG_member
    9670                      .dwattr $C$DW$1259, DW_AT_type(*$C$DW$T$23)
    9671                      .dwattr $C$DW$1259, DW_AT_name("TBPHSHR")
    9672                      .dwattr $C$DW$1259, DW_AT_TI_symbol_name("_TBPHSHR")
    9673                      .dwattr $C$DW$1259, DW_AT_data_member_location[DW_OP_plus_uconst 0x2]
    9674                      .dwattr $C$DW$1259, DW_AT_accessibility(DW_ACCESS_public)
    9675              
    9676              $C$DW$1260      .dwtag  DW_TAG_member
    9677                      .dwattr $C$DW$1260, DW_AT_type(*$C$DW$T$23)
    9678                      .dwattr $C$DW$1260, DW_AT_name("TBPHS")
    9679                      .dwattr $C$DW$1260, DW_AT_TI_symbol_name("_TBPHS")
    9680                      .dwattr $C$DW$1260, DW_AT_data_member_location[DW_OP_plus_uconst 0x3]
    9681                      .dwattr $C$DW$1260, DW_AT_accessibility(DW_ACCESS_public)
    9682              
    9683              $C$DW$1261      .dwtag  DW_TAG_member
    9684                      .dwattr $C$DW$1261, DW_AT_type(*$C$DW$T$23)
    9685                      .dwattr $C$DW$1261, DW_AT_name("TBCTR")
    9686                      .dwattr $C$DW$1261, DW_AT_TI_symbol_name("_TBCTR")
    9687                      .dwattr $C$DW$1261, DW_AT_data_member_location[DW_OP_plus_uconst 0x4]
    9688                      .dwattr $C$DW$1261, DW_AT_accessibility(DW_ACCESS_public)
    9689              
TMS320C2000 Assembler PC v18.1.2 Sun Jun 17 14:52:32 2018

Tools Copyright (c) 1996-2017 Texas Instruments Incorporated
C:\Users\haowp\AppData\Local\Temp\{81472915-7FA4-430D-8ACB-BFB8F401620C} PAGE  182

    9690              $C$DW$1262      .dwtag  DW_TAG_member
    9691                      .dwattr $C$DW$1262, DW_AT_type(*$C$DW$T$23)
    9692                      .dwattr $C$DW$1262, DW_AT_name("TBPRD")
    9693                      .dwattr $C$DW$1262, DW_AT_TI_symbol_name("_TBPRD")
    9694                      .dwattr $C$DW$1262, DW_AT_data_member_location[DW_OP_plus_uconst 0x5]
    9695                      .dwattr $C$DW$1262, DW_AT_accessibility(DW_ACCESS_public)
    9696              
    9697              $C$DW$1263      .dwtag  DW_TAG_member
    9698                      .dwattr $C$DW$1263, DW_AT_type(*$C$DW$T$23)
    9699                      .dwattr $C$DW$1263, DW_AT_name("TBPRDHR")
    9700                      .dwattr $C$DW$1263, DW_AT_TI_symbol_name("_TBPRDHR")
    9701                      .dwattr $C$DW$1263, DW_AT_data_member_location[DW_OP_plus_uconst 0x6]
    9702                      .dwattr $C$DW$1263, DW_AT_accessibility(DW_ACCESS_public)
    9703              
    9704              $C$DW$1264      .dwtag  DW_TAG_member
    9705                      .dwattr $C$DW$1264, DW_AT_type(*$C$DW$T$23)
    9706                      .dwattr $C$DW$1264, DW_AT_name("CMPCTL")
    9707                      .dwattr $C$DW$1264, DW_AT_TI_symbol_name("_CMPCTL")
    9708                      .dwattr $C$DW$1264, DW_AT_data_member_location[DW_OP_plus_uconst 0x7]
    9709                      .dwattr $C$DW$1264, DW_AT_accessibility(DW_ACCESS_public)
    9710              
    9711              $C$DW$1265      .dwtag  DW_TAG_member
    9712                      .dwattr $C$DW$1265, DW_AT_type(*$C$DW$T$23)
    9713                      .dwattr $C$DW$1265, DW_AT_name("CMPAHR")
    9714                      .dwattr $C$DW$1265, DW_AT_TI_symbol_name("_CMPAHR")
    9715                      .dwattr $C$DW$1265, DW_AT_data_member_location[DW_OP_plus_uconst 0x8]
    9716                      .dwattr $C$DW$1265, DW_AT_accessibility(DW_ACCESS_public)
    9717              
    9718              $C$DW$1266      .dwtag  DW_TAG_member
    9719                      .dwattr $C$DW$1266, DW_AT_type(*$C$DW$T$23)
    9720                      .dwattr $C$DW$1266, DW_AT_name("CMPA")
    9721                      .dwattr $C$DW$1266, DW_AT_TI_symbol_name("_CMPA")
    9722                      .dwattr $C$DW$1266, DW_AT_data_member_location[DW_OP_plus_uconst 0x9]
    9723                      .dwattr $C$DW$1266, DW_AT_accessibility(DW_ACCESS_public)
    9724              
    9725              $C$DW$1267      .dwtag  DW_TAG_member
    9726                      .dwattr $C$DW$1267, DW_AT_type(*$C$DW$T$23)
    9727                      .dwattr $C$DW$1267, DW_AT_name("CMPB")
    9728                      .dwattr $C$DW$1267, DW_AT_TI_symbol_name("_CMPB")
    9729                      .dwattr $C$DW$1267, DW_AT_data_member_location[DW_OP_plus_uconst 0xa]
    9730                      .dwattr $C$DW$1267, DW_AT_accessibility(DW_ACCESS_public)
    9731              
    9732              $C$DW$1268      .dwtag  DW_TAG_member
    9733                      .dwattr $C$DW$1268, DW_AT_type(*$C$DW$T$23)
    9734                      .dwattr $C$DW$1268, DW_AT_name("AQCTLA")
    9735                      .dwattr $C$DW$1268, DW_AT_TI_symbol_name("_AQCTLA")
    9736                      .dwattr $C$DW$1268, DW_AT_data_member_location[DW_OP_plus_uconst 0xb]
    9737                      .dwattr $C$DW$1268, DW_AT_accessibility(DW_ACCESS_public)
    9738              
    9739              $C$DW$1269      .dwtag  DW_TAG_member
    9740                      .dwattr $C$DW$1269, DW_AT_type(*$C$DW$T$23)
    9741                      .dwattr $C$DW$1269, DW_AT_name("AQCTLB")
    9742                      .dwattr $C$DW$1269, DW_AT_TI_symbol_name("_AQCTLB")
    9743                      .dwattr $C$DW$1269, DW_AT_data_member_location[DW_OP_plus_uconst 0xc]
    9744                      .dwattr $C$DW$1269, DW_AT_accessibility(DW_ACCESS_public)
TMS320C2000 Assembler PC v18.1.2 Sun Jun 17 14:52:32 2018

Tools Copyright (c) 1996-2017 Texas Instruments Incorporated
C:\Users\haowp\AppData\Local\Temp\{81472915-7FA4-430D-8ACB-BFB8F401620C} PAGE  183

    9745              
    9746              $C$DW$1270      .dwtag  DW_TAG_member
    9747                      .dwattr $C$DW$1270, DW_AT_type(*$C$DW$T$23)
    9748                      .dwattr $C$DW$1270, DW_AT_name("AQSFRC")
    9749                      .dwattr $C$DW$1270, DW_AT_TI_symbol_name("_AQSFRC")
    9750                      .dwattr $C$DW$1270, DW_AT_data_member_location[DW_OP_plus_uconst 0xd]
    9751                      .dwattr $C$DW$1270, DW_AT_accessibility(DW_ACCESS_public)
    9752              
    9753              $C$DW$1271      .dwtag  DW_TAG_member
    9754                      .dwattr $C$DW$1271, DW_AT_type(*$C$DW$T$23)
    9755                      .dwattr $C$DW$1271, DW_AT_name("AQCSFRC")
    9756                      .dwattr $C$DW$1271, DW_AT_TI_symbol_name("_AQCSFRC")
    9757                      .dwattr $C$DW$1271, DW_AT_data_member_location[DW_OP_plus_uconst 0xe]
    9758                      .dwattr $C$DW$1271, DW_AT_accessibility(DW_ACCESS_public)
    9759              
    9760              $C$DW$1272      .dwtag  DW_TAG_member
    9761                      .dwattr $C$DW$1272, DW_AT_type(*$C$DW$T$23)
    9762                      .dwattr $C$DW$1272, DW_AT_name("DBCTL")
    9763                      .dwattr $C$DW$1272, DW_AT_TI_symbol_name("_DBCTL")
    9764                      .dwattr $C$DW$1272, DW_AT_data_member_location[DW_OP_plus_uconst 0xf]
    9765                      .dwattr $C$DW$1272, DW_AT_accessibility(DW_ACCESS_public)
    9766              
    9767              $C$DW$1273      .dwtag  DW_TAG_member
    9768                      .dwattr $C$DW$1273, DW_AT_type(*$C$DW$T$23)
    9769                      .dwattr $C$DW$1273, DW_AT_name("DBRED")
    9770                      .dwattr $C$DW$1273, DW_AT_TI_symbol_name("_DBRED")
    9771                      .dwattr $C$DW$1273, DW_AT_data_member_location[DW_OP_plus_uconst 0x10]
    9772                      .dwattr $C$DW$1273, DW_AT_accessibility(DW_ACCESS_public)
    9773              
    9774              $C$DW$1274      .dwtag  DW_TAG_member
    9775                      .dwattr $C$DW$1274, DW_AT_type(*$C$DW$T$23)
    9776                      .dwattr $C$DW$1274, DW_AT_name("DBFED")
    9777                      .dwattr $C$DW$1274, DW_AT_TI_symbol_name("_DBFED")
    9778                      .dwattr $C$DW$1274, DW_AT_data_member_location[DW_OP_plus_uconst 0x11]
    9779                      .dwattr $C$DW$1274, DW_AT_accessibility(DW_ACCESS_public)
    9780              
    9781              $C$DW$1275      .dwtag  DW_TAG_member
    9782                      .dwattr $C$DW$1275, DW_AT_type(*$C$DW$T$23)
    9783                      .dwattr $C$DW$1275, DW_AT_name("TZSEL")
    9784                      .dwattr $C$DW$1275, DW_AT_TI_symbol_name("_TZSEL")
    9785                      .dwattr $C$DW$1275, DW_AT_data_member_location[DW_OP_plus_uconst 0x12]
    9786                      .dwattr $C$DW$1275, DW_AT_accessibility(DW_ACCESS_public)
    9787              
    9788              $C$DW$1276      .dwtag  DW_TAG_member
    9789                      .dwattr $C$DW$1276, DW_AT_type(*$C$DW$T$23)
    9790                      .dwattr $C$DW$1276, DW_AT_name("TZDCSEL")
    9791                      .dwattr $C$DW$1276, DW_AT_TI_symbol_name("_TZDCSEL")
    9792                      .dwattr $C$DW$1276, DW_AT_data_member_location[DW_OP_plus_uconst 0x13]
    9793                      .dwattr $C$DW$1276, DW_AT_accessibility(DW_ACCESS_public)
    9794              
    9795              $C$DW$1277      .dwtag  DW_TAG_member
    9796                      .dwattr $C$DW$1277, DW_AT_type(*$C$DW$T$23)
    9797                      .dwattr $C$DW$1277, DW_AT_name("TZCTL")
    9798                      .dwattr $C$DW$1277, DW_AT_TI_symbol_name("_TZCTL")
    9799                      .dwattr $C$DW$1277, DW_AT_data_member_location[DW_OP_plus_uconst 0x14]
TMS320C2000 Assembler PC v18.1.2 Sun Jun 17 14:52:32 2018

Tools Copyright (c) 1996-2017 Texas Instruments Incorporated
C:\Users\haowp\AppData\Local\Temp\{81472915-7FA4-430D-8ACB-BFB8F401620C} PAGE  184

    9800                      .dwattr $C$DW$1277, DW_AT_accessibility(DW_ACCESS_public)
    9801              
    9802              $C$DW$1278      .dwtag  DW_TAG_member
    9803                      .dwattr $C$DW$1278, DW_AT_type(*$C$DW$T$23)
    9804                      .dwattr $C$DW$1278, DW_AT_name("TZEINT")
    9805                      .dwattr $C$DW$1278, DW_AT_TI_symbol_name("_TZEINT")
    9806                      .dwattr $C$DW$1278, DW_AT_data_member_location[DW_OP_plus_uconst 0x15]
    9807                      .dwattr $C$DW$1278, DW_AT_accessibility(DW_ACCESS_public)
    9808              
    9809              $C$DW$1279      .dwtag  DW_TAG_member
    9810                      .dwattr $C$DW$1279, DW_AT_type(*$C$DW$T$23)
    9811                      .dwattr $C$DW$1279, DW_AT_name("TZFLG")
    9812                      .dwattr $C$DW$1279, DW_AT_TI_symbol_name("_TZFLG")
    9813                      .dwattr $C$DW$1279, DW_AT_data_member_location[DW_OP_plus_uconst 0x16]
    9814                      .dwattr $C$DW$1279, DW_AT_accessibility(DW_ACCESS_public)
    9815              
    9816              $C$DW$1280      .dwtag  DW_TAG_member
    9817                      .dwattr $C$DW$1280, DW_AT_type(*$C$DW$T$23)
    9818                      .dwattr $C$DW$1280, DW_AT_name("TZCLR")
    9819                      .dwattr $C$DW$1280, DW_AT_TI_symbol_name("_TZCLR")
    9820                      .dwattr $C$DW$1280, DW_AT_data_member_location[DW_OP_plus_uconst 0x17]
    9821                      .dwattr $C$DW$1280, DW_AT_accessibility(DW_ACCESS_public)
    9822              
    9823              $C$DW$1281      .dwtag  DW_TAG_member
    9824                      .dwattr $C$DW$1281, DW_AT_type(*$C$DW$T$23)
    9825                      .dwattr $C$DW$1281, DW_AT_name("TZFRC")
    9826                      .dwattr $C$DW$1281, DW_AT_TI_symbol_name("_TZFRC")
    9827                      .dwattr $C$DW$1281, DW_AT_data_member_location[DW_OP_plus_uconst 0x18]
    9828                      .dwattr $C$DW$1281, DW_AT_accessibility(DW_ACCESS_public)
    9829              
    9830              $C$DW$1282      .dwtag  DW_TAG_member
    9831                      .dwattr $C$DW$1282, DW_AT_type(*$C$DW$T$23)
    9832                      .dwattr $C$DW$1282, DW_AT_name("ETSEL")
    9833                      .dwattr $C$DW$1282, DW_AT_TI_symbol_name("_ETSEL")
    9834                      .dwattr $C$DW$1282, DW_AT_data_member_location[DW_OP_plus_uconst 0x19]
    9835                      .dwattr $C$DW$1282, DW_AT_accessibility(DW_ACCESS_public)
    9836              
    9837              $C$DW$1283      .dwtag  DW_TAG_member
    9838                      .dwattr $C$DW$1283, DW_AT_type(*$C$DW$T$23)
    9839                      .dwattr $C$DW$1283, DW_AT_name("ETPS")
    9840                      .dwattr $C$DW$1283, DW_AT_TI_symbol_name("_ETPS")
    9841                      .dwattr $C$DW$1283, DW_AT_data_member_location[DW_OP_plus_uconst 0x1a]
    9842                      .dwattr $C$DW$1283, DW_AT_accessibility(DW_ACCESS_public)
    9843              
    9844              $C$DW$1284      .dwtag  DW_TAG_member
    9845                      .dwattr $C$DW$1284, DW_AT_type(*$C$DW$T$23)
    9846                      .dwattr $C$DW$1284, DW_AT_name("ETFLG")
    9847                      .dwattr $C$DW$1284, DW_AT_TI_symbol_name("_ETFLG")
    9848                      .dwattr $C$DW$1284, DW_AT_data_member_location[DW_OP_plus_uconst 0x1b]
    9849                      .dwattr $C$DW$1284, DW_AT_accessibility(DW_ACCESS_public)
    9850              
    9851              $C$DW$1285      .dwtag  DW_TAG_member
    9852                      .dwattr $C$DW$1285, DW_AT_type(*$C$DW$T$23)
    9853                      .dwattr $C$DW$1285, DW_AT_name("ETCLR")
    9854                      .dwattr $C$DW$1285, DW_AT_TI_symbol_name("_ETCLR")
TMS320C2000 Assembler PC v18.1.2 Sun Jun 17 14:52:32 2018

Tools Copyright (c) 1996-2017 Texas Instruments Incorporated
C:\Users\haowp\AppData\Local\Temp\{81472915-7FA4-430D-8ACB-BFB8F401620C} PAGE  185

    9855                      .dwattr $C$DW$1285, DW_AT_data_member_location[DW_OP_plus_uconst 0x1c]
    9856                      .dwattr $C$DW$1285, DW_AT_accessibility(DW_ACCESS_public)
    9857              
    9858              $C$DW$1286      .dwtag  DW_TAG_member
    9859                      .dwattr $C$DW$1286, DW_AT_type(*$C$DW$T$23)
    9860                      .dwattr $C$DW$1286, DW_AT_name("ETFRC")
    9861                      .dwattr $C$DW$1286, DW_AT_TI_symbol_name("_ETFRC")
    9862                      .dwattr $C$DW$1286, DW_AT_data_member_location[DW_OP_plus_uconst 0x1d]
    9863                      .dwattr $C$DW$1286, DW_AT_accessibility(DW_ACCESS_public)
    9864              
    9865              $C$DW$1287      .dwtag  DW_TAG_member
    9866                      .dwattr $C$DW$1287, DW_AT_type(*$C$DW$T$23)
    9867                      .dwattr $C$DW$1287, DW_AT_name("PCCTL")
    9868                      .dwattr $C$DW$1287, DW_AT_TI_symbol_name("_PCCTL")
    9869                      .dwattr $C$DW$1287, DW_AT_data_member_location[DW_OP_plus_uconst 0x1e]
    9870                      .dwattr $C$DW$1287, DW_AT_accessibility(DW_ACCESS_public)
    9871              
    9872              $C$DW$1288      .dwtag  DW_TAG_member
    9873                      .dwattr $C$DW$1288, DW_AT_type(*$C$DW$T$23)
    9874                      .dwattr $C$DW$1288, DW_AT_name("rsvd_1")
    9875                      .dwattr $C$DW$1288, DW_AT_TI_symbol_name("_rsvd_1")
    9876                      .dwattr $C$DW$1288, DW_AT_data_member_location[DW_OP_plus_uconst 0x1f]
    9877                      .dwattr $C$DW$1288, DW_AT_accessibility(DW_ACCESS_public)
    9878              
    9879              $C$DW$1289      .dwtag  DW_TAG_member
    9880                      .dwattr $C$DW$1289, DW_AT_type(*$C$DW$T$23)
    9881                      .dwattr $C$DW$1289, DW_AT_name("HRCNFG")
    9882                      .dwattr $C$DW$1289, DW_AT_TI_symbol_name("_HRCNFG")
    9883                      .dwattr $C$DW$1289, DW_AT_data_member_location[DW_OP_plus_uconst 0x20]
    9884                      .dwattr $C$DW$1289, DW_AT_accessibility(DW_ACCESS_public)
    9885              
    9886              $C$DW$1290      .dwtag  DW_TAG_member
    9887                      .dwattr $C$DW$1290, DW_AT_type(*$C$DW$T$23)
    9888                      .dwattr $C$DW$1290, DW_AT_name("HRPWR")
    9889                      .dwattr $C$DW$1290, DW_AT_TI_symbol_name("_HRPWR")
    9890                      .dwattr $C$DW$1290, DW_AT_data_member_location[DW_OP_plus_uconst 0x21]
    9891                      .dwattr $C$DW$1290, DW_AT_accessibility(DW_ACCESS_public)
    9892              
    9893              $C$DW$1291      .dwtag  DW_TAG_member
    9894                      .dwattr $C$DW$1291, DW_AT_type(*$C$DW$T$152)
    9895                      .dwattr $C$DW$1291, DW_AT_name("rsvd_2")
    9896                      .dwattr $C$DW$1291, DW_AT_TI_symbol_name("_rsvd_2")
    9897                      .dwattr $C$DW$1291, DW_AT_data_member_location[DW_OP_plus_uconst 0x22]
    9898                      .dwattr $C$DW$1291, DW_AT_accessibility(DW_ACCESS_public)
    9899              
    9900              $C$DW$1292      .dwtag  DW_TAG_member
    9901                      .dwattr $C$DW$1292, DW_AT_type(*$C$DW$T$23)
    9902                      .dwattr $C$DW$1292, DW_AT_name("HRMSTEP")
    9903                      .dwattr $C$DW$1292, DW_AT_TI_symbol_name("_HRMSTEP")
    9904                      .dwattr $C$DW$1292, DW_AT_data_member_location[DW_OP_plus_uconst 0x26]
    9905                      .dwattr $C$DW$1292, DW_AT_accessibility(DW_ACCESS_public)
    9906              
    9907              $C$DW$1293      .dwtag  DW_TAG_member
    9908                      .dwattr $C$DW$1293, DW_AT_type(*$C$DW$T$23)
    9909                      .dwattr $C$DW$1293, DW_AT_name("rsvd_3")
TMS320C2000 Assembler PC v18.1.2 Sun Jun 17 14:52:32 2018

Tools Copyright (c) 1996-2017 Texas Instruments Incorporated
C:\Users\haowp\AppData\Local\Temp\{81472915-7FA4-430D-8ACB-BFB8F401620C} PAGE  186

    9910                      .dwattr $C$DW$1293, DW_AT_TI_symbol_name("_rsvd_3")
    9911                      .dwattr $C$DW$1293, DW_AT_data_member_location[DW_OP_plus_uconst 0x27]
    9912                      .dwattr $C$DW$1293, DW_AT_accessibility(DW_ACCESS_public)
    9913              
    9914              $C$DW$1294      .dwtag  DW_TAG_member
    9915                      .dwattr $C$DW$1294, DW_AT_type(*$C$DW$T$23)
    9916                      .dwattr $C$DW$1294, DW_AT_name("HRPCTL")
    9917                      .dwattr $C$DW$1294, DW_AT_TI_symbol_name("_HRPCTL")
    9918                      .dwattr $C$DW$1294, DW_AT_data_member_location[DW_OP_plus_uconst 0x28]
    9919                      .dwattr $C$DW$1294, DW_AT_accessibility(DW_ACCESS_public)
    9920              
    9921              $C$DW$1295      .dwtag  DW_TAG_member
    9922                      .dwattr $C$DW$1295, DW_AT_type(*$C$DW$T$23)
    9923                      .dwattr $C$DW$1295, DW_AT_name("rsvd_4")
    9924                      .dwattr $C$DW$1295, DW_AT_TI_symbol_name("_rsvd_4")
    9925                      .dwattr $C$DW$1295, DW_AT_data_member_location[DW_OP_plus_uconst 0x29]
    9926                      .dwattr $C$DW$1295, DW_AT_accessibility(DW_ACCESS_public)
    9927              
    9928              $C$DW$1296      .dwtag  DW_TAG_member
    9929                      .dwattr $C$DW$1296, DW_AT_type(*$C$DW$T$23)
    9930                      .dwattr $C$DW$1296, DW_AT_name("TBPRDHRM")
    9931                      .dwattr $C$DW$1296, DW_AT_TI_symbol_name("_TBPRDHRM")
    9932                      .dwattr $C$DW$1296, DW_AT_data_member_location[DW_OP_plus_uconst 0x2a]
    9933                      .dwattr $C$DW$1296, DW_AT_accessibility(DW_ACCESS_public)
    9934              
    9935              $C$DW$1297      .dwtag  DW_TAG_member
    9936                      .dwattr $C$DW$1297, DW_AT_type(*$C$DW$T$23)
    9937                      .dwattr $C$DW$1297, DW_AT_name("TBPRDM")
    9938                      .dwattr $C$DW$1297, DW_AT_TI_symbol_name("_TBPRDM")
    9939                      .dwattr $C$DW$1297, DW_AT_data_member_location[DW_OP_plus_uconst 0x2b]
    9940                      .dwattr $C$DW$1297, DW_AT_accessibility(DW_ACCESS_public)
    9941              
    9942              $C$DW$1298      .dwtag  DW_TAG_member
    9943                      .dwattr $C$DW$1298, DW_AT_type(*$C$DW$T$23)
    9944                      .dwattr $C$DW$1298, DW_AT_name("CMPAHRM")
    9945                      .dwattr $C$DW$1298, DW_AT_TI_symbol_name("_CMPAHRM")
    9946                      .dwattr $C$DW$1298, DW_AT_data_member_location[DW_OP_plus_uconst 0x2c]
    9947                      .dwattr $C$DW$1298, DW_AT_accessibility(DW_ACCESS_public)
    9948              
    9949              $C$DW$1299      .dwtag  DW_TAG_member
    9950                      .dwattr $C$DW$1299, DW_AT_type(*$C$DW$T$23)
    9951                      .dwattr $C$DW$1299, DW_AT_name("CMPAM")
    9952                      .dwattr $C$DW$1299, DW_AT_TI_symbol_name("_CMPAM")
    9953                      .dwattr $C$DW$1299, DW_AT_data_member_location[DW_OP_plus_uconst 0x2d]
    9954                      .dwattr $C$DW$1299, DW_AT_accessibility(DW_ACCESS_public)
    9955              
    9956              $C$DW$1300      .dwtag  DW_TAG_member
    9957                      .dwattr $C$DW$1300, DW_AT_type(*$C$DW$T$26)
    9958                      .dwattr $C$DW$1300, DW_AT_name("rsvd_5")
    9959                      .dwattr $C$DW$1300, DW_AT_TI_symbol_name("_rsvd_5")
    9960                      .dwattr $C$DW$1300, DW_AT_data_member_location[DW_OP_plus_uconst 0x2e]
    9961                      .dwattr $C$DW$1300, DW_AT_accessibility(DW_ACCESS_public)
    9962              
    9963              $C$DW$1301      .dwtag  DW_TAG_member
    9964                      .dwattr $C$DW$1301, DW_AT_type(*$C$DW$T$23)
TMS320C2000 Assembler PC v18.1.2 Sun Jun 17 14:52:32 2018

Tools Copyright (c) 1996-2017 Texas Instruments Incorporated
C:\Users\haowp\AppData\Local\Temp\{81472915-7FA4-430D-8ACB-BFB8F401620C} PAGE  187

    9965                      .dwattr $C$DW$1301, DW_AT_name("DCTRIPSEL")
    9966                      .dwattr $C$DW$1301, DW_AT_TI_symbol_name("_DCTRIPSEL")
    9967                      .dwattr $C$DW$1301, DW_AT_data_member_location[DW_OP_plus_uconst 0x30]
    9968                      .dwattr $C$DW$1301, DW_AT_accessibility(DW_ACCESS_public)
    9969              
    9970              $C$DW$1302      .dwtag  DW_TAG_member
    9971                      .dwattr $C$DW$1302, DW_AT_type(*$C$DW$T$23)
    9972                      .dwattr $C$DW$1302, DW_AT_name("DCACTL")
    9973                      .dwattr $C$DW$1302, DW_AT_TI_symbol_name("_DCACTL")
    9974                      .dwattr $C$DW$1302, DW_AT_data_member_location[DW_OP_plus_uconst 0x31]
    9975                      .dwattr $C$DW$1302, DW_AT_accessibility(DW_ACCESS_public)
    9976              
    9977              $C$DW$1303      .dwtag  DW_TAG_member
    9978                      .dwattr $C$DW$1303, DW_AT_type(*$C$DW$T$23)
    9979                      .dwattr $C$DW$1303, DW_AT_name("DCBCTL")
    9980                      .dwattr $C$DW$1303, DW_AT_TI_symbol_name("_DCBCTL")
    9981                      .dwattr $C$DW$1303, DW_AT_data_member_location[DW_OP_plus_uconst 0x32]
    9982                      .dwattr $C$DW$1303, DW_AT_accessibility(DW_ACCESS_public)
    9983              
    9984              $C$DW$1304      .dwtag  DW_TAG_member
    9985                      .dwattr $C$DW$1304, DW_AT_type(*$C$DW$T$23)
    9986                      .dwattr $C$DW$1304, DW_AT_name("DCFCTL")
    9987                      .dwattr $C$DW$1304, DW_AT_TI_symbol_name("_DCFCTL")
    9988                      .dwattr $C$DW$1304, DW_AT_data_member_location[DW_OP_plus_uconst 0x33]
    9989                      .dwattr $C$DW$1304, DW_AT_accessibility(DW_ACCESS_public)
    9990              
    9991              $C$DW$1305      .dwtag  DW_TAG_member
    9992                      .dwattr $C$DW$1305, DW_AT_type(*$C$DW$T$23)
    9993                      .dwattr $C$DW$1305, DW_AT_name("DCCAPCTL")
    9994                      .dwattr $C$DW$1305, DW_AT_TI_symbol_name("_DCCAPCTL")
    9995                      .dwattr $C$DW$1305, DW_AT_data_member_location[DW_OP_plus_uconst 0x34]
    9996                      .dwattr $C$DW$1305, DW_AT_accessibility(DW_ACCESS_public)
    9997              
    9998              $C$DW$1306      .dwtag  DW_TAG_member
    9999                      .dwattr $C$DW$1306, DW_AT_type(*$C$DW$T$23)
   10000                      .dwattr $C$DW$1306, DW_AT_name("DCFOFFSET")
   10001                      .dwattr $C$DW$1306, DW_AT_TI_symbol_name("_DCFOFFSET")
   10002                      .dwattr $C$DW$1306, DW_AT_data_member_location[DW_OP_plus_uconst 0x35]
   10003                      .dwattr $C$DW$1306, DW_AT_accessibility(DW_ACCESS_public)
   10004              
   10005              $C$DW$1307      .dwtag  DW_TAG_member
   10006                      .dwattr $C$DW$1307, DW_AT_type(*$C$DW$T$23)
   10007                      .dwattr $C$DW$1307, DW_AT_name("DCFOFFSETCNT")
   10008                      .dwattr $C$DW$1307, DW_AT_TI_symbol_name("_DCFOFFSETCNT")
   10009                      .dwattr $C$DW$1307, DW_AT_data_member_location[DW_OP_plus_uconst 0x36]
   10010                      .dwattr $C$DW$1307, DW_AT_accessibility(DW_ACCESS_public)
   10011              
   10012              $C$DW$1308      .dwtag  DW_TAG_member
   10013                      .dwattr $C$DW$1308, DW_AT_type(*$C$DW$T$23)
   10014                      .dwattr $C$DW$1308, DW_AT_name("DCFWINDOW")
   10015                      .dwattr $C$DW$1308, DW_AT_TI_symbol_name("_DCFWINDOW")
   10016                      .dwattr $C$DW$1308, DW_AT_data_member_location[DW_OP_plus_uconst 0x37]
   10017                      .dwattr $C$DW$1308, DW_AT_accessibility(DW_ACCESS_public)
   10018              
   10019              $C$DW$1309      .dwtag  DW_TAG_member
TMS320C2000 Assembler PC v18.1.2 Sun Jun 17 14:52:32 2018

Tools Copyright (c) 1996-2017 Texas Instruments Incorporated
C:\Users\haowp\AppData\Local\Temp\{81472915-7FA4-430D-8ACB-BFB8F401620C} PAGE  188

   10020                      .dwattr $C$DW$1309, DW_AT_type(*$C$DW$T$23)
   10021                      .dwattr $C$DW$1309, DW_AT_name("DCFWINDOWCNT")
   10022                      .dwattr $C$DW$1309, DW_AT_TI_symbol_name("_DCFWINDOWCNT")
   10023                      .dwattr $C$DW$1309, DW_AT_data_member_location[DW_OP_plus_uconst 0x38]
   10024                      .dwattr $C$DW$1309, DW_AT_accessibility(DW_ACCESS_public)
   10025              
   10026              $C$DW$1310      .dwtag  DW_TAG_member
   10027                      .dwattr $C$DW$1310, DW_AT_type(*$C$DW$T$23)
   10028                      .dwattr $C$DW$1310, DW_AT_name("DCCAP")
   10029                      .dwattr $C$DW$1310, DW_AT_TI_symbol_name("_DCCAP")
   10030                      .dwattr $C$DW$1310, DW_AT_data_member_location[DW_OP_plus_uconst 0x39]
   10031                      .dwattr $C$DW$1310, DW_AT_accessibility(DW_ACCESS_public)
   10032              
   10033                      .dwendtag $C$DW$T$224
   10034              
   10035              $C$DW$T$300     .dwtag  DW_TAG_typedef
   10036                      .dwattr $C$DW$T$300, DW_AT_name("PWM_Obj")
   10037                      .dwattr $C$DW$T$300, DW_AT_type(*$C$DW$T$224)
   10038                      .dwattr $C$DW$T$300, DW_AT_language(DW_LANG_C)
   10039              
   10040              $C$DW$T$175     .dwtag  DW_TAG_pointer_type
   10041                      .dwattr $C$DW$T$175, DW_AT_type(*$C$DW$T$224)
   10042                      .dwattr $C$DW$T$175, DW_AT_address_class(0x20)
   10043              
   10044              $C$DW$T$176     .dwtag  DW_TAG_typedef
   10045                      .dwattr $C$DW$T$176, DW_AT_name("PWM_Handle")
   10046                      .dwattr $C$DW$T$176, DW_AT_type(*$C$DW$T$175)
   10047                      .dwattr $C$DW$T$176, DW_AT_language(DW_LANG_C)
   10048              
   10049              
   10050              $C$DW$T$177     .dwtag  DW_TAG_array_type
   10051                      .dwattr $C$DW$T$177, DW_AT_type(*$C$DW$T$176)
   10052                      .dwattr $C$DW$T$177, DW_AT_language(DW_LANG_C)
   10053                      .dwattr $C$DW$T$177, DW_AT_byte_size(0x06)
   10054              $C$DW$1311      .dwtag  DW_TAG_subrange_type
   10055                      .dwattr $C$DW$1311, DW_AT_upper_bound(0x02)
   10056              
   10057                      .dwendtag $C$DW$T$177
   10058              
   10059              
   10060              $C$DW$T$226     .dwtag  DW_TAG_structure_type
   10061                      .dwattr $C$DW$T$226, DW_AT_name("_PWR_Obj_")
   10062                      .dwattr $C$DW$T$226, DW_AT_byte_size(0x669a)
   10063              $C$DW$1312      .dwtag  DW_TAG_member
   10064                      .dwattr $C$DW$1312, DW_AT_type(*$C$DW$T$23)
   10065                      .dwattr $C$DW$1312, DW_AT_name("BORCFG")
   10066                      .dwattr $C$DW$1312, DW_AT_TI_symbol_name("_BORCFG")
   10067                      .dwattr $C$DW$1312, DW_AT_data_member_location[DW_OP_plus_uconst 0x0]
   10068                      .dwattr $C$DW$1312, DW_AT_accessibility(DW_ACCESS_public)
   10069              
   10070              $C$DW$1313      .dwtag  DW_TAG_member
   10071                      .dwattr $C$DW$1313, DW_AT_type(*$C$DW$T$225)
   10072                      .dwattr $C$DW$1313, DW_AT_name("rsvd_1")
   10073                      .dwattr $C$DW$1313, DW_AT_TI_symbol_name("_rsvd_1")
   10074                      .dwattr $C$DW$1313, DW_AT_data_member_location[DW_OP_plus_uconst 0x1]
TMS320C2000 Assembler PC v18.1.2 Sun Jun 17 14:52:32 2018

Tools Copyright (c) 1996-2017 Texas Instruments Incorporated
C:\Users\haowp\AppData\Local\Temp\{81472915-7FA4-430D-8ACB-BFB8F401620C} PAGE  189

   10075                      .dwattr $C$DW$1313, DW_AT_accessibility(DW_ACCESS_public)
   10076              
   10077              $C$DW$1314      .dwtag  DW_TAG_member
   10078                      .dwattr $C$DW$1314, DW_AT_type(*$C$DW$T$23)
   10079                      .dwattr $C$DW$1314, DW_AT_name("LPMCR0")
   10080                      .dwattr $C$DW$1314, DW_AT_TI_symbol_name("_LPMCR0")
   10081                      .dwattr $C$DW$1314, DW_AT_data_member_location[DW_OP_plus_uconst 0x6699]
   10082                      .dwattr $C$DW$1314, DW_AT_accessibility(DW_ACCESS_public)
   10083              
   10084                      .dwendtag $C$DW$T$226
   10085              
   10086              $C$DW$T$178     .dwtag  DW_TAG_pointer_type
   10087                      .dwattr $C$DW$T$178, DW_AT_type(*$C$DW$T$226)
   10088                      .dwattr $C$DW$T$178, DW_AT_address_class(0x20)
   10089              
   10090              $C$DW$T$179     .dwtag  DW_TAG_typedef
   10091                      .dwattr $C$DW$T$179, DW_AT_name("PWR_Handle")
   10092                      .dwattr $C$DW$T$179, DW_AT_type(*$C$DW$T$178)
   10093                      .dwattr $C$DW$T$179, DW_AT_language(DW_LANG_C)
   10094              
   10095              
   10096              $C$DW$T$227     .dwtag  DW_TAG_structure_type
   10097                      .dwattr $C$DW$T$227, DW_AT_name("_SPI_Obj_")
   10098                      .dwattr $C$DW$T$227, DW_AT_byte_size(0x10)
   10099              $C$DW$1315      .dwtag  DW_TAG_member
   10100                      .dwattr $C$DW$1315, DW_AT_type(*$C$DW$T$23)
   10101                      .dwattr $C$DW$1315, DW_AT_name("SPICCR")
   10102                      .dwattr $C$DW$1315, DW_AT_TI_symbol_name("_SPICCR")
   10103                      .dwattr $C$DW$1315, DW_AT_data_member_location[DW_OP_plus_uconst 0x0]
   10104                      .dwattr $C$DW$1315, DW_AT_accessibility(DW_ACCESS_public)
   10105              
   10106              $C$DW$1316      .dwtag  DW_TAG_member
   10107                      .dwattr $C$DW$1316, DW_AT_type(*$C$DW$T$23)
   10108                      .dwattr $C$DW$1316, DW_AT_name("SPICTL")
   10109                      .dwattr $C$DW$1316, DW_AT_TI_symbol_name("_SPICTL")
   10110                      .dwattr $C$DW$1316, DW_AT_data_member_location[DW_OP_plus_uconst 0x1]
   10111                      .dwattr $C$DW$1316, DW_AT_accessibility(DW_ACCESS_public)
   10112              
   10113              $C$DW$1317      .dwtag  DW_TAG_member
   10114                      .dwattr $C$DW$1317, DW_AT_type(*$C$DW$T$23)
   10115                      .dwattr $C$DW$1317, DW_AT_name("SPIST")
   10116                      .dwattr $C$DW$1317, DW_AT_TI_symbol_name("_SPIST")
   10117                      .dwattr $C$DW$1317, DW_AT_data_member_location[DW_OP_plus_uconst 0x2]
   10118                      .dwattr $C$DW$1317, DW_AT_accessibility(DW_ACCESS_public)
   10119              
   10120              $C$DW$1318      .dwtag  DW_TAG_member
   10121                      .dwattr $C$DW$1318, DW_AT_type(*$C$DW$T$23)
   10122                      .dwattr $C$DW$1318, DW_AT_name("rsvd_1")
   10123                      .dwattr $C$DW$1318, DW_AT_TI_symbol_name("_rsvd_1")
   10124                      .dwattr $C$DW$1318, DW_AT_data_member_location[DW_OP_plus_uconst 0x3]
   10125                      .dwattr $C$DW$1318, DW_AT_accessibility(DW_ACCESS_public)
   10126              
   10127              $C$DW$1319      .dwtag  DW_TAG_member
   10128                      .dwattr $C$DW$1319, DW_AT_type(*$C$DW$T$23)
   10129                      .dwattr $C$DW$1319, DW_AT_name("SPIBRR")
TMS320C2000 Assembler PC v18.1.2 Sun Jun 17 14:52:32 2018

Tools Copyright (c) 1996-2017 Texas Instruments Incorporated
C:\Users\haowp\AppData\Local\Temp\{81472915-7FA4-430D-8ACB-BFB8F401620C} PAGE  190

   10130                      .dwattr $C$DW$1319, DW_AT_TI_symbol_name("_SPIBRR")
   10131                      .dwattr $C$DW$1319, DW_AT_data_member_location[DW_OP_plus_uconst 0x4]
   10132                      .dwattr $C$DW$1319, DW_AT_accessibility(DW_ACCESS_public)
   10133              
   10134              $C$DW$1320      .dwtag  DW_TAG_member
   10135                      .dwattr $C$DW$1320, DW_AT_type(*$C$DW$T$23)
   10136                      .dwattr $C$DW$1320, DW_AT_name("rsvd_2")
   10137                      .dwattr $C$DW$1320, DW_AT_TI_symbol_name("_rsvd_2")
   10138                      .dwattr $C$DW$1320, DW_AT_data_member_location[DW_OP_plus_uconst 0x5]
   10139                      .dwattr $C$DW$1320, DW_AT_accessibility(DW_ACCESS_public)
   10140              
   10141              $C$DW$1321      .dwtag  DW_TAG_member
   10142                      .dwattr $C$DW$1321, DW_AT_type(*$C$DW$T$23)
   10143                      .dwattr $C$DW$1321, DW_AT_name("SPIEMU")
   10144                      .dwattr $C$DW$1321, DW_AT_TI_symbol_name("_SPIEMU")
   10145                      .dwattr $C$DW$1321, DW_AT_data_member_location[DW_OP_plus_uconst 0x6]
   10146                      .dwattr $C$DW$1321, DW_AT_accessibility(DW_ACCESS_public)
   10147              
   10148              $C$DW$1322      .dwtag  DW_TAG_member
   10149                      .dwattr $C$DW$1322, DW_AT_type(*$C$DW$T$23)
   10150                      .dwattr $C$DW$1322, DW_AT_name("SPIRXBUF")
   10151                      .dwattr $C$DW$1322, DW_AT_TI_symbol_name("_SPIRXBUF")
   10152                      .dwattr $C$DW$1322, DW_AT_data_member_location[DW_OP_plus_uconst 0x7]
   10153                      .dwattr $C$DW$1322, DW_AT_accessibility(DW_ACCESS_public)
   10154              
   10155              $C$DW$1323      .dwtag  DW_TAG_member
   10156                      .dwattr $C$DW$1323, DW_AT_type(*$C$DW$T$23)
   10157                      .dwattr $C$DW$1323, DW_AT_name("SPITXBUF")
   10158                      .dwattr $C$DW$1323, DW_AT_TI_symbol_name("_SPITXBUF")
   10159                      .dwattr $C$DW$1323, DW_AT_data_member_location[DW_OP_plus_uconst 0x8]
   10160                      .dwattr $C$DW$1323, DW_AT_accessibility(DW_ACCESS_public)
   10161              
   10162              $C$DW$1324      .dwtag  DW_TAG_member
   10163                      .dwattr $C$DW$1324, DW_AT_type(*$C$DW$T$23)
   10164                      .dwattr $C$DW$1324, DW_AT_name("SPIDAT")
   10165                      .dwattr $C$DW$1324, DW_AT_TI_symbol_name("_SPIDAT")
   10166                      .dwattr $C$DW$1324, DW_AT_data_member_location[DW_OP_plus_uconst 0x9]
   10167                      .dwattr $C$DW$1324, DW_AT_accessibility(DW_ACCESS_public)
   10168              
   10169              $C$DW$1325      .dwtag  DW_TAG_member
   10170                      .dwattr $C$DW$1325, DW_AT_type(*$C$DW$T$23)
   10171                      .dwattr $C$DW$1325, DW_AT_name("SPIFFTX")
   10172                      .dwattr $C$DW$1325, DW_AT_TI_symbol_name("_SPIFFTX")
   10173                      .dwattr $C$DW$1325, DW_AT_data_member_location[DW_OP_plus_uconst 0xa]
   10174                      .dwattr $C$DW$1325, DW_AT_accessibility(DW_ACCESS_public)
   10175              
   10176              $C$DW$1326      .dwtag  DW_TAG_member
   10177                      .dwattr $C$DW$1326, DW_AT_type(*$C$DW$T$23)
   10178                      .dwattr $C$DW$1326, DW_AT_name("SPIFFRX")
   10179                      .dwattr $C$DW$1326, DW_AT_TI_symbol_name("_SPIFFRX")
   10180                      .dwattr $C$DW$1326, DW_AT_data_member_location[DW_OP_plus_uconst 0xb]
   10181                      .dwattr $C$DW$1326, DW_AT_accessibility(DW_ACCESS_public)
   10182              
   10183              $C$DW$1327      .dwtag  DW_TAG_member
   10184                      .dwattr $C$DW$1327, DW_AT_type(*$C$DW$T$23)
TMS320C2000 Assembler PC v18.1.2 Sun Jun 17 14:52:32 2018

Tools Copyright (c) 1996-2017 Texas Instruments Incorporated
C:\Users\haowp\AppData\Local\Temp\{81472915-7FA4-430D-8ACB-BFB8F401620C} PAGE  191

   10185                      .dwattr $C$DW$1327, DW_AT_name("SPIFFCT")
   10186                      .dwattr $C$DW$1327, DW_AT_TI_symbol_name("_SPIFFCT")
   10187                      .dwattr $C$DW$1327, DW_AT_data_member_location[DW_OP_plus_uconst 0xc]
   10188                      .dwattr $C$DW$1327, DW_AT_accessibility(DW_ACCESS_public)
   10189              
   10190              $C$DW$1328      .dwtag  DW_TAG_member
   10191                      .dwattr $C$DW$1328, DW_AT_type(*$C$DW$T$26)
   10192                      .dwattr $C$DW$1328, DW_AT_name("rsvd_3")
   10193                      .dwattr $C$DW$1328, DW_AT_TI_symbol_name("_rsvd_3")
   10194                      .dwattr $C$DW$1328, DW_AT_data_member_location[DW_OP_plus_uconst 0xd]
   10195                      .dwattr $C$DW$1328, DW_AT_accessibility(DW_ACCESS_public)
   10196              
   10197              $C$DW$1329      .dwtag  DW_TAG_member
   10198                      .dwattr $C$DW$1329, DW_AT_type(*$C$DW$T$23)
   10199                      .dwattr $C$DW$1329, DW_AT_name("SPIPRI")
   10200                      .dwattr $C$DW$1329, DW_AT_TI_symbol_name("_SPIPRI")
   10201                      .dwattr $C$DW$1329, DW_AT_data_member_location[DW_OP_plus_uconst 0xf]
   10202                      .dwattr $C$DW$1329, DW_AT_accessibility(DW_ACCESS_public)
   10203              
   10204                      .dwendtag $C$DW$T$227
   10205              
   10206              $C$DW$T$186     .dwtag  DW_TAG_typedef
   10207                      .dwattr $C$DW$T$186, DW_AT_name("SPI_Obj")
   10208                      .dwattr $C$DW$T$186, DW_AT_type(*$C$DW$T$227)
   10209                      .dwattr $C$DW$T$186, DW_AT_language(DW_LANG_C)
   10210              
   10211              $C$DW$T$74      .dwtag  DW_TAG_pointer_type
   10212                      .dwattr $C$DW$T$74, DW_AT_type(*$C$DW$T$227)
   10213                      .dwattr $C$DW$T$74, DW_AT_address_class(0x20)
   10214              
   10215              $C$DW$T$75      .dwtag  DW_TAG_typedef
   10216                      .dwattr $C$DW$T$75, DW_AT_name("SPI_Handle")
   10217                      .dwattr $C$DW$T$75, DW_AT_type(*$C$DW$T$74)
   10218                      .dwattr $C$DW$T$75, DW_AT_language(DW_LANG_C)
   10219              
   10220              
   10221              $C$DW$T$228     .dwtag  DW_TAG_structure_type
   10222                      .dwattr $C$DW$T$228, DW_AT_name("_SVGEN_Obj_")
   10223                      .dwattr $C$DW$T$228, DW_AT_byte_size(0x02)
   10224              $C$DW$1330      .dwtag  DW_TAG_member
   10225                      .dwattr $C$DW$1330, DW_AT_type(*$C$DW$T$31)
   10226                      .dwattr $C$DW$1330, DW_AT_name("maxModulation")
   10227                      .dwattr $C$DW$1330, DW_AT_TI_symbol_name("_maxModulation")
   10228                      .dwattr $C$DW$1330, DW_AT_data_member_location[DW_OP_plus_uconst 0x0]
   10229                      .dwattr $C$DW$1330, DW_AT_accessibility(DW_ACCESS_public)
   10230              
   10231                      .dwendtag $C$DW$T$228
   10232              
   10233              $C$DW$T$58      .dwtag  DW_TAG_typedef
   10234                      .dwattr $C$DW$T$58, DW_AT_name("SVGEN_Obj")
   10235                      .dwattr $C$DW$T$58, DW_AT_type(*$C$DW$T$228)
   10236                      .dwattr $C$DW$T$58, DW_AT_language(DW_LANG_C)
   10237              
   10238              $C$DW$T$56      .dwtag  DW_TAG_pointer_type
   10239                      .dwattr $C$DW$T$56, DW_AT_type(*$C$DW$T$228)
TMS320C2000 Assembler PC v18.1.2 Sun Jun 17 14:52:32 2018

Tools Copyright (c) 1996-2017 Texas Instruments Incorporated
C:\Users\haowp\AppData\Local\Temp\{81472915-7FA4-430D-8ACB-BFB8F401620C} PAGE  192

   10240                      .dwattr $C$DW$T$56, DW_AT_address_class(0x20)
   10241              
   10242              $C$DW$T$57      .dwtag  DW_TAG_typedef
   10243                      .dwattr $C$DW$T$57, DW_AT_name("SVGEN_Handle")
   10244                      .dwattr $C$DW$T$57, DW_AT_type(*$C$DW$T$56)
   10245                      .dwattr $C$DW$T$57, DW_AT_language(DW_LANG_C)
   10246              
   10247              
   10248              $C$DW$T$229     .dwtag  DW_TAG_structure_type
   10249                      .dwattr $C$DW$T$229, DW_AT_name("_TIMER_Obj_")
   10250                      .dwattr $C$DW$T$229, DW_AT_byte_size(0x08)
   10251              $C$DW$1331      .dwtag  DW_TAG_member
   10252                      .dwattr $C$DW$1331, DW_AT_type(*$C$DW$T$150)
   10253                      .dwattr $C$DW$1331, DW_AT_name("TIM")
   10254                      .dwattr $C$DW$1331, DW_AT_TI_symbol_name("_TIM")
   10255                      .dwattr $C$DW$1331, DW_AT_data_member_location[DW_OP_plus_uconst 0x0]
   10256                      .dwattr $C$DW$1331, DW_AT_accessibility(DW_ACCESS_public)
   10257              
   10258              $C$DW$1332      .dwtag  DW_TAG_member
   10259                      .dwattr $C$DW$1332, DW_AT_type(*$C$DW$T$150)
   10260                      .dwattr $C$DW$1332, DW_AT_name("PRD")
   10261                      .dwattr $C$DW$1332, DW_AT_TI_symbol_name("_PRD")
   10262                      .dwattr $C$DW$1332, DW_AT_data_member_location[DW_OP_plus_uconst 0x2]
   10263                      .dwattr $C$DW$1332, DW_AT_accessibility(DW_ACCESS_public)
   10264              
   10265              $C$DW$1333      .dwtag  DW_TAG_member
   10266                      .dwattr $C$DW$1333, DW_AT_type(*$C$DW$T$23)
   10267                      .dwattr $C$DW$1333, DW_AT_name("TCR")
   10268                      .dwattr $C$DW$1333, DW_AT_TI_symbol_name("_TCR")
   10269                      .dwattr $C$DW$1333, DW_AT_data_member_location[DW_OP_plus_uconst 0x4]
   10270                      .dwattr $C$DW$1333, DW_AT_accessibility(DW_ACCESS_public)
   10271              
   10272              $C$DW$1334      .dwtag  DW_TAG_member
   10273                      .dwattr $C$DW$1334, DW_AT_type(*$C$DW$T$23)
   10274                      .dwattr $C$DW$1334, DW_AT_name("resvd_1")
   10275                      .dwattr $C$DW$1334, DW_AT_TI_symbol_name("_resvd_1")
   10276                      .dwattr $C$DW$1334, DW_AT_data_member_location[DW_OP_plus_uconst 0x5]
   10277                      .dwattr $C$DW$1334, DW_AT_accessibility(DW_ACCESS_public)
   10278              
   10279              $C$DW$1335      .dwtag  DW_TAG_member
   10280                      .dwattr $C$DW$1335, DW_AT_type(*$C$DW$T$150)
   10281                      .dwattr $C$DW$1335, DW_AT_name("TPR")
   10282                      .dwattr $C$DW$1335, DW_AT_TI_symbol_name("_TPR")
   10283                      .dwattr $C$DW$1335, DW_AT_data_member_location[DW_OP_plus_uconst 0x6]
   10284                      .dwattr $C$DW$1335, DW_AT_accessibility(DW_ACCESS_public)
   10285              
   10286                      .dwendtag $C$DW$T$229
   10287              
   10288              $C$DW$T$180     .dwtag  DW_TAG_pointer_type
   10289                      .dwattr $C$DW$T$180, DW_AT_type(*$C$DW$T$229)
   10290                      .dwattr $C$DW$T$180, DW_AT_address_class(0x20)
   10291              
   10292              $C$DW$T$181     .dwtag  DW_TAG_typedef
   10293                      .dwattr $C$DW$T$181, DW_AT_name("TIMER_Handle")
   10294                      .dwattr $C$DW$T$181, DW_AT_type(*$C$DW$T$180)
TMS320C2000 Assembler PC v18.1.2 Sun Jun 17 14:52:32 2018

Tools Copyright (c) 1996-2017 Texas Instruments Incorporated
C:\Users\haowp\AppData\Local\Temp\{81472915-7FA4-430D-8ACB-BFB8F401620C} PAGE  193

   10295                      .dwattr $C$DW$T$181, DW_AT_language(DW_LANG_C)
   10296              
   10297              
   10298              $C$DW$T$182     .dwtag  DW_TAG_array_type
   10299                      .dwattr $C$DW$T$182, DW_AT_type(*$C$DW$T$181)
   10300                      .dwattr $C$DW$T$182, DW_AT_language(DW_LANG_C)
   10301                      .dwattr $C$DW$T$182, DW_AT_byte_size(0x06)
   10302              $C$DW$1336      .dwtag  DW_TAG_subrange_type
   10303                      .dwattr $C$DW$1336, DW_AT_upper_bound(0x02)
   10304              
   10305                      .dwendtag $C$DW$T$182
   10306              
   10307              
   10308              $C$DW$T$230     .dwtag  DW_TAG_structure_type
   10309                      .dwattr $C$DW$T$230, DW_AT_name("_TRAJ_Obj_")
   10310                      .dwattr $C$DW$T$230, DW_AT_byte_size(0x0a)
   10311              $C$DW$1337      .dwtag  DW_TAG_member
   10312                      .dwattr $C$DW$1337, DW_AT_type(*$C$DW$T$31)
   10313                      .dwattr $C$DW$1337, DW_AT_name("targetValue")
   10314                      .dwattr $C$DW$1337, DW_AT_TI_symbol_name("_targetValue")
   10315                      .dwattr $C$DW$1337, DW_AT_data_member_location[DW_OP_plus_uconst 0x0]
   10316                      .dwattr $C$DW$1337, DW_AT_accessibility(DW_ACCESS_public)
   10317              
   10318              $C$DW$1338      .dwtag  DW_TAG_member
   10319                      .dwattr $C$DW$1338, DW_AT_type(*$C$DW$T$31)
   10320                      .dwattr $C$DW$1338, DW_AT_name("intValue")
   10321                      .dwattr $C$DW$1338, DW_AT_TI_symbol_name("_intValue")
   10322                      .dwattr $C$DW$1338, DW_AT_data_member_location[DW_OP_plus_uconst 0x2]
   10323                      .dwattr $C$DW$1338, DW_AT_accessibility(DW_ACCESS_public)
   10324              
   10325              $C$DW$1339      .dwtag  DW_TAG_member
   10326                      .dwattr $C$DW$1339, DW_AT_type(*$C$DW$T$31)
   10327                      .dwattr $C$DW$1339, DW_AT_name("minValue")
   10328                      .dwattr $C$DW$1339, DW_AT_TI_symbol_name("_minValue")
   10329                      .dwattr $C$DW$1339, DW_AT_data_member_location[DW_OP_plus_uconst 0x4]
   10330                      .dwattr $C$DW$1339, DW_AT_accessibility(DW_ACCESS_public)
   10331              
   10332              $C$DW$1340      .dwtag  DW_TAG_member
   10333                      .dwattr $C$DW$1340, DW_AT_type(*$C$DW$T$31)
   10334                      .dwattr $C$DW$1340, DW_AT_name("maxValue")
   10335                      .dwattr $C$DW$1340, DW_AT_TI_symbol_name("_maxValue")
   10336                      .dwattr $C$DW$1340, DW_AT_data_member_location[DW_OP_plus_uconst 0x6]
   10337                      .dwattr $C$DW$1340, DW_AT_accessibility(DW_ACCESS_public)
   10338              
   10339              $C$DW$1341      .dwtag  DW_TAG_member
   10340                      .dwattr $C$DW$1341, DW_AT_type(*$C$DW$T$31)
   10341                      .dwattr $C$DW$1341, DW_AT_name("maxDelta")
   10342                      .dwattr $C$DW$1341, DW_AT_TI_symbol_name("_maxDelta")
   10343                      .dwattr $C$DW$1341, DW_AT_data_member_location[DW_OP_plus_uconst 0x8]
   10344                      .dwattr $C$DW$1341, DW_AT_accessibility(DW_ACCESS_public)
   10345              
   10346                      .dwendtag $C$DW$T$230
   10347              
   10348              $C$DW$T$61      .dwtag  DW_TAG_typedef
   10349                      .dwattr $C$DW$T$61, DW_AT_name("TRAJ_Obj")
TMS320C2000 Assembler PC v18.1.2 Sun Jun 17 14:52:32 2018

Tools Copyright (c) 1996-2017 Texas Instruments Incorporated
C:\Users\haowp\AppData\Local\Temp\{81472915-7FA4-430D-8ACB-BFB8F401620C} PAGE  194

   10350                      .dwattr $C$DW$T$61, DW_AT_type(*$C$DW$T$230)
   10351                      .dwattr $C$DW$T$61, DW_AT_language(DW_LANG_C)
   10352              
   10353              $C$DW$T$59      .dwtag  DW_TAG_pointer_type
   10354                      .dwattr $C$DW$T$59, DW_AT_type(*$C$DW$T$230)
   10355                      .dwattr $C$DW$T$59, DW_AT_address_class(0x20)
   10356              
   10357              $C$DW$T$60      .dwtag  DW_TAG_typedef
   10358                      .dwattr $C$DW$T$60, DW_AT_name("TRAJ_Handle")
   10359                      .dwattr $C$DW$T$60, DW_AT_type(*$C$DW$T$59)
   10360                      .dwattr $C$DW$T$60, DW_AT_language(DW_LANG_C)
   10361              
   10362              
   10363              $C$DW$T$234     .dwtag  DW_TAG_structure_type
   10364                      .dwattr $C$DW$T$234, DW_AT_name("_USER_Params_")
   10365                      .dwattr $C$DW$T$234, DW_AT_byte_size(0xac)
   10366              $C$DW$1342      .dwtag  DW_TAG_member
   10367                      .dwattr $C$DW$1342, DW_AT_type(*$C$DW$T$67)
   10368                      .dwattr $C$DW$1342, DW_AT_name("iqFullScaleCurrent_A")
   10369                      .dwattr $C$DW$1342, DW_AT_TI_symbol_name("_iqFullScaleCurrent_A")
   10370                      .dwattr $C$DW$1342, DW_AT_data_member_location[DW_OP_plus_uconst 0x0]
   10371                      .dwattr $C$DW$1342, DW_AT_accessibility(DW_ACCESS_public)
   10372              
   10373              $C$DW$1343      .dwtag  DW_TAG_member
   10374                      .dwattr $C$DW$1343, DW_AT_type(*$C$DW$T$67)
   10375                      .dwattr $C$DW$1343, DW_AT_name("iqFullScaleVoltage_V")
   10376                      .dwattr $C$DW$1343, DW_AT_TI_symbol_name("_iqFullScaleVoltage_V")
   10377                      .dwattr $C$DW$1343, DW_AT_data_member_location[DW_OP_plus_uconst 0x2]
   10378                      .dwattr $C$DW$1343, DW_AT_accessibility(DW_ACCESS_public)
   10379              
   10380              $C$DW$1344      .dwtag  DW_TAG_member
   10381                      .dwattr $C$DW$1344, DW_AT_type(*$C$DW$T$67)
   10382                      .dwattr $C$DW$1344, DW_AT_name("iqFullScaleFreq_Hz")
   10383                      .dwattr $C$DW$1344, DW_AT_TI_symbol_name("_iqFullScaleFreq_Hz")
   10384                      .dwattr $C$DW$1344, DW_AT_data_member_location[DW_OP_plus_uconst 0x4]
   10385                      .dwattr $C$DW$1344, DW_AT_accessibility(DW_ACCESS_public)
   10386              
   10387              $C$DW$1345      .dwtag  DW_TAG_member
   10388                      .dwattr $C$DW$1345, DW_AT_type(*$C$DW$T$66)
   10389                      .dwattr $C$DW$1345, DW_AT_name("numIsrTicksPerCtrlTick")
   10390                      .dwattr $C$DW$1345, DW_AT_TI_symbol_name("_numIsrTicksPerCtrlTick")
   10391                      .dwattr $C$DW$1345, DW_AT_data_member_location[DW_OP_plus_uconst 0x6]
   10392                      .dwattr $C$DW$1345, DW_AT_accessibility(DW_ACCESS_public)
   10393              
   10394              $C$DW$1346      .dwtag  DW_TAG_member
   10395                      .dwattr $C$DW$1346, DW_AT_type(*$C$DW$T$66)
   10396                      .dwattr $C$DW$1346, DW_AT_name("numCtrlTicksPerCurrentTick")
   10397                      .dwattr $C$DW$1346, DW_AT_TI_symbol_name("_numCtrlTicksPerCurrentTick")
   10398                      .dwattr $C$DW$1346, DW_AT_data_member_location[DW_OP_plus_uconst 0x7]
   10399                      .dwattr $C$DW$1346, DW_AT_accessibility(DW_ACCESS_public)
   10400              
   10401              $C$DW$1347      .dwtag  DW_TAG_member
   10402                      .dwattr $C$DW$1347, DW_AT_type(*$C$DW$T$66)
   10403                      .dwattr $C$DW$1347, DW_AT_name("numCtrlTicksPerEstTick")
   10404                      .dwattr $C$DW$1347, DW_AT_TI_symbol_name("_numCtrlTicksPerEstTick")
TMS320C2000 Assembler PC v18.1.2 Sun Jun 17 14:52:32 2018

Tools Copyright (c) 1996-2017 Texas Instruments Incorporated
C:\Users\haowp\AppData\Local\Temp\{81472915-7FA4-430D-8ACB-BFB8F401620C} PAGE  195

   10405                      .dwattr $C$DW$1347, DW_AT_data_member_location[DW_OP_plus_uconst 0x8]
   10406                      .dwattr $C$DW$1347, DW_AT_accessibility(DW_ACCESS_public)
   10407              
   10408              $C$DW$1348      .dwtag  DW_TAG_member
   10409                      .dwattr $C$DW$1348, DW_AT_type(*$C$DW$T$66)
   10410                      .dwattr $C$DW$1348, DW_AT_name("numCtrlTicksPerSpeedTick")
   10411                      .dwattr $C$DW$1348, DW_AT_TI_symbol_name("_numCtrlTicksPerSpeedTick")
   10412                      .dwattr $C$DW$1348, DW_AT_data_member_location[DW_OP_plus_uconst 0x9]
   10413                      .dwattr $C$DW$1348, DW_AT_accessibility(DW_ACCESS_public)
   10414              
   10415              $C$DW$1349      .dwtag  DW_TAG_member
   10416                      .dwattr $C$DW$1349, DW_AT_type(*$C$DW$T$66)
   10417                      .dwattr $C$DW$1349, DW_AT_name("numCtrlTicksPerTrajTick")
   10418                      .dwattr $C$DW$1349, DW_AT_TI_symbol_name("_numCtrlTicksPerTrajTick")
   10419                      .dwattr $C$DW$1349, DW_AT_data_member_location[DW_OP_plus_uconst 0xa]
   10420                      .dwattr $C$DW$1349, DW_AT_accessibility(DW_ACCESS_public)
   10421              
   10422              $C$DW$1350      .dwtag  DW_TAG_member
   10423                      .dwattr $C$DW$1350, DW_AT_type(*$C$DW$T$32)
   10424                      .dwattr $C$DW$1350, DW_AT_name("numCurrentSensors")
   10425                      .dwattr $C$DW$1350, DW_AT_TI_symbol_name("_numCurrentSensors")
   10426                      .dwattr $C$DW$1350, DW_AT_data_member_location[DW_OP_plus_uconst 0xb]
   10427                      .dwattr $C$DW$1350, DW_AT_accessibility(DW_ACCESS_public)
   10428              
   10429              $C$DW$1351      .dwtag  DW_TAG_member
   10430                      .dwattr $C$DW$1351, DW_AT_type(*$C$DW$T$32)
   10431                      .dwattr $C$DW$1351, DW_AT_name("numVoltageSensors")
   10432                      .dwattr $C$DW$1351, DW_AT_TI_symbol_name("_numVoltageSensors")
   10433                      .dwattr $C$DW$1351, DW_AT_data_member_location[DW_OP_plus_uconst 0xc]
   10434                      .dwattr $C$DW$1351, DW_AT_accessibility(DW_ACCESS_public)
   10435              
   10436              $C$DW$1352      .dwtag  DW_TAG_member
   10437                      .dwattr $C$DW$1352, DW_AT_type(*$C$DW$T$67)
   10438                      .dwattr $C$DW$1352, DW_AT_name("offsetPole_rps")
   10439                      .dwattr $C$DW$1352, DW_AT_TI_symbol_name("_offsetPole_rps")
   10440                      .dwattr $C$DW$1352, DW_AT_data_member_location[DW_OP_plus_uconst 0xe]
   10441                      .dwattr $C$DW$1352, DW_AT_accessibility(DW_ACCESS_public)
   10442              
   10443              $C$DW$1353      .dwtag  DW_TAG_member
   10444                      .dwattr $C$DW$1353, DW_AT_type(*$C$DW$T$67)
   10445                      .dwattr $C$DW$1353, DW_AT_name("fluxPole_rps")
   10446                      .dwattr $C$DW$1353, DW_AT_TI_symbol_name("_fluxPole_rps")
   10447                      .dwattr $C$DW$1353, DW_AT_data_member_location[DW_OP_plus_uconst 0x10]
   10448                      .dwattr $C$DW$1353, DW_AT_accessibility(DW_ACCESS_public)
   10449              
   10450              $C$DW$1354      .dwtag  DW_TAG_member
   10451                      .dwattr $C$DW$1354, DW_AT_type(*$C$DW$T$67)
   10452                      .dwattr $C$DW$1354, DW_AT_name("zeroSpeedLimit")
   10453                      .dwattr $C$DW$1354, DW_AT_TI_symbol_name("_zeroSpeedLimit")
   10454                      .dwattr $C$DW$1354, DW_AT_data_member_location[DW_OP_plus_uconst 0x12]
   10455                      .dwattr $C$DW$1354, DW_AT_accessibility(DW_ACCESS_public)
   10456              
   10457              $C$DW$1355      .dwtag  DW_TAG_member
   10458                      .dwattr $C$DW$1355, DW_AT_type(*$C$DW$T$67)
   10459                      .dwattr $C$DW$1355, DW_AT_name("forceAngleFreq_Hz")
TMS320C2000 Assembler PC v18.1.2 Sun Jun 17 14:52:32 2018

Tools Copyright (c) 1996-2017 Texas Instruments Incorporated
C:\Users\haowp\AppData\Local\Temp\{81472915-7FA4-430D-8ACB-BFB8F401620C} PAGE  196

   10460                      .dwattr $C$DW$1355, DW_AT_TI_symbol_name("_forceAngleFreq_Hz")
   10461                      .dwattr $C$DW$1355, DW_AT_data_member_location[DW_OP_plus_uconst 0x14]
   10462                      .dwattr $C$DW$1355, DW_AT_accessibility(DW_ACCESS_public)
   10463              
   10464              $C$DW$1356      .dwtag  DW_TAG_member
   10465                      .dwattr $C$DW$1356, DW_AT_type(*$C$DW$T$67)
   10466                      .dwattr $C$DW$1356, DW_AT_name("maxAccel_Hzps")
   10467                      .dwattr $C$DW$1356, DW_AT_TI_symbol_name("_maxAccel_Hzps")
   10468                      .dwattr $C$DW$1356, DW_AT_data_member_location[DW_OP_plus_uconst 0x16]
   10469                      .dwattr $C$DW$1356, DW_AT_accessibility(DW_ACCESS_public)
   10470              
   10471              $C$DW$1357      .dwtag  DW_TAG_member
   10472                      .dwattr $C$DW$1357, DW_AT_type(*$C$DW$T$67)
   10473                      .dwattr $C$DW$1357, DW_AT_name("maxAccel_est_Hzps")
   10474                      .dwattr $C$DW$1357, DW_AT_TI_symbol_name("_maxAccel_est_Hzps")
   10475                      .dwattr $C$DW$1357, DW_AT_data_member_location[DW_OP_plus_uconst 0x18]
   10476                      .dwattr $C$DW$1357, DW_AT_accessibility(DW_ACCESS_public)
   10477              
   10478              $C$DW$1358      .dwtag  DW_TAG_member
   10479                      .dwattr $C$DW$1358, DW_AT_type(*$C$DW$T$67)
   10480                      .dwattr $C$DW$1358, DW_AT_name("directionPole_rps")
   10481                      .dwattr $C$DW$1358, DW_AT_TI_symbol_name("_directionPole_rps")
   10482                      .dwattr $C$DW$1358, DW_AT_data_member_location[DW_OP_plus_uconst 0x1a]
   10483                      .dwattr $C$DW$1358, DW_AT_accessibility(DW_ACCESS_public)
   10484              
   10485              $C$DW$1359      .dwtag  DW_TAG_member
   10486                      .dwattr $C$DW$1359, DW_AT_type(*$C$DW$T$67)
   10487                      .dwattr $C$DW$1359, DW_AT_name("speedPole_rps")
   10488                      .dwattr $C$DW$1359, DW_AT_TI_symbol_name("_speedPole_rps")
   10489                      .dwattr $C$DW$1359, DW_AT_data_member_location[DW_OP_plus_uconst 0x1c]
   10490                      .dwattr $C$DW$1359, DW_AT_accessibility(DW_ACCESS_public)
   10491              
   10492              $C$DW$1360      .dwtag  DW_TAG_member
   10493                      .dwattr $C$DW$1360, DW_AT_type(*$C$DW$T$67)
   10494                      .dwattr $C$DW$1360, DW_AT_name("dcBusPole_rps")
   10495                      .dwattr $C$DW$1360, DW_AT_TI_symbol_name("_dcBusPole_rps")
   10496                      .dwattr $C$DW$1360, DW_AT_data_member_location[DW_OP_plus_uconst 0x1e]
   10497                      .dwattr $C$DW$1360, DW_AT_accessibility(DW_ACCESS_public)
   10498              
   10499              $C$DW$1361      .dwtag  DW_TAG_member
   10500                      .dwattr $C$DW$1361, DW_AT_type(*$C$DW$T$67)
   10501                      .dwattr $C$DW$1361, DW_AT_name("fluxFraction")
   10502                      .dwattr $C$DW$1361, DW_AT_TI_symbol_name("_fluxFraction")
   10503                      .dwattr $C$DW$1361, DW_AT_data_member_location[DW_OP_plus_uconst 0x20]
   10504                      .dwattr $C$DW$1361, DW_AT_accessibility(DW_ACCESS_public)
   10505              
   10506              $C$DW$1362      .dwtag  DW_TAG_member
   10507                      .dwattr $C$DW$1362, DW_AT_type(*$C$DW$T$67)
   10508                      .dwattr $C$DW$1362, DW_AT_name("indEst_speedMaxFraction")
   10509                      .dwattr $C$DW$1362, DW_AT_TI_symbol_name("_indEst_speedMaxFraction")
   10510                      .dwattr $C$DW$1362, DW_AT_data_member_location[DW_OP_plus_uconst 0x22]
   10511                      .dwattr $C$DW$1362, DW_AT_accessibility(DW_ACCESS_public)
   10512              
   10513              $C$DW$1363      .dwtag  DW_TAG_member
   10514                      .dwattr $C$DW$1363, DW_AT_type(*$C$DW$T$67)
TMS320C2000 Assembler PC v18.1.2 Sun Jun 17 14:52:32 2018

Tools Copyright (c) 1996-2017 Texas Instruments Incorporated
C:\Users\haowp\AppData\Local\Temp\{81472915-7FA4-430D-8ACB-BFB8F401620C} PAGE  197

   10515                      .dwattr $C$DW$1363, DW_AT_name("powerWarpGain")
   10516                      .dwattr $C$DW$1363, DW_AT_TI_symbol_name("_powerWarpGain")
   10517                      .dwattr $C$DW$1363, DW_AT_data_member_location[DW_OP_plus_uconst 0x24]
   10518                      .dwattr $C$DW$1363, DW_AT_accessibility(DW_ACCESS_public)
   10519              
   10520              $C$DW$1364      .dwtag  DW_TAG_member
   10521                      .dwattr $C$DW$1364, DW_AT_type(*$C$DW$T$66)
   10522                      .dwattr $C$DW$1364, DW_AT_name("systemFreq_MHz")
   10523                      .dwattr $C$DW$1364, DW_AT_TI_symbol_name("_systemFreq_MHz")
   10524                      .dwattr $C$DW$1364, DW_AT_data_member_location[DW_OP_plus_uconst 0x26]
   10525                      .dwattr $C$DW$1364, DW_AT_accessibility(DW_ACCESS_public)
   10526              
   10527              $C$DW$1365      .dwtag  DW_TAG_member
   10528                      .dwattr $C$DW$1365, DW_AT_type(*$C$DW$T$67)
   10529                      .dwattr $C$DW$1365, DW_AT_name("pwmPeriod_usec")
   10530                      .dwattr $C$DW$1365, DW_AT_TI_symbol_name("_pwmPeriod_usec")
   10531                      .dwattr $C$DW$1365, DW_AT_data_member_location[DW_OP_plus_uconst 0x28]
   10532                      .dwattr $C$DW$1365, DW_AT_accessibility(DW_ACCESS_public)
   10533              
   10534              $C$DW$1366      .dwtag  DW_TAG_member
   10535                      .dwattr $C$DW$1366, DW_AT_type(*$C$DW$T$67)
   10536                      .dwattr $C$DW$1366, DW_AT_name("voltage_sf")
   10537                      .dwattr $C$DW$1366, DW_AT_TI_symbol_name("_voltage_sf")
   10538                      .dwattr $C$DW$1366, DW_AT_data_member_location[DW_OP_plus_uconst 0x2a]
   10539                      .dwattr $C$DW$1366, DW_AT_accessibility(DW_ACCESS_public)
   10540              
   10541              $C$DW$1367      .dwtag  DW_TAG_member
   10542                      .dwattr $C$DW$1367, DW_AT_type(*$C$DW$T$67)
   10543                      .dwattr $C$DW$1367, DW_AT_name("current_sf")
   10544                      .dwattr $C$DW$1367, DW_AT_TI_symbol_name("_current_sf")
   10545                      .dwattr $C$DW$1367, DW_AT_data_member_location[DW_OP_plus_uconst 0x2c]
   10546                      .dwattr $C$DW$1367, DW_AT_accessibility(DW_ACCESS_public)
   10547              
   10548              $C$DW$1368      .dwtag  DW_TAG_member
   10549                      .dwattr $C$DW$1368, DW_AT_type(*$C$DW$T$67)
   10550                      .dwattr $C$DW$1368, DW_AT_name("voltageFilterPole_rps")
   10551                      .dwattr $C$DW$1368, DW_AT_TI_symbol_name("_voltageFilterPole_rps")
   10552                      .dwattr $C$DW$1368, DW_AT_data_member_location[DW_OP_plus_uconst 0x2e]
   10553                      .dwattr $C$DW$1368, DW_AT_accessibility(DW_ACCESS_public)
   10554              
   10555              $C$DW$1369      .dwtag  DW_TAG_member
   10556                      .dwattr $C$DW$1369, DW_AT_type(*$C$DW$T$67)
   10557                      .dwattr $C$DW$1369, DW_AT_name("maxVsMag_pu")
   10558                      .dwattr $C$DW$1369, DW_AT_TI_symbol_name("_maxVsMag_pu")
   10559                      .dwattr $C$DW$1369, DW_AT_data_member_location[DW_OP_plus_uconst 0x30]
   10560                      .dwattr $C$DW$1369, DW_AT_accessibility(DW_ACCESS_public)
   10561              
   10562              $C$DW$1370      .dwtag  DW_TAG_member
   10563                      .dwattr $C$DW$1370, DW_AT_type(*$C$DW$T$67)
   10564                      .dwattr $C$DW$1370, DW_AT_name("estKappa")
   10565                      .dwattr $C$DW$1370, DW_AT_TI_symbol_name("_estKappa")
   10566                      .dwattr $C$DW$1370, DW_AT_data_member_location[DW_OP_plus_uconst 0x32]
   10567                      .dwattr $C$DW$1370, DW_AT_accessibility(DW_ACCESS_public)
   10568              
   10569              $C$DW$1371      .dwtag  DW_TAG_member
TMS320C2000 Assembler PC v18.1.2 Sun Jun 17 14:52:32 2018

Tools Copyright (c) 1996-2017 Texas Instruments Incorporated
C:\Users\haowp\AppData\Local\Temp\{81472915-7FA4-430D-8ACB-BFB8F401620C} PAGE  198

   10570                      .dwattr $C$DW$1371, DW_AT_type(*$C$DW$T$198)
   10571                      .dwattr $C$DW$1371, DW_AT_name("motor_type")
   10572                      .dwattr $C$DW$1371, DW_AT_TI_symbol_name("_motor_type")
   10573                      .dwattr $C$DW$1371, DW_AT_data_member_location[DW_OP_plus_uconst 0x34]
   10574                      .dwattr $C$DW$1371, DW_AT_accessibility(DW_ACCESS_public)
   10575              
   10576              $C$DW$1372      .dwtag  DW_TAG_member
   10577                      .dwattr $C$DW$1372, DW_AT_type(*$C$DW$T$66)
   10578                      .dwattr $C$DW$1372, DW_AT_name("motor_numPolePairs")
   10579                      .dwattr $C$DW$1372, DW_AT_TI_symbol_name("_motor_numPolePairs")
   10580                      .dwattr $C$DW$1372, DW_AT_data_member_location[DW_OP_plus_uconst 0x35]
   10581                      .dwattr $C$DW$1372, DW_AT_accessibility(DW_ACCESS_public)
   10582              
   10583              $C$DW$1373      .dwtag  DW_TAG_member
   10584                      .dwattr $C$DW$1373, DW_AT_type(*$C$DW$T$67)
   10585                      .dwattr $C$DW$1373, DW_AT_name("motor_ratedFlux")
   10586                      .dwattr $C$DW$1373, DW_AT_TI_symbol_name("_motor_ratedFlux")
   10587                      .dwattr $C$DW$1373, DW_AT_data_member_location[DW_OP_plus_uconst 0x36]
   10588                      .dwattr $C$DW$1373, DW_AT_accessibility(DW_ACCESS_public)
   10589              
   10590              $C$DW$1374      .dwtag  DW_TAG_member
   10591                      .dwattr $C$DW$1374, DW_AT_type(*$C$DW$T$67)
   10592                      .dwattr $C$DW$1374, DW_AT_name("motor_Rr")
   10593                      .dwattr $C$DW$1374, DW_AT_TI_symbol_name("_motor_Rr")
   10594                      .dwattr $C$DW$1374, DW_AT_data_member_location[DW_OP_plus_uconst 0x38]
   10595                      .dwattr $C$DW$1374, DW_AT_accessibility(DW_ACCESS_public)
   10596              
   10597              $C$DW$1375      .dwtag  DW_TAG_member
   10598                      .dwattr $C$DW$1375, DW_AT_type(*$C$DW$T$67)
   10599                      .dwattr $C$DW$1375, DW_AT_name("motor_Rs")
   10600                      .dwattr $C$DW$1375, DW_AT_TI_symbol_name("_motor_Rs")
   10601                      .dwattr $C$DW$1375, DW_AT_data_member_location[DW_OP_plus_uconst 0x3a]
   10602                      .dwattr $C$DW$1375, DW_AT_accessibility(DW_ACCESS_public)
   10603              
   10604              $C$DW$1376      .dwtag  DW_TAG_member
   10605                      .dwattr $C$DW$1376, DW_AT_type(*$C$DW$T$67)
   10606                      .dwattr $C$DW$1376, DW_AT_name("motor_Ls_d")
   10607                      .dwattr $C$DW$1376, DW_AT_TI_symbol_name("_motor_Ls_d")
   10608                      .dwattr $C$DW$1376, DW_AT_data_member_location[DW_OP_plus_uconst 0x3c]
   10609                      .dwattr $C$DW$1376, DW_AT_accessibility(DW_ACCESS_public)
   10610              
   10611              $C$DW$1377      .dwtag  DW_TAG_member
   10612                      .dwattr $C$DW$1377, DW_AT_type(*$C$DW$T$67)
   10613                      .dwattr $C$DW$1377, DW_AT_name("motor_Ls_q")
   10614                      .dwattr $C$DW$1377, DW_AT_TI_symbol_name("_motor_Ls_q")
   10615                      .dwattr $C$DW$1377, DW_AT_data_member_location[DW_OP_plus_uconst 0x3e]
   10616                      .dwattr $C$DW$1377, DW_AT_accessibility(DW_ACCESS_public)
   10617              
   10618              $C$DW$1378      .dwtag  DW_TAG_member
   10619                      .dwattr $C$DW$1378, DW_AT_type(*$C$DW$T$67)
   10620                      .dwattr $C$DW$1378, DW_AT_name("maxCurrent")
   10621                      .dwattr $C$DW$1378, DW_AT_TI_symbol_name("_maxCurrent")
   10622                      .dwattr $C$DW$1378, DW_AT_data_member_location[DW_OP_plus_uconst 0x40]
   10623                      .dwattr $C$DW$1378, DW_AT_accessibility(DW_ACCESS_public)
   10624              
TMS320C2000 Assembler PC v18.1.2 Sun Jun 17 14:52:32 2018

Tools Copyright (c) 1996-2017 Texas Instruments Incorporated
C:\Users\haowp\AppData\Local\Temp\{81472915-7FA4-430D-8ACB-BFB8F401620C} PAGE  199

   10625              $C$DW$1379      .dwtag  DW_TAG_member
   10626                      .dwattr $C$DW$1379, DW_AT_type(*$C$DW$T$67)
   10627                      .dwattr $C$DW$1379, DW_AT_name("maxCurrent_resEst")
   10628                      .dwattr $C$DW$1379, DW_AT_TI_symbol_name("_maxCurrent_resEst")
   10629                      .dwattr $C$DW$1379, DW_AT_data_member_location[DW_OP_plus_uconst 0x42]
   10630                      .dwattr $C$DW$1379, DW_AT_accessibility(DW_ACCESS_public)
   10631              
   10632              $C$DW$1380      .dwtag  DW_TAG_member
   10633                      .dwattr $C$DW$1380, DW_AT_type(*$C$DW$T$67)
   10634                      .dwattr $C$DW$1380, DW_AT_name("maxCurrent_indEst")
   10635                      .dwattr $C$DW$1380, DW_AT_TI_symbol_name("_maxCurrent_indEst")
   10636                      .dwattr $C$DW$1380, DW_AT_data_member_location[DW_OP_plus_uconst 0x44]
   10637                      .dwattr $C$DW$1380, DW_AT_accessibility(DW_ACCESS_public)
   10638              
   10639              $C$DW$1381      .dwtag  DW_TAG_member
   10640                      .dwattr $C$DW$1381, DW_AT_type(*$C$DW$T$67)
   10641                      .dwattr $C$DW$1381, DW_AT_name("maxCurrentSlope")
   10642                      .dwattr $C$DW$1381, DW_AT_TI_symbol_name("_maxCurrentSlope")
   10643                      .dwattr $C$DW$1381, DW_AT_data_member_location[DW_OP_plus_uconst 0x46]
   10644                      .dwattr $C$DW$1381, DW_AT_accessibility(DW_ACCESS_public)
   10645              
   10646              $C$DW$1382      .dwtag  DW_TAG_member
   10647                      .dwattr $C$DW$1382, DW_AT_type(*$C$DW$T$67)
   10648                      .dwattr $C$DW$1382, DW_AT_name("maxCurrentSlope_powerWarp")
   10649                      .dwattr $C$DW$1382, DW_AT_TI_symbol_name("_maxCurrentSlope_powerWarp")
   10650                      .dwattr $C$DW$1382, DW_AT_data_member_location[DW_OP_plus_uconst 0x48]
   10651                      .dwattr $C$DW$1382, DW_AT_accessibility(DW_ACCESS_public)
   10652              
   10653              $C$DW$1383      .dwtag  DW_TAG_member
   10654                      .dwattr $C$DW$1383, DW_AT_type(*$C$DW$T$67)
   10655                      .dwattr $C$DW$1383, DW_AT_name("IdRated")
   10656                      .dwattr $C$DW$1383, DW_AT_TI_symbol_name("_IdRated")
   10657                      .dwattr $C$DW$1383, DW_AT_data_member_location[DW_OP_plus_uconst 0x4a]
   10658                      .dwattr $C$DW$1383, DW_AT_accessibility(DW_ACCESS_public)
   10659              
   10660              $C$DW$1384      .dwtag  DW_TAG_member
   10661                      .dwattr $C$DW$1384, DW_AT_type(*$C$DW$T$67)
   10662                      .dwattr $C$DW$1384, DW_AT_name("IdRatedFraction_indEst")
   10663                      .dwattr $C$DW$1384, DW_AT_TI_symbol_name("_IdRatedFraction_indEst")
   10664                      .dwattr $C$DW$1384, DW_AT_data_member_location[DW_OP_plus_uconst 0x4c]
   10665                      .dwattr $C$DW$1384, DW_AT_accessibility(DW_ACCESS_public)
   10666              
   10667              $C$DW$1385      .dwtag  DW_TAG_member
   10668                      .dwattr $C$DW$1385, DW_AT_type(*$C$DW$T$67)
   10669                      .dwattr $C$DW$1385, DW_AT_name("IdRatedFraction_ratedFlux")
   10670                      .dwattr $C$DW$1385, DW_AT_TI_symbol_name("_IdRatedFraction_ratedFlux")
   10671                      .dwattr $C$DW$1385, DW_AT_data_member_location[DW_OP_plus_uconst 0x4e]
   10672                      .dwattr $C$DW$1385, DW_AT_accessibility(DW_ACCESS_public)
   10673              
   10674              $C$DW$1386      .dwtag  DW_TAG_member
   10675                      .dwattr $C$DW$1386, DW_AT_type(*$C$DW$T$67)
   10676                      .dwattr $C$DW$1386, DW_AT_name("IdRated_delta")
   10677                      .dwattr $C$DW$1386, DW_AT_TI_symbol_name("_IdRated_delta")
   10678                      .dwattr $C$DW$1386, DW_AT_data_member_location[DW_OP_plus_uconst 0x50]
   10679                      .dwattr $C$DW$1386, DW_AT_accessibility(DW_ACCESS_public)
TMS320C2000 Assembler PC v18.1.2 Sun Jun 17 14:52:32 2018

Tools Copyright (c) 1996-2017 Texas Instruments Incorporated
C:\Users\haowp\AppData\Local\Temp\{81472915-7FA4-430D-8ACB-BFB8F401620C} PAGE  200

   10680              
   10681              $C$DW$1387      .dwtag  DW_TAG_member
   10682                      .dwattr $C$DW$1387, DW_AT_type(*$C$DW$T$67)
   10683                      .dwattr $C$DW$1387, DW_AT_name("fluxEstFreq_Hz")
   10684                      .dwattr $C$DW$1387, DW_AT_TI_symbol_name("_fluxEstFreq_Hz")
   10685                      .dwattr $C$DW$1387, DW_AT_data_member_location[DW_OP_plus_uconst 0x52]
   10686                      .dwattr $C$DW$1387, DW_AT_accessibility(DW_ACCESS_public)
   10687              
   10688              $C$DW$1388      .dwtag  DW_TAG_member
   10689                      .dwattr $C$DW$1388, DW_AT_type(*$C$DW$T$65)
   10690                      .dwattr $C$DW$1388, DW_AT_name("ctrlWaitTime")
   10691                      .dwattr $C$DW$1388, DW_AT_TI_symbol_name("_ctrlWaitTime")
   10692                      .dwattr $C$DW$1388, DW_AT_data_member_location[DW_OP_plus_uconst 0x54]
   10693                      .dwattr $C$DW$1388, DW_AT_accessibility(DW_ACCESS_public)
   10694              
   10695              $C$DW$1389      .dwtag  DW_TAG_member
   10696                      .dwattr $C$DW$1389, DW_AT_type(*$C$DW$T$231)
   10697                      .dwattr $C$DW$1389, DW_AT_name("estWaitTime")
   10698                      .dwattr $C$DW$1389, DW_AT_TI_symbol_name("_estWaitTime")
   10699                      .dwattr $C$DW$1389, DW_AT_data_member_location[DW_OP_plus_uconst 0x5c]
   10700                      .dwattr $C$DW$1389, DW_AT_accessibility(DW_ACCESS_public)
   10701              
   10702              $C$DW$1390      .dwtag  DW_TAG_member
   10703                      .dwattr $C$DW$1390, DW_AT_type(*$C$DW$T$232)
   10704                      .dwattr $C$DW$1390, DW_AT_name("FluxWaitTime")
   10705                      .dwattr $C$DW$1390, DW_AT_TI_symbol_name("_FluxWaitTime")
   10706                      .dwattr $C$DW$1390, DW_AT_data_member_location[DW_OP_plus_uconst 0x78]
   10707                      .dwattr $C$DW$1390, DW_AT_accessibility(DW_ACCESS_public)
   10708              
   10709              $C$DW$1391      .dwtag  DW_TAG_member
   10710                      .dwattr $C$DW$1391, DW_AT_type(*$C$DW$T$233)
   10711                      .dwattr $C$DW$1391, DW_AT_name("LsWaitTime")
   10712                      .dwattr $C$DW$1391, DW_AT_TI_symbol_name("_LsWaitTime")
   10713                      .dwattr $C$DW$1391, DW_AT_data_member_location[DW_OP_plus_uconst 0x84]
   10714                      .dwattr $C$DW$1391, DW_AT_accessibility(DW_ACCESS_public)
   10715              
   10716              $C$DW$1392      .dwtag  DW_TAG_member
   10717                      .dwattr $C$DW$1392, DW_AT_type(*$C$DW$T$232)
   10718                      .dwattr $C$DW$1392, DW_AT_name("RsWaitTime")
   10719                      .dwattr $C$DW$1392, DW_AT_TI_symbol_name("_RsWaitTime")
   10720                      .dwattr $C$DW$1392, DW_AT_data_member_location[DW_OP_plus_uconst 0x92]
   10721                      .dwattr $C$DW$1392, DW_AT_accessibility(DW_ACCESS_public)
   10722              
   10723              $C$DW$1393      .dwtag  DW_TAG_member
   10724                      .dwattr $C$DW$1393, DW_AT_type(*$C$DW$T$64)
   10725                      .dwattr $C$DW$1393, DW_AT_name("ctrlFreq_Hz")
   10726                      .dwattr $C$DW$1393, DW_AT_TI_symbol_name("_ctrlFreq_Hz")
   10727                      .dwattr $C$DW$1393, DW_AT_data_member_location[DW_OP_plus_uconst 0x9e]
   10728                      .dwattr $C$DW$1393, DW_AT_accessibility(DW_ACCESS_public)
   10729              
   10730              $C$DW$1394      .dwtag  DW_TAG_member
   10731                      .dwattr $C$DW$1394, DW_AT_type(*$C$DW$T$64)
   10732                      .dwattr $C$DW$1394, DW_AT_name("estFreq_Hz")
   10733                      .dwattr $C$DW$1394, DW_AT_TI_symbol_name("_estFreq_Hz")
   10734                      .dwattr $C$DW$1394, DW_AT_data_member_location[DW_OP_plus_uconst 0xa0]
TMS320C2000 Assembler PC v18.1.2 Sun Jun 17 14:52:32 2018

Tools Copyright (c) 1996-2017 Texas Instruments Incorporated
C:\Users\haowp\AppData\Local\Temp\{81472915-7FA4-430D-8ACB-BFB8F401620C} PAGE  201

   10735                      .dwattr $C$DW$1394, DW_AT_accessibility(DW_ACCESS_public)
   10736              
   10737              $C$DW$1395      .dwtag  DW_TAG_member
   10738                      .dwattr $C$DW$1395, DW_AT_type(*$C$DW$T$64)
   10739                      .dwattr $C$DW$1395, DW_AT_name("RoverL_estFreq_Hz")
   10740                      .dwattr $C$DW$1395, DW_AT_TI_symbol_name("_RoverL_estFreq_Hz")
   10741                      .dwattr $C$DW$1395, DW_AT_data_member_location[DW_OP_plus_uconst 0xa2]
   10742                      .dwattr $C$DW$1395, DW_AT_accessibility(DW_ACCESS_public)
   10743              
   10744              $C$DW$1396      .dwtag  DW_TAG_member
   10745                      .dwattr $C$DW$1396, DW_AT_type(*$C$DW$T$64)
   10746                      .dwattr $C$DW$1396, DW_AT_name("trajFreq_Hz")
   10747                      .dwattr $C$DW$1396, DW_AT_TI_symbol_name("_trajFreq_Hz")
   10748                      .dwattr $C$DW$1396, DW_AT_data_member_location[DW_OP_plus_uconst 0xa4]
   10749                      .dwattr $C$DW$1396, DW_AT_accessibility(DW_ACCESS_public)
   10750              
   10751              $C$DW$1397      .dwtag  DW_TAG_member
   10752                      .dwattr $C$DW$1397, DW_AT_type(*$C$DW$T$67)
   10753                      .dwattr $C$DW$1397, DW_AT_name("ctrlPeriod_sec")
   10754                      .dwattr $C$DW$1397, DW_AT_TI_symbol_name("_ctrlPeriod_sec")
   10755                      .dwattr $C$DW$1397, DW_AT_data_member_location[DW_OP_plus_uconst 0xa6]
   10756                      .dwattr $C$DW$1397, DW_AT_accessibility(DW_ACCESS_public)
   10757              
   10758              $C$DW$1398      .dwtag  DW_TAG_member
   10759                      .dwattr $C$DW$1398, DW_AT_type(*$C$DW$T$67)
   10760                      .dwattr $C$DW$1398, DW_AT_name("maxNegativeIdCurrent_a")
   10761                      .dwattr $C$DW$1398, DW_AT_TI_symbol_name("_maxNegativeIdCurrent_a")
   10762                      .dwattr $C$DW$1398, DW_AT_data_member_location[DW_OP_plus_uconst 0xa8]
   10763                      .dwattr $C$DW$1398, DW_AT_accessibility(DW_ACCESS_public)
   10764              
   10765              $C$DW$1399      .dwtag  DW_TAG_member
   10766                      .dwattr $C$DW$1399, DW_AT_type(*$C$DW$T$203)
   10767                      .dwattr $C$DW$1399, DW_AT_name("errorCode")
   10768                      .dwattr $C$DW$1399, DW_AT_TI_symbol_name("_errorCode")
   10769                      .dwattr $C$DW$1399, DW_AT_data_member_location[DW_OP_plus_uconst 0xaa]
   10770                      .dwattr $C$DW$1399, DW_AT_accessibility(DW_ACCESS_public)
   10771              
   10772                      .dwendtag $C$DW$T$234
   10773              
   10774              $C$DW$T$243     .dwtag  DW_TAG_typedef
   10775                      .dwattr $C$DW$T$243, DW_AT_name("USER_Params")
   10776                      .dwattr $C$DW$T$243, DW_AT_type(*$C$DW$T$234)
   10777                      .dwattr $C$DW$T$243, DW_AT_language(DW_LANG_C)
   10778              
   10779              $C$DW$1400      .dwtag  DW_TAG_TI_far_type
   10780                      .dwattr $C$DW$1400, DW_AT_type(*$C$DW$T$243)
   10781              
   10782              $C$DW$T$302     .dwtag  DW_TAG_const_type
   10783                      .dwattr $C$DW$T$302, DW_AT_type(*$C$DW$1400)
   10784              
   10785              $C$DW$T$303     .dwtag  DW_TAG_pointer_type
   10786                      .dwattr $C$DW$T$303, DW_AT_type(*$C$DW$T$302)
   10787                      .dwattr $C$DW$T$303, DW_AT_address_class(0x20)
   10788              
   10789              $C$DW$T$244     .dwtag  DW_TAG_pointer_type
TMS320C2000 Assembler PC v18.1.2 Sun Jun 17 14:52:32 2018

Tools Copyright (c) 1996-2017 Texas Instruments Incorporated
C:\Users\haowp\AppData\Local\Temp\{81472915-7FA4-430D-8ACB-BFB8F401620C} PAGE  202

   10790                      .dwattr $C$DW$T$244, DW_AT_type(*$C$DW$T$243)
   10791                      .dwattr $C$DW$T$244, DW_AT_address_class(0x20)
   10792              
   10793              
   10794              $C$DW$T$235     .dwtag  DW_TAG_structure_type
   10795                      .dwattr $C$DW$T$235, DW_AT_name("_WDOG_Obj_")
   10796                      .dwattr $C$DW$T$235, DW_AT_byte_size(0x08)
   10797              $C$DW$1401      .dwtag  DW_TAG_member
   10798                      .dwattr $C$DW$1401, DW_AT_type(*$C$DW$T$23)
   10799                      .dwattr $C$DW$1401, DW_AT_name("SCSR")
   10800                      .dwattr $C$DW$1401, DW_AT_TI_symbol_name("_SCSR")
   10801                      .dwattr $C$DW$1401, DW_AT_data_member_location[DW_OP_plus_uconst 0x0]
   10802                      .dwattr $C$DW$1401, DW_AT_accessibility(DW_ACCESS_public)
   10803              
   10804              $C$DW$1402      .dwtag  DW_TAG_member
   10805                      .dwattr $C$DW$1402, DW_AT_type(*$C$DW$T$23)
   10806                      .dwattr $C$DW$1402, DW_AT_name("WDCNTR")
   10807                      .dwattr $C$DW$1402, DW_AT_TI_symbol_name("_WDCNTR")
   10808                      .dwattr $C$DW$1402, DW_AT_data_member_location[DW_OP_plus_uconst 0x1]
   10809                      .dwattr $C$DW$1402, DW_AT_accessibility(DW_ACCESS_public)
   10810              
   10811              $C$DW$1403      .dwtag  DW_TAG_member
   10812                      .dwattr $C$DW$1403, DW_AT_type(*$C$DW$T$23)
   10813                      .dwattr $C$DW$1403, DW_AT_name("rsvd_1")
   10814                      .dwattr $C$DW$1403, DW_AT_TI_symbol_name("_rsvd_1")
   10815                      .dwattr $C$DW$1403, DW_AT_data_member_location[DW_OP_plus_uconst 0x2]
   10816                      .dwattr $C$DW$1403, DW_AT_accessibility(DW_ACCESS_public)
   10817              
   10818              $C$DW$1404      .dwtag  DW_TAG_member
   10819                      .dwattr $C$DW$1404, DW_AT_type(*$C$DW$T$23)
   10820                      .dwattr $C$DW$1404, DW_AT_name("WDKEY")
   10821                      .dwattr $C$DW$1404, DW_AT_TI_symbol_name("_WDKEY")
   10822                      .dwattr $C$DW$1404, DW_AT_data_member_location[DW_OP_plus_uconst 0x3]
   10823                      .dwattr $C$DW$1404, DW_AT_accessibility(DW_ACCESS_public)
   10824              
   10825              $C$DW$1405      .dwtag  DW_TAG_member
   10826                      .dwattr $C$DW$1405, DW_AT_type(*$C$DW$T$28)
   10827                      .dwattr $C$DW$1405, DW_AT_name("rsvd_2")
   10828                      .dwattr $C$DW$1405, DW_AT_TI_symbol_name("_rsvd_2")
   10829                      .dwattr $C$DW$1405, DW_AT_data_member_location[DW_OP_plus_uconst 0x4]
   10830                      .dwattr $C$DW$1405, DW_AT_accessibility(DW_ACCESS_public)
   10831              
   10832              $C$DW$1406      .dwtag  DW_TAG_member
   10833                      .dwattr $C$DW$1406, DW_AT_type(*$C$DW$T$23)
   10834                      .dwattr $C$DW$1406, DW_AT_name("WDCR")
   10835                      .dwattr $C$DW$1406, DW_AT_TI_symbol_name("_WDCR")
   10836                      .dwattr $C$DW$1406, DW_AT_data_member_location[DW_OP_plus_uconst 0x7]
   10837                      .dwattr $C$DW$1406, DW_AT_accessibility(DW_ACCESS_public)
   10838              
   10839                      .dwendtag $C$DW$T$235
   10840              
   10841              $C$DW$T$183     .dwtag  DW_TAG_pointer_type
   10842                      .dwattr $C$DW$T$183, DW_AT_type(*$C$DW$T$235)
   10843                      .dwattr $C$DW$T$183, DW_AT_address_class(0x20)
   10844              
TMS320C2000 Assembler PC v18.1.2 Sun Jun 17 14:52:32 2018

Tools Copyright (c) 1996-2017 Texas Instruments Incorporated
C:\Users\haowp\AppData\Local\Temp\{81472915-7FA4-430D-8ACB-BFB8F401620C} PAGE  203

   10845              $C$DW$T$184     .dwtag  DW_TAG_typedef
   10846                      .dwattr $C$DW$T$184, DW_AT_name("WDOG_Handle")
   10847                      .dwattr $C$DW$T$184, DW_AT_type(*$C$DW$T$183)
   10848                      .dwattr $C$DW$T$184, DW_AT_language(DW_LANG_C)
   10849              
   10850              $C$DW$T$2       .dwtag  DW_TAG_unspecified_type
   10851                      .dwattr $C$DW$T$2, DW_AT_name("void")
   10852              
   10853              $C$DW$T$3       .dwtag  DW_TAG_pointer_type
   10854                      .dwattr $C$DW$T$3, DW_AT_type(*$C$DW$T$2)
   10855                      .dwattr $C$DW$T$3, DW_AT_address_class(0x20)
   10856              
   10857              
   10858              $C$DW$T$217     .dwtag  DW_TAG_subroutine_type
   10859                      .dwattr $C$DW$T$217, DW_AT_language(DW_LANG_C)
   10860                      .dwendtag $C$DW$T$217
   10861              
   10862              $C$DW$T$218     .dwtag  DW_TAG_pointer_type
   10863                      .dwattr $C$DW$T$218, DW_AT_type(*$C$DW$T$217)
   10864                      .dwattr $C$DW$T$218, DW_AT_address_class(0x20)
   10865              
   10866              $C$DW$T$219     .dwtag  DW_TAG_typedef
   10867                      .dwattr $C$DW$T$219, DW_AT_name("PIE_IntVec_t")
   10868                      .dwattr $C$DW$T$219, DW_AT_type(*$C$DW$T$218)
   10869                      .dwattr $C$DW$T$219, DW_AT_language(DW_LANG_C)
   10870              
   10871              $C$DW$1407      .dwtag  DW_TAG_TI_far_type
   10872                      .dwattr $C$DW$1407, DW_AT_type(*$C$DW$T$219)
   10873              
   10874              $C$DW$T$220     .dwtag  DW_TAG_volatile_type
   10875                      .dwattr $C$DW$T$220, DW_AT_type(*$C$DW$1407)
   10876              
   10877              $C$DW$T$4       .dwtag  DW_TAG_base_type
   10878                      .dwattr $C$DW$T$4, DW_AT_encoding(DW_ATE_boolean)
   10879                      .dwattr $C$DW$T$4, DW_AT_name("bool")
   10880                      .dwattr $C$DW$T$4, DW_AT_byte_size(0x01)
   10881              
   10882              $C$DW$T$5       .dwtag  DW_TAG_base_type
   10883                      .dwattr $C$DW$T$5, DW_AT_encoding(DW_ATE_signed_char)
   10884                      .dwattr $C$DW$T$5, DW_AT_name("signed char")
   10885                      .dwattr $C$DW$T$5, DW_AT_byte_size(0x01)
   10886              
   10887              $C$DW$T$6       .dwtag  DW_TAG_base_type
   10888                      .dwattr $C$DW$T$6, DW_AT_encoding(DW_ATE_unsigned_char)
   10889                      .dwattr $C$DW$T$6, DW_AT_name("unsigned char")
   10890                      .dwattr $C$DW$T$6, DW_AT_byte_size(0x01)
   10891              
   10892              $C$DW$T$7       .dwtag  DW_TAG_base_type
   10893                      .dwattr $C$DW$T$7, DW_AT_encoding(DW_ATE_signed_char)
   10894                      .dwattr $C$DW$T$7, DW_AT_name("wchar_t")
   10895                      .dwattr $C$DW$T$7, DW_AT_byte_size(0x01)
   10896              
   10897              $C$DW$T$8       .dwtag  DW_TAG_base_type
   10898                      .dwattr $C$DW$T$8, DW_AT_encoding(DW_ATE_signed)
   10899                      .dwattr $C$DW$T$8, DW_AT_name("short")
TMS320C2000 Assembler PC v18.1.2 Sun Jun 17 14:52:32 2018

Tools Copyright (c) 1996-2017 Texas Instruments Incorporated
C:\Users\haowp\AppData\Local\Temp\{81472915-7FA4-430D-8ACB-BFB8F401620C} PAGE  204

   10900                      .dwattr $C$DW$T$8, DW_AT_byte_size(0x01)
   10901              
   10902              $C$DW$T$9       .dwtag  DW_TAG_base_type
   10903                      .dwattr $C$DW$T$9, DW_AT_encoding(DW_ATE_unsigned)
   10904                      .dwattr $C$DW$T$9, DW_AT_name("unsigned short")
   10905                      .dwattr $C$DW$T$9, DW_AT_byte_size(0x01)
   10906              
   10907              $C$DW$T$10      .dwtag  DW_TAG_base_type
   10908                      .dwattr $C$DW$T$10, DW_AT_encoding(DW_ATE_signed)
   10909                      .dwattr $C$DW$T$10, DW_AT_name("int")
   10910                      .dwattr $C$DW$T$10, DW_AT_byte_size(0x01)
   10911              
   10912              $C$DW$T$11      .dwtag  DW_TAG_base_type
   10913                      .dwattr $C$DW$T$11, DW_AT_encoding(DW_ATE_unsigned)
   10914                      .dwattr $C$DW$T$11, DW_AT_name("unsigned int")
   10915                      .dwattr $C$DW$T$11, DW_AT_byte_size(0x01)
   10916              
   10917              $C$DW$T$22      .dwtag  DW_TAG_typedef
   10918                      .dwattr $C$DW$T$22, DW_AT_name("uint16_t")
   10919                      .dwattr $C$DW$T$22, DW_AT_type(*$C$DW$T$11)
   10920                      .dwattr $C$DW$T$22, DW_AT_language(DW_LANG_C)
   10921              
   10922              $C$DW$T$306     .dwtag  DW_TAG_pointer_type
   10923                      .dwattr $C$DW$T$306, DW_AT_type(*$C$DW$T$22)
   10924                      .dwattr $C$DW$T$306, DW_AT_address_class(0x20)
   10925              
   10926              $C$DW$1408      .dwtag  DW_TAG_TI_far_type
   10927                      .dwattr $C$DW$1408, DW_AT_type(*$C$DW$T$22)
   10928              
   10929              $C$DW$T$23      .dwtag  DW_TAG_volatile_type
   10930                      .dwattr $C$DW$T$23, DW_AT_type(*$C$DW$1408)
   10931              
   10932              
   10933              $C$DW$T$24      .dwtag  DW_TAG_array_type
   10934                      .dwattr $C$DW$T$24, DW_AT_type(*$C$DW$T$23)
   10935                      .dwattr $C$DW$T$24, DW_AT_language(DW_LANG_C)
   10936                      .dwattr $C$DW$T$24, DW_AT_byte_size(0x10)
   10937              $C$DW$1409      .dwtag  DW_TAG_subrange_type
   10938                      .dwattr $C$DW$1409, DW_AT_upper_bound(0x0f)
   10939              
   10940                      .dwendtag $C$DW$T$24
   10941              
   10942              
   10943              $C$DW$T$25      .dwtag  DW_TAG_array_type
   10944                      .dwattr $C$DW$T$25, DW_AT_type(*$C$DW$T$23)
   10945                      .dwattr $C$DW$T$25, DW_AT_language(DW_LANG_C)
   10946                      .dwattr $C$DW$T$25, DW_AT_byte_size(0x65f0)
   10947              $C$DW$1410      .dwtag  DW_TAG_subrange_type
   10948                      .dwattr $C$DW$1410, DW_AT_upper_bound(0x65ef)
   10949              
   10950                      .dwendtag $C$DW$T$25
   10951              
   10952              
   10953              $C$DW$T$26      .dwtag  DW_TAG_array_type
   10954                      .dwattr $C$DW$T$26, DW_AT_type(*$C$DW$T$23)
TMS320C2000 Assembler PC v18.1.2 Sun Jun 17 14:52:32 2018

Tools Copyright (c) 1996-2017 Texas Instruments Incorporated
C:\Users\haowp\AppData\Local\Temp\{81472915-7FA4-430D-8ACB-BFB8F401620C} PAGE  205

   10955                      .dwattr $C$DW$T$26, DW_AT_language(DW_LANG_C)
   10956                      .dwattr $C$DW$T$26, DW_AT_byte_size(0x02)
   10957              $C$DW$1411      .dwtag  DW_TAG_subrange_type
   10958                      .dwattr $C$DW$1411, DW_AT_upper_bound(0x01)
   10959              
   10960                      .dwendtag $C$DW$T$26
   10961              
   10962              
   10963              $C$DW$T$27      .dwtag  DW_TAG_array_type
   10964                      .dwattr $C$DW$T$27, DW_AT_type(*$C$DW$T$23)
   10965                      .dwattr $C$DW$T$27, DW_AT_language(DW_LANG_C)
   10966                      .dwattr $C$DW$T$27, DW_AT_byte_size(0x05)
   10967              $C$DW$1412      .dwtag  DW_TAG_subrange_type
   10968                      .dwattr $C$DW$1412, DW_AT_upper_bound(0x04)
   10969              
   10970                      .dwendtag $C$DW$T$27
   10971              
   10972              
   10973              $C$DW$T$28      .dwtag  DW_TAG_array_type
   10974                      .dwattr $C$DW$T$28, DW_AT_type(*$C$DW$T$23)
   10975                      .dwattr $C$DW$T$28, DW_AT_language(DW_LANG_C)
   10976                      .dwattr $C$DW$T$28, DW_AT_byte_size(0x03)
   10977              $C$DW$1413      .dwtag  DW_TAG_subrange_type
   10978                      .dwattr $C$DW$1413, DW_AT_upper_bound(0x02)
   10979              
   10980                      .dwendtag $C$DW$T$28
   10981              
   10982              
   10983              $C$DW$T$29      .dwtag  DW_TAG_array_type
   10984                      .dwattr $C$DW$T$29, DW_AT_type(*$C$DW$T$23)
   10985                      .dwattr $C$DW$T$29, DW_AT_language(DW_LANG_C)
   10986                      .dwattr $C$DW$T$29, DW_AT_byte_size(0x0d)
   10987              $C$DW$1414      .dwtag  DW_TAG_subrange_type
   10988                      .dwattr $C$DW$1414, DW_AT_upper_bound(0x0c)
   10989              
   10990                      .dwendtag $C$DW$T$29
   10991              
   10992              
   10993              $C$DW$T$34      .dwtag  DW_TAG_array_type
   10994                      .dwattr $C$DW$T$34, DW_AT_type(*$C$DW$T$23)
   10995                      .dwattr $C$DW$T$34, DW_AT_language(DW_LANG_C)
   10996                      .dwattr $C$DW$T$34, DW_AT_byte_size(0x08)
   10997              $C$DW$1415      .dwtag  DW_TAG_subrange_type
   10998                      .dwattr $C$DW$1415, DW_AT_upper_bound(0x07)
   10999              
   11000                      .dwendtag $C$DW$T$34
   11001              
   11002              
   11003              $C$DW$T$151     .dwtag  DW_TAG_array_type
   11004                      .dwattr $C$DW$T$151, DW_AT_type(*$C$DW$T$23)
   11005                      .dwattr $C$DW$T$151, DW_AT_language(DW_LANG_C)
   11006                      .dwattr $C$DW$T$151, DW_AT_byte_size(0x18)
   11007              $C$DW$1416      .dwtag  DW_TAG_subrange_type
   11008                      .dwattr $C$DW$1416, DW_AT_upper_bound(0x17)
   11009              
TMS320C2000 Assembler PC v18.1.2 Sun Jun 17 14:52:32 2018

Tools Copyright (c) 1996-2017 Texas Instruments Incorporated
C:\Users\haowp\AppData\Local\Temp\{81472915-7FA4-430D-8ACB-BFB8F401620C} PAGE  206

   11010                      .dwendtag $C$DW$T$151
   11011              
   11012              
   11013              $C$DW$T$152     .dwtag  DW_TAG_array_type
   11014                      .dwattr $C$DW$T$152, DW_AT_type(*$C$DW$T$23)
   11015                      .dwattr $C$DW$T$152, DW_AT_language(DW_LANG_C)
   11016                      .dwattr $C$DW$T$152, DW_AT_byte_size(0x04)
   11017              $C$DW$1417      .dwtag  DW_TAG_subrange_type
   11018                      .dwattr $C$DW$1417, DW_AT_upper_bound(0x03)
   11019              
   11020                      .dwendtag $C$DW$T$152
   11021              
   11022              
   11023              $C$DW$T$216     .dwtag  DW_TAG_array_type
   11024                      .dwattr $C$DW$T$216, DW_AT_type(*$C$DW$T$23)
   11025                      .dwattr $C$DW$T$216, DW_AT_language(DW_LANG_C)
   11026                      .dwattr $C$DW$T$216, DW_AT_byte_size(0x06)
   11027              $C$DW$1418      .dwtag  DW_TAG_subrange_type
   11028                      .dwattr $C$DW$1418, DW_AT_upper_bound(0x05)
   11029              
   11030                      .dwendtag $C$DW$T$216
   11031              
   11032              
   11033              $C$DW$T$221     .dwtag  DW_TAG_array_type
   11034                      .dwattr $C$DW$T$221, DW_AT_type(*$C$DW$T$23)
   11035                      .dwattr $C$DW$T$221, DW_AT_language(DW_LANG_C)
   11036                      .dwattr $C$DW$T$221, DW_AT_byte_size(0x6270)
   11037              $C$DW$1419      .dwtag  DW_TAG_subrange_type
   11038                      .dwattr $C$DW$1419, DW_AT_upper_bound(0x626f)
   11039              
   11040                      .dwendtag $C$DW$T$221
   11041              
   11042              
   11043              $C$DW$T$225     .dwtag  DW_TAG_array_type
   11044                      .dwattr $C$DW$T$225, DW_AT_type(*$C$DW$T$23)
   11045                      .dwattr $C$DW$T$225, DW_AT_language(DW_LANG_C)
   11046                      .dwattr $C$DW$T$225, DW_AT_byte_size(0x6698)
   11047              $C$DW$1420      .dwtag  DW_TAG_subrange_type
   11048                      .dwattr $C$DW$1420, DW_AT_upper_bound(0x6697)
   11049              
   11050                      .dwendtag $C$DW$T$225
   11051              
   11052              $C$DW$1421      .dwtag  DW_TAG_TI_far_type
   11053                      .dwattr $C$DW$1421, DW_AT_type(*$C$DW$T$22)
   11054              
   11055              $C$DW$T$317     .dwtag  DW_TAG_const_type
   11056                      .dwattr $C$DW$T$317, DW_AT_type(*$C$DW$1421)
   11057              
   11058              $C$DW$T$66      .dwtag  DW_TAG_typedef
   11059                      .dwattr $C$DW$T$66, DW_AT_name("uint_least16_t")
   11060                      .dwattr $C$DW$T$66, DW_AT_type(*$C$DW$T$22)
   11061                      .dwattr $C$DW$T$66, DW_AT_language(DW_LANG_C)
   11062              
   11063              $C$DW$T$32      .dwtag  DW_TAG_typedef
   11064                      .dwattr $C$DW$T$32, DW_AT_name("uint_least8_t")
TMS320C2000 Assembler PC v18.1.2 Sun Jun 17 14:52:32 2018

Tools Copyright (c) 1996-2017 Texas Instruments Incorporated
C:\Users\haowp\AppData\Local\Temp\{81472915-7FA4-430D-8ACB-BFB8F401620C} PAGE  207

   11065                      .dwattr $C$DW$T$32, DW_AT_type(*$C$DW$T$22)
   11066                      .dwattr $C$DW$T$32, DW_AT_language(DW_LANG_C)
   11067              
   11068              $C$DW$1422      .dwtag  DW_TAG_TI_far_type
   11069                      .dwattr $C$DW$1422, DW_AT_type(*$C$DW$T$32)
   11070              
   11071              $C$DW$T$267     .dwtag  DW_TAG_const_type
   11072                      .dwattr $C$DW$T$267, DW_AT_type(*$C$DW$1422)
   11073              
   11074              $C$DW$T$12      .dwtag  DW_TAG_base_type
   11075                      .dwattr $C$DW$T$12, DW_AT_encoding(DW_ATE_signed)
   11076                      .dwattr $C$DW$T$12, DW_AT_name("long")
   11077                      .dwattr $C$DW$T$12, DW_AT_byte_size(0x02)
   11078              
   11079              $C$DW$T$31      .dwtag  DW_TAG_typedef
   11080                      .dwattr $C$DW$T$31, DW_AT_name("_iq")
   11081                      .dwattr $C$DW$T$31, DW_AT_type(*$C$DW$T$12)
   11082                      .dwattr $C$DW$T$31, DW_AT_language(DW_LANG_C)
   11083              
   11084              
   11085              $C$DW$T$193     .dwtag  DW_TAG_array_type
   11086                      .dwattr $C$DW$T$193, DW_AT_type(*$C$DW$T$31)
   11087                      .dwattr $C$DW$T$193, DW_AT_language(DW_LANG_C)
   11088                      .dwattr $C$DW$T$193, DW_AT_byte_size(0x04)
   11089              $C$DW$1423      .dwtag  DW_TAG_subrange_type
   11090                      .dwattr $C$DW$1423, DW_AT_upper_bound(0x01)
   11091              
   11092                      .dwendtag $C$DW$T$193
   11093              
   11094              
   11095              $C$DW$T$195     .dwtag  DW_TAG_array_type
   11096                      .dwattr $C$DW$T$195, DW_AT_type(*$C$DW$T$31)
   11097                      .dwattr $C$DW$T$195, DW_AT_language(DW_LANG_C)
   11098                      .dwattr $C$DW$T$195, DW_AT_byte_size(0x06)
   11099              $C$DW$1424      .dwtag  DW_TAG_subrange_type
   11100                      .dwattr $C$DW$1424, DW_AT_upper_bound(0x02)
   11101              
   11102                      .dwendtag $C$DW$T$195
   11103              
   11104              $C$DW$1425      .dwtag  DW_TAG_TI_far_type
   11105                      .dwattr $C$DW$1425, DW_AT_type(*$C$DW$T$31)
   11106              
   11107              $C$DW$T$312     .dwtag  DW_TAG_const_type
   11108                      .dwattr $C$DW$T$312, DW_AT_type(*$C$DW$1425)
   11109              
   11110              $C$DW$T$13      .dwtag  DW_TAG_base_type
   11111                      .dwattr $C$DW$T$13, DW_AT_encoding(DW_ATE_unsigned)
   11112                      .dwattr $C$DW$T$13, DW_AT_name("unsigned long")
   11113                      .dwattr $C$DW$T$13, DW_AT_byte_size(0x02)
   11114              
   11115              $C$DW$T$268     .dwtag  DW_TAG_typedef
   11116                      .dwattr $C$DW$T$268, DW_AT_name("size_t")
   11117                      .dwattr $C$DW$T$268, DW_AT_type(*$C$DW$T$13)
   11118                      .dwattr $C$DW$T$268, DW_AT_language(DW_LANG_C)
   11119              
TMS320C2000 Assembler PC v18.1.2 Sun Jun 17 14:52:32 2018

Tools Copyright (c) 1996-2017 Texas Instruments Incorporated
C:\Users\haowp\AppData\Local\Temp\{81472915-7FA4-430D-8ACB-BFB8F401620C} PAGE  208

   11120              $C$DW$1426      .dwtag  DW_TAG_TI_far_type
   11121                      .dwattr $C$DW$1426, DW_AT_type(*$C$DW$T$268)
   11122              
   11123              $C$DW$T$269     .dwtag  DW_TAG_const_type
   11124                      .dwattr $C$DW$T$269, DW_AT_type(*$C$DW$1426)
   11125              
   11126              $C$DW$T$63      .dwtag  DW_TAG_typedef
   11127                      .dwattr $C$DW$T$63, DW_AT_name("uint32_t")
   11128                      .dwattr $C$DW$T$63, DW_AT_type(*$C$DW$T$13)
   11129                      .dwattr $C$DW$T$63, DW_AT_language(DW_LANG_C)
   11130              
   11131              $C$DW$1427      .dwtag  DW_TAG_TI_far_type
   11132                      .dwattr $C$DW$1427, DW_AT_type(*$C$DW$T$63)
   11133              
   11134              $C$DW$T$150     .dwtag  DW_TAG_volatile_type
   11135                      .dwattr $C$DW$T$150, DW_AT_type(*$C$DW$1427)
   11136              
   11137              $C$DW$T$64      .dwtag  DW_TAG_typedef
   11138                      .dwattr $C$DW$T$64, DW_AT_name("uint_least32_t")
   11139                      .dwattr $C$DW$T$64, DW_AT_type(*$C$DW$T$63)
   11140                      .dwattr $C$DW$T$64, DW_AT_language(DW_LANG_C)
   11141              
   11142              
   11143              $C$DW$T$65      .dwtag  DW_TAG_array_type
   11144                      .dwattr $C$DW$T$65, DW_AT_type(*$C$DW$T$64)
   11145                      .dwattr $C$DW$T$65, DW_AT_language(DW_LANG_C)
   11146                      .dwattr $C$DW$T$65, DW_AT_byte_size(0x08)
   11147              $C$DW$1428      .dwtag  DW_TAG_subrange_type
   11148                      .dwattr $C$DW$1428, DW_AT_upper_bound(0x03)
   11149              
   11150                      .dwendtag $C$DW$T$65
   11151              
   11152              
   11153              $C$DW$T$231     .dwtag  DW_TAG_array_type
   11154                      .dwattr $C$DW$T$231, DW_AT_type(*$C$DW$T$64)
   11155                      .dwattr $C$DW$T$231, DW_AT_language(DW_LANG_C)
   11156                      .dwattr $C$DW$T$231, DW_AT_byte_size(0x1c)
   11157              $C$DW$1429      .dwtag  DW_TAG_subrange_type
   11158                      .dwattr $C$DW$1429, DW_AT_upper_bound(0x0d)
   11159              
   11160                      .dwendtag $C$DW$T$231
   11161              
   11162              
   11163              $C$DW$T$232     .dwtag  DW_TAG_array_type
   11164                      .dwattr $C$DW$T$232, DW_AT_type(*$C$DW$T$64)
   11165                      .dwattr $C$DW$T$232, DW_AT_language(DW_LANG_C)
   11166                      .dwattr $C$DW$T$232, DW_AT_byte_size(0x0c)
   11167              $C$DW$1430      .dwtag  DW_TAG_subrange_type
   11168                      .dwattr $C$DW$1430, DW_AT_upper_bound(0x05)
   11169              
   11170                      .dwendtag $C$DW$T$232
   11171              
   11172              
   11173              $C$DW$T$233     .dwtag  DW_TAG_array_type
   11174                      .dwattr $C$DW$T$233, DW_AT_type(*$C$DW$T$64)
TMS320C2000 Assembler PC v18.1.2 Sun Jun 17 14:52:32 2018

Tools Copyright (c) 1996-2017 Texas Instruments Incorporated
C:\Users\haowp\AppData\Local\Temp\{81472915-7FA4-430D-8ACB-BFB8F401620C} PAGE  209

   11175                      .dwattr $C$DW$T$233, DW_AT_language(DW_LANG_C)
   11176                      .dwattr $C$DW$T$233, DW_AT_byte_size(0x0e)
   11177              $C$DW$1431      .dwtag  DW_TAG_subrange_type
   11178                      .dwattr $C$DW$1431, DW_AT_upper_bound(0x06)
   11179              
   11180                      .dwendtag $C$DW$T$233
   11181              
   11182              $C$DW$T$14      .dwtag  DW_TAG_base_type
   11183                      .dwattr $C$DW$T$14, DW_AT_encoding(DW_ATE_signed)
   11184                      .dwattr $C$DW$T$14, DW_AT_name("long long")
   11185                      .dwattr $C$DW$T$14, DW_AT_byte_size(0x04)
   11186              
   11187              $C$DW$T$15      .dwtag  DW_TAG_base_type
   11188                      .dwattr $C$DW$T$15, DW_AT_encoding(DW_ATE_unsigned)
   11189                      .dwattr $C$DW$T$15, DW_AT_name("unsigned long long")
   11190                      .dwattr $C$DW$T$15, DW_AT_byte_size(0x04)
   11191              
   11192              $C$DW$T$16      .dwtag  DW_TAG_base_type
   11193                      .dwattr $C$DW$T$16, DW_AT_encoding(DW_ATE_float)
   11194                      .dwattr $C$DW$T$16, DW_AT_name("float")
   11195                      .dwattr $C$DW$T$16, DW_AT_byte_size(0x02)
   11196              
   11197              $C$DW$T$67      .dwtag  DW_TAG_typedef
   11198                      .dwattr $C$DW$T$67, DW_AT_name("float_t")
   11199                      .dwattr $C$DW$T$67, DW_AT_type(*$C$DW$T$16)
   11200                      .dwattr $C$DW$T$67, DW_AT_language(DW_LANG_C)
   11201              
   11202              $C$DW$T$17      .dwtag  DW_TAG_base_type
   11203                      .dwattr $C$DW$T$17, DW_AT_encoding(DW_ATE_float)
   11204                      .dwattr $C$DW$T$17, DW_AT_name("double")
   11205                      .dwattr $C$DW$T$17, DW_AT_byte_size(0x02)
   11206              
   11207              $C$DW$T$18      .dwtag  DW_TAG_base_type
   11208                      .dwattr $C$DW$T$18, DW_AT_encoding(DW_ATE_float)
   11209                      .dwattr $C$DW$T$18, DW_AT_name("long double")
   11210                      .dwattr $C$DW$T$18, DW_AT_byte_size(0x04)
   11211              
   11212              $C$DW$T$69      .dwtag  DW_TAG_base_type
   11213                      .dwattr $C$DW$T$69, DW_AT_encoding(DW_ATE_unsigned_char)
   11214                      .dwattr $C$DW$T$69, DW_AT_name("unsigned char")
   11215                      .dwattr $C$DW$T$69, DW_AT_byte_size(0x01)
   11216              
   11217              $C$DW$1432      .dwtag  DW_TAG_TI_far_type
   11218                      .dwattr $C$DW$1432, DW_AT_type(*$C$DW$T$69)
   11219              
   11220              $C$DW$T$309     .dwtag  DW_TAG_const_type
   11221                      .dwattr $C$DW$T$309, DW_AT_type(*$C$DW$1432)
   11222              
   11223                      .dwattr $C$DW$CU, DW_AT_language(DW_LANG_C)
   11224              
   11225              ;***************************************************************
   11226              ;* DWARF CIE ENTRIES                                           *
   11227              ;***************************************************************
   11228              
   11229              $C$DW$CIE       .dwcie 26
TMS320C2000 Assembler PC v18.1.2 Sun Jun 17 14:52:32 2018

Tools Copyright (c) 1996-2017 Texas Instruments Incorporated
C:\Users\haowp\AppData\Local\Temp\{81472915-7FA4-430D-8ACB-BFB8F401620C} PAGE  210

   11230                      .dwcfi  cfa_register, 20
   11231                      .dwcfi  cfa_offset, 0
   11232                      .dwcfi  same_value, 28
   11233                      .dwcfi  same_value, 6
   11234                      .dwcfi  same_value, 7
   11235                      .dwcfi  same_value, 8
   11236                      .dwcfi  same_value, 9
   11237                      .dwcfi  same_value, 10
   11238                      .dwcfi  same_value, 11
   11239                      .dwendentry
   11240              
   11241              ;***************************************************************
   11242              ;* DWARF REGISTER MAP                                          *
   11243              ;***************************************************************
   11244              
   11245              $C$DW$1433      .dwtag  DW_TAG_TI_assign_register
   11246                      .dwattr $C$DW$1433, DW_AT_name("AL")
   11247                      .dwattr $C$DW$1433, DW_AT_location[DW_OP_reg0]
   11248              
   11249              $C$DW$1434      .dwtag  DW_TAG_TI_assign_register
   11250                      .dwattr $C$DW$1434, DW_AT_name("AH")
   11251                      .dwattr $C$DW$1434, DW_AT_location[DW_OP_reg1]
   11252              
   11253              $C$DW$1435      .dwtag  DW_TAG_TI_assign_register
   11254                      .dwattr $C$DW$1435, DW_AT_name("PL")
   11255                      .dwattr $C$DW$1435, DW_AT_location[DW_OP_reg2]
   11256              
   11257              $C$DW$1436      .dwtag  DW_TAG_TI_assign_register
   11258                      .dwattr $C$DW$1436, DW_AT_name("PH")
   11259                      .dwattr $C$DW$1436, DW_AT_location[DW_OP_reg3]
   11260              
   11261              $C$DW$1437      .dwtag  DW_TAG_TI_assign_register
   11262                      .dwattr $C$DW$1437, DW_AT_name("SP")
   11263                      .dwattr $C$DW$1437, DW_AT_location[DW_OP_reg20]
   11264              
   11265              $C$DW$1438      .dwtag  DW_TAG_TI_assign_register
   11266                      .dwattr $C$DW$1438, DW_AT_name("XT")
   11267                      .dwattr $C$DW$1438, DW_AT_location[DW_OP_reg21]
   11268              
   11269              $C$DW$1439      .dwtag  DW_TAG_TI_assign_register
   11270                      .dwattr $C$DW$1439, DW_AT_name("T")
   11271                      .dwattr $C$DW$1439, DW_AT_location[DW_OP_reg22]
   11272              
   11273              $C$DW$1440      .dwtag  DW_TAG_TI_assign_register
   11274                      .dwattr $C$DW$1440, DW_AT_name("ST0")
   11275                      .dwattr $C$DW$1440, DW_AT_location[DW_OP_reg23]
   11276              
   11277              $C$DW$1441      .dwtag  DW_TAG_TI_assign_register
   11278                      .dwattr $C$DW$1441, DW_AT_name("ST1")
   11279                      .dwattr $C$DW$1441, DW_AT_location[DW_OP_reg24]
   11280              
   11281              $C$DW$1442      .dwtag  DW_TAG_TI_assign_register
   11282                      .dwattr $C$DW$1442, DW_AT_name("PC")
   11283                      .dwattr $C$DW$1442, DW_AT_location[DW_OP_reg25]
   11284              
TMS320C2000 Assembler PC v18.1.2 Sun Jun 17 14:52:32 2018

Tools Copyright (c) 1996-2017 Texas Instruments Incorporated
C:\Users\haowp\AppData\Local\Temp\{81472915-7FA4-430D-8ACB-BFB8F401620C} PAGE  211

   11285              $C$DW$1443      .dwtag  DW_TAG_TI_assign_register
   11286                      .dwattr $C$DW$1443, DW_AT_name("RPC")
   11287                      .dwattr $C$DW$1443, DW_AT_location[DW_OP_reg26]
   11288              
   11289              $C$DW$1444      .dwtag  DW_TAG_TI_assign_register
   11290                      .dwattr $C$DW$1444, DW_AT_name("FP")
   11291                      .dwattr $C$DW$1444, DW_AT_location[DW_OP_reg28]
   11292              
   11293              $C$DW$1445      .dwtag  DW_TAG_TI_assign_register
   11294                      .dwattr $C$DW$1445, DW_AT_name("DP")
   11295                      .dwattr $C$DW$1445, DW_AT_location[DW_OP_reg29]
   11296              
   11297              $C$DW$1446      .dwtag  DW_TAG_TI_assign_register
   11298                      .dwattr $C$DW$1446, DW_AT_name("SXM")
   11299                      .dwattr $C$DW$1446, DW_AT_location[DW_OP_reg30]
   11300              
   11301              $C$DW$1447      .dwtag  DW_TAG_TI_assign_register
   11302                      .dwattr $C$DW$1447, DW_AT_name("PM")
   11303                      .dwattr $C$DW$1447, DW_AT_location[DW_OP_reg31]
   11304              
   11305              $C$DW$1448      .dwtag  DW_TAG_TI_assign_register
   11306                      .dwattr $C$DW$1448, DW_AT_name("OVM")
   11307                      .dwattr $C$DW$1448, DW_AT_location[DW_OP_regx 0x20]
   11308              
   11309              $C$DW$1449      .dwtag  DW_TAG_TI_assign_register
   11310                      .dwattr $C$DW$1449, DW_AT_name("PAGE0")
   11311                      .dwattr $C$DW$1449, DW_AT_location[DW_OP_regx 0x21]
   11312              
   11313              $C$DW$1450      .dwtag  DW_TAG_TI_assign_register
   11314                      .dwattr $C$DW$1450, DW_AT_name("AMODE")
   11315                      .dwattr $C$DW$1450, DW_AT_location[DW_OP_regx 0x22]
   11316              
   11317              $C$DW$1451      .dwtag  DW_TAG_TI_assign_register
   11318                      .dwattr $C$DW$1451, DW_AT_name("EALLOW")
   11319                      .dwattr $C$DW$1451, DW_AT_location[DW_OP_regx 0x4e]
   11320              
   11321              $C$DW$1452      .dwtag  DW_TAG_TI_assign_register
   11322                      .dwattr $C$DW$1452, DW_AT_name("INTM")
   11323                      .dwattr $C$DW$1452, DW_AT_location[DW_OP_regx 0x23]
   11324              
   11325              $C$DW$1453      .dwtag  DW_TAG_TI_assign_register
   11326                      .dwattr $C$DW$1453, DW_AT_name("IFR")
   11327                      .dwattr $C$DW$1453, DW_AT_location[DW_OP_regx 0x24]
   11328              
   11329              $C$DW$1454      .dwtag  DW_TAG_TI_assign_register
   11330                      .dwattr $C$DW$1454, DW_AT_name("IER")
   11331                      .dwattr $C$DW$1454, DW_AT_location[DW_OP_regx 0x25]
   11332              
   11333              $C$DW$1455      .dwtag  DW_TAG_TI_assign_register
   11334                      .dwattr $C$DW$1455, DW_AT_name("V")
   11335                      .dwattr $C$DW$1455, DW_AT_location[DW_OP_regx 0x26]
   11336              
   11337              $C$DW$1456      .dwtag  DW_TAG_TI_assign_register
   11338                      .dwattr $C$DW$1456, DW_AT_name("PSEUDOH")
   11339                      .dwattr $C$DW$1456, DW_AT_location[DW_OP_regx 0x4c]
TMS320C2000 Assembler PC v18.1.2 Sun Jun 17 14:52:32 2018

Tools Copyright (c) 1996-2017 Texas Instruments Incorporated
C:\Users\haowp\AppData\Local\Temp\{81472915-7FA4-430D-8ACB-BFB8F401620C} PAGE  212

   11340              
   11341              $C$DW$1457      .dwtag  DW_TAG_TI_assign_register
   11342                      .dwattr $C$DW$1457, DW_AT_name("VOL")
   11343                      .dwattr $C$DW$1457, DW_AT_location[DW_OP_regx 0x4d]
   11344              
   11345              $C$DW$1458      .dwtag  DW_TAG_TI_assign_register
   11346                      .dwattr $C$DW$1458, DW_AT_name("AR0")
   11347                      .dwattr $C$DW$1458, DW_AT_location[DW_OP_reg4]
   11348              
   11349              $C$DW$1459      .dwtag  DW_TAG_TI_assign_register
   11350                      .dwattr $C$DW$1459, DW_AT_name("XAR0")
   11351                      .dwattr $C$DW$1459, DW_AT_location[DW_OP_reg5]
   11352              
   11353              $C$DW$1460      .dwtag  DW_TAG_TI_assign_register
   11354                      .dwattr $C$DW$1460, DW_AT_name("AR1")
   11355                      .dwattr $C$DW$1460, DW_AT_location[DW_OP_reg6]
   11356              
   11357              $C$DW$1461      .dwtag  DW_TAG_TI_assign_register
   11358                      .dwattr $C$DW$1461, DW_AT_name("XAR1")
   11359                      .dwattr $C$DW$1461, DW_AT_location[DW_OP_reg7]
   11360              
   11361              $C$DW$1462      .dwtag  DW_TAG_TI_assign_register
   11362                      .dwattr $C$DW$1462, DW_AT_name("AR2")
   11363                      .dwattr $C$DW$1462, DW_AT_location[DW_OP_reg8]
   11364              
   11365              $C$DW$1463      .dwtag  DW_TAG_TI_assign_register
   11366                      .dwattr $C$DW$1463, DW_AT_name("XAR2")
   11367                      .dwattr $C$DW$1463, DW_AT_location[DW_OP_reg9]
   11368              
   11369              $C$DW$1464      .dwtag  DW_TAG_TI_assign_register
   11370                      .dwattr $C$DW$1464, DW_AT_name("AR3")
   11371                      .dwattr $C$DW$1464, DW_AT_location[DW_OP_reg10]
   11372              
   11373              $C$DW$1465      .dwtag  DW_TAG_TI_assign_register
   11374                      .dwattr $C$DW$1465, DW_AT_name("XAR3")
   11375                      .dwattr $C$DW$1465, DW_AT_location[DW_OP_reg11]
   11376              
   11377              $C$DW$1466      .dwtag  DW_TAG_TI_assign_register
   11378                      .dwattr $C$DW$1466, DW_AT_name("AR4")
   11379                      .dwattr $C$DW$1466, DW_AT_location[DW_OP_reg12]
   11380              
   11381              $C$DW$1467      .dwtag  DW_TAG_TI_assign_register
   11382                      .dwattr $C$DW$1467, DW_AT_name("XAR4")
   11383                      .dwattr $C$DW$1467, DW_AT_location[DW_OP_reg13]
   11384              
   11385              $C$DW$1468      .dwtag  DW_TAG_TI_assign_register
   11386                      .dwattr $C$DW$1468, DW_AT_name("AR5")
   11387                      .dwattr $C$DW$1468, DW_AT_location[DW_OP_reg14]
   11388              
   11389              $C$DW$1469      .dwtag  DW_TAG_TI_assign_register
   11390                      .dwattr $C$DW$1469, DW_AT_name("XAR5")
   11391                      .dwattr $C$DW$1469, DW_AT_location[DW_OP_reg15]
   11392              
   11393              $C$DW$1470      .dwtag  DW_TAG_TI_assign_register
   11394                      .dwattr $C$DW$1470, DW_AT_name("AR6")
TMS320C2000 Assembler PC v18.1.2 Sun Jun 17 14:52:32 2018

Tools Copyright (c) 1996-2017 Texas Instruments Incorporated
C:\Users\haowp\AppData\Local\Temp\{81472915-7FA4-430D-8ACB-BFB8F401620C} PAGE  213

   11395                      .dwattr $C$DW$1470, DW_AT_location[DW_OP_reg16]
   11396              
   11397              $C$DW$1471      .dwtag  DW_TAG_TI_assign_register
   11398                      .dwattr $C$DW$1471, DW_AT_name("XAR6")
   11399                      .dwattr $C$DW$1471, DW_AT_location[DW_OP_reg17]
   11400              
   11401              $C$DW$1472      .dwtag  DW_TAG_TI_assign_register
   11402                      .dwattr $C$DW$1472, DW_AT_name("AR7")
   11403                      .dwattr $C$DW$1472, DW_AT_location[DW_OP_reg18]
   11404              
   11405              $C$DW$1473      .dwtag  DW_TAG_TI_assign_register
   11406                      .dwattr $C$DW$1473, DW_AT_name("XAR7")
   11407                      .dwattr $C$DW$1473, DW_AT_location[DW_OP_reg19]
   11408              
   11409                      .dwendtag $C$DW$CU
   11410              

No Assembly Errors, No Assembly Warnings
