TMS320C2000 Assembler PC v18.1.2 Sun Jun 17 14:52:33 2018

Tools Copyright (c) 1996-2017 Texas Instruments Incorporated
C:\Users\haowp\AppData\Local\Temp\{2610D5B4-5CBC-4747-A1C3-229C8FD63D4F} PAGE    1

       1              ;***************************************************************
       2              ;* TMS320C2000 C/C++ Codegen                    PC v18.1.2.LTS *
       3              ;* Date/Time created: Sun Jun 17 14:52:33 2018                 *
       4              ;***************************************************************
       5                      .compiler_opts --abi=coffabi --float_support=softlib --hll_source=on --mem_model:code=flat --mem_mode
       6                      .asg    XAR2, FP
       7              
       8              $C$DW$CU        .dwtag  DW_TAG_compile_unit
       9                      .dwattr $C$DW$CU, DW_AT_name("D:/ti/motorware/motorware_1_01_00_18/sw/drivers/pwm/src/32b/f28x/f2802x
      10                      .dwattr $C$DW$CU, DW_AT_producer("TI TMS320C2000 C/C++ Codegen PC v18.1.2.LTS Copyright (c) 1996-2017
      11                      .dwattr $C$DW$CU, DW_AT_TI_version(0x01)
      12                      .dwattr $C$DW$CU, DW_AT_comp_dir("D:\ti\motorware\motorware_1_01_00_18\sw\solutions\instaspin_foc\boa
      13              ;       D:\ti\ccsv8\tools\compiler\ti-cgt-c2000_18.1.2.LTS\bin\opt2000.exe C:\\Users\\haowp\\AppData\\Local\\
      14              ;       D:\ti\ccsv8\tools\compiler\ti-cgt-c2000_18.1.2.LTS\bin\ac2000.exe -@C:\\Users\\haowp\\AppData\\Local\
      15 00000000               .sect   ".text"
      16                      .clink
      17                      .global _PWM_setTripZoneState_TZB
      18              
      19              $C$DW$1 .dwtag  DW_TAG_subprogram
      20                      .dwattr $C$DW$1, DW_AT_name("PWM_setTripZoneState_TZB")
      21                      .dwattr $C$DW$1, DW_AT_low_pc(_PWM_setTripZoneState_TZB)
      22                      .dwattr $C$DW$1, DW_AT_high_pc(0x00)
      23                      .dwattr $C$DW$1, DW_AT_TI_symbol_name("_PWM_setTripZoneState_TZB")
      24                      .dwattr $C$DW$1, DW_AT_external
      25                      .dwattr $C$DW$1, DW_AT_TI_begin_file("D:/ti/motorware/motorware_1_01_00_18/sw/drivers/pwm/src/32b/f28
      26                      .dwattr $C$DW$1, DW_AT_TI_begin_line(0x655)
      27                      .dwattr $C$DW$1, DW_AT_TI_begin_column(0x06)
      28                      .dwattr $C$DW$1, DW_AT_TI_max_frame_size(-2)
      29                      .dwpsn  file "D:/ti/motorware/motorware_1_01_00_18/sw/drivers/pwm/src/32b/f28x/f2802x/pwm.c",line 162
      30              
      31                      .dwfde $C$DW$CIE, _PWM_setTripZoneState_TZB
      32              $C$DW$2 .dwtag  DW_TAG_formal_parameter
      33                      .dwattr $C$DW$2, DW_AT_name("pwmHandle")
      34                      .dwattr $C$DW$2, DW_AT_TI_symbol_name("_pwmHandle")
      35                      .dwattr $C$DW$2, DW_AT_type(*$C$DW$T$33)
      36                      .dwattr $C$DW$2, DW_AT_location[DW_OP_reg12]
      37              
      38              $C$DW$3 .dwtag  DW_TAG_formal_parameter
      39                      .dwattr $C$DW$3, DW_AT_name("tripZoneState")
      40                      .dwattr $C$DW$3, DW_AT_TI_symbol_name("_tripZoneState")
      41                      .dwattr $C$DW$3, DW_AT_type(*$C$DW$T$124)
      42                      .dwattr $C$DW$3, DW_AT_location[DW_OP_reg0]
      43              
      44              
      45              ;***************************************************************
      46              ;* FNAME: _PWM_setTripZoneState_TZB     FR SIZE:   0           *
      47              ;*                                                             *
      48              ;* FUNCTION ENVIRONMENT                                        *
      49              ;*                                                             *
      50              ;* FUNCTION PROPERTIES                                         *
      51              ;*                            0 Parameter,  0 Auto,  0 SOE     *
      52              ;***************************************************************
      53              
      54              _PWM_setTripZoneState_TZB:
      55              ;* AR4   assigned to _pwmHandle
TMS320C2000 Assembler PC v18.1.2 Sun Jun 17 14:52:33 2018

Tools Copyright (c) 1996-2017 Texas Instruments Incorporated
C:\Users\haowp\AppData\Local\Temp\{2610D5B4-5CBC-4747-A1C3-229C8FD63D4F} PAGE    2

      56              $C$DW$4 .dwtag  DW_TAG_variable
      57                      .dwattr $C$DW$4, DW_AT_name("pwmHandle")
      58                      .dwattr $C$DW$4, DW_AT_TI_symbol_name("_pwmHandle")
      59                      .dwattr $C$DW$4, DW_AT_type(*$C$DW$T$127)
      60                      .dwattr $C$DW$4, DW_AT_location[DW_OP_reg12]
      61              
      62              ;* AL    assigned to _tripZoneState
      63              $C$DW$5 .dwtag  DW_TAG_variable
      64                      .dwattr $C$DW$5, DW_AT_name("tripZoneState")
      65                      .dwattr $C$DW$5, DW_AT_TI_symbol_name("_tripZoneState")
      66                      .dwattr $C$DW$5, DW_AT_type(*$C$DW$T$125)
      67                      .dwattr $C$DW$5, DW_AT_location[DW_OP_reg0]
      68              
      69                      .dwcfi  cfa_offset, -2
      70                      .dwcfi  save_reg_to_mem, 26, 0
      71 00000000 7622   EALLOW
      72                      .dwpsn  file "D:/ti/motorware/motorware_1_01_00_18/sw/drivers/pwm/src/32b/f28x/f2802x/pwm.c",line 162
      73 00000001 83A4          MOVL      XAR5,XAR4             ; [CPU_ALU] |1629| 
      74                      .dwpsn  file "D:/ti/motorware/motorware_1_01_00_18/sw/drivers/pwm/src/32b/f28x/f2802x/pwm.c",line 163
      75 00000002 5603          MOV       ACC,AL << #2          ; [CPU_ALU] |1632| 
         00000003 02A9 
      76 00000004 DC14          ADDB      XAR4,#20              ; [CPU_ALU] |1632| 
      77                      .dwpsn  file "D:/ti/motorware/motorware_1_01_00_18/sw/drivers/pwm/src/32b/f28x/f2802x/pwm.c",line 162
      78 00000005 DD14          ADDB      XAR5,#20              ; [CPU_ALU] |1629| 
      79 00000006 18C5          AND       *+XAR5[0],#0xfff3     ; [CPU_ALU] |1629| 
         00000007 FFF3 
      80                      .dwpsn  file "D:/ti/motorware/motorware_1_01_00_18/sw/drivers/pwm/src/32b/f28x/f2802x/pwm.c",line 163
      81 00000008 98C4          OR        *+XAR4[0],AL          ; [CPU_ALU] |1632| 
      82 00000009 761A   EDIS
      83 0000000a FF69          SPM       #0                    ; [CPU_ALU] 
      84              $C$DW$6 .dwtag  DW_TAG_TI_branch
      85                      .dwattr $C$DW$6, DW_AT_low_pc(0x00)
      86                      .dwattr $C$DW$6, DW_AT_TI_return
      87              
      88 0000000b 0006          LRETR     ; [CPU_ALU] 
      89                      ; return occurs ; [] 
      90                      .dwattr $C$DW$1, DW_AT_TI_end_file("D:/ti/motorware/motorware_1_01_00_18/sw/drivers/pwm/src/32b/f28x/
      91                      .dwattr $C$DW$1, DW_AT_TI_end_line(0x665)
      92                      .dwattr $C$DW$1, DW_AT_TI_end_column(0x01)
      93                      .dwendentry
      94                      .dwendtag $C$DW$1
      95              
      96 0000000c               .sect   ".text"
      97                      .clink
      98                      .global _PWM_setTripZoneState_TZA
      99              
     100              $C$DW$7 .dwtag  DW_TAG_subprogram
     101                      .dwattr $C$DW$7, DW_AT_name("PWM_setTripZoneState_TZA")
     102                      .dwattr $C$DW$7, DW_AT_low_pc(_PWM_setTripZoneState_TZA)
     103                      .dwattr $C$DW$7, DW_AT_high_pc(0x00)
     104                      .dwattr $C$DW$7, DW_AT_TI_symbol_name("_PWM_setTripZoneState_TZA")
     105                      .dwattr $C$DW$7, DW_AT_external
     106                      .dwattr $C$DW$7, DW_AT_TI_begin_file("D:/ti/motorware/motorware_1_01_00_18/sw/drivers/pwm/src/32b/f28
     107                      .dwattr $C$DW$7, DW_AT_TI_begin_line(0x642)
     108                      .dwattr $C$DW$7, DW_AT_TI_begin_column(0x06)
TMS320C2000 Assembler PC v18.1.2 Sun Jun 17 14:52:33 2018

Tools Copyright (c) 1996-2017 Texas Instruments Incorporated
C:\Users\haowp\AppData\Local\Temp\{2610D5B4-5CBC-4747-A1C3-229C8FD63D4F} PAGE    3

     109                      .dwattr $C$DW$7, DW_AT_TI_max_frame_size(-2)
     110                      .dwpsn  file "D:/ti/motorware/motorware_1_01_00_18/sw/drivers/pwm/src/32b/f28x/f2802x/pwm.c",line 160
     111              
     112                      .dwfde $C$DW$CIE, _PWM_setTripZoneState_TZA
     113              $C$DW$8 .dwtag  DW_TAG_formal_parameter
     114                      .dwattr $C$DW$8, DW_AT_name("pwmHandle")
     115                      .dwattr $C$DW$8, DW_AT_TI_symbol_name("_pwmHandle")
     116                      .dwattr $C$DW$8, DW_AT_type(*$C$DW$T$33)
     117                      .dwattr $C$DW$8, DW_AT_location[DW_OP_reg12]
     118              
     119              $C$DW$9 .dwtag  DW_TAG_formal_parameter
     120                      .dwattr $C$DW$9, DW_AT_name("tripZoneState")
     121                      .dwattr $C$DW$9, DW_AT_TI_symbol_name("_tripZoneState")
     122                      .dwattr $C$DW$9, DW_AT_type(*$C$DW$T$124)
     123                      .dwattr $C$DW$9, DW_AT_location[DW_OP_reg0]
     124              
     125              
     126              ;***************************************************************
     127              ;* FNAME: _PWM_setTripZoneState_TZA     FR SIZE:   0           *
     128              ;*                                                             *
     129              ;* FUNCTION ENVIRONMENT                                        *
     130              ;*                                                             *
     131              ;* FUNCTION PROPERTIES                                         *
     132              ;*                            0 Parameter,  0 Auto,  0 SOE     *
     133              ;***************************************************************
     134              
     135              _PWM_setTripZoneState_TZA:
     136              ;* AR4   assigned to _pwmHandle
     137              $C$DW$10        .dwtag  DW_TAG_variable
     138                      .dwattr $C$DW$10, DW_AT_name("pwmHandle")
     139                      .dwattr $C$DW$10, DW_AT_TI_symbol_name("_pwmHandle")
     140                      .dwattr $C$DW$10, DW_AT_type(*$C$DW$T$127)
     141                      .dwattr $C$DW$10, DW_AT_location[DW_OP_reg12]
     142              
     143              ;* AL    assigned to _tripZoneState
     144              $C$DW$11        .dwtag  DW_TAG_variable
     145                      .dwattr $C$DW$11, DW_AT_name("tripZoneState")
     146                      .dwattr $C$DW$11, DW_AT_TI_symbol_name("_tripZoneState")
     147                      .dwattr $C$DW$11, DW_AT_type(*$C$DW$T$125)
     148                      .dwattr $C$DW$11, DW_AT_location[DW_OP_reg0]
     149              
     150                      .dwcfi  cfa_offset, -2
     151                      .dwcfi  save_reg_to_mem, 26, 0
     152 0000000c 7622   EALLOW
     153                      .dwpsn  file "D:/ti/motorware/motorware_1_01_00_18/sw/drivers/pwm/src/32b/f28x/f2802x/pwm.c",line 161
     154 0000000d 83A4          MOVL      XAR5,XAR4             ; [CPU_ALU] |1610| 
     155                      .dwpsn  file "D:/ti/motorware/motorware_1_01_00_18/sw/drivers/pwm/src/32b/f28x/f2802x/pwm.c",line 161
     156 0000000e DC14          ADDB      XAR4,#20              ; [CPU_ALU] |1613| 
     157                      .dwpsn  file "D:/ti/motorware/motorware_1_01_00_18/sw/drivers/pwm/src/32b/f28x/f2802x/pwm.c",line 161
     158 0000000f DD14          ADDB      XAR5,#20              ; [CPU_ALU] |1610| 
     159 00000010 18C5          AND       *+XAR5[0],#0xfffc     ; [CPU_ALU] |1610| 
         00000011 FFFC 
     160                      .dwpsn  file "D:/ti/motorware/motorware_1_01_00_18/sw/drivers/pwm/src/32b/f28x/f2802x/pwm.c",line 161
     161 00000012 98C4          OR        *+XAR4[0],AL          ; [CPU_ALU] |1613| 
     162 00000013 761A   EDIS
TMS320C2000 Assembler PC v18.1.2 Sun Jun 17 14:52:33 2018

Tools Copyright (c) 1996-2017 Texas Instruments Incorporated
C:\Users\haowp\AppData\Local\Temp\{2610D5B4-5CBC-4747-A1C3-229C8FD63D4F} PAGE    4

     163 00000014 FF69          SPM       #0                    ; [CPU_ALU] 
     164              $C$DW$12        .dwtag  DW_TAG_TI_branch
     165                      .dwattr $C$DW$12, DW_AT_low_pc(0x00)
     166                      .dwattr $C$DW$12, DW_AT_TI_return
     167              
     168 00000015 0006          LRETR     ; [CPU_ALU] 
     169                      ; return occurs ; [] 
     170                      .dwattr $C$DW$7, DW_AT_TI_end_file("D:/ti/motorware/motorware_1_01_00_18/sw/drivers/pwm/src/32b/f28x/
     171                      .dwattr $C$DW$7, DW_AT_TI_end_line(0x652)
     172                      .dwattr $C$DW$7, DW_AT_TI_end_column(0x01)
     173                      .dwendentry
     174                      .dwendtag $C$DW$7
     175              
     176 00000016               .sect   ".text"
     177                      .clink
     178                      .global _PWM_setTripZoneState_DCBEVT2
     179              
     180              $C$DW$13        .dwtag  DW_TAG_subprogram
     181                      .dwattr $C$DW$13, DW_AT_name("PWM_setTripZoneState_DCBEVT2")
     182                      .dwattr $C$DW$13, DW_AT_low_pc(_PWM_setTripZoneState_DCBEVT2)
     183                      .dwattr $C$DW$13, DW_AT_high_pc(0x00)
     184                      .dwattr $C$DW$13, DW_AT_TI_symbol_name("_PWM_setTripZoneState_DCBEVT2")
     185                      .dwattr $C$DW$13, DW_AT_external
     186                      .dwattr $C$DW$13, DW_AT_TI_begin_file("D:/ti/motorware/motorware_1_01_00_18/sw/drivers/pwm/src/32b/f2
     187                      .dwattr $C$DW$13, DW_AT_TI_begin_line(0x62f)
     188                      .dwattr $C$DW$13, DW_AT_TI_begin_column(0x06)
     189                      .dwattr $C$DW$13, DW_AT_TI_max_frame_size(-2)
     190                      .dwpsn  file "D:/ti/motorware/motorware_1_01_00_18/sw/drivers/pwm/src/32b/f28x/f2802x/pwm.c",line 158
     191              
     192                      .dwfde $C$DW$CIE, _PWM_setTripZoneState_DCBEVT2
     193              $C$DW$14        .dwtag  DW_TAG_formal_parameter
     194                      .dwattr $C$DW$14, DW_AT_name("pwmHandle")
     195                      .dwattr $C$DW$14, DW_AT_TI_symbol_name("_pwmHandle")
     196                      .dwattr $C$DW$14, DW_AT_type(*$C$DW$T$33)
     197                      .dwattr $C$DW$14, DW_AT_location[DW_OP_reg12]
     198              
     199              $C$DW$15        .dwtag  DW_TAG_formal_parameter
     200                      .dwattr $C$DW$15, DW_AT_name("tripZoneState")
     201                      .dwattr $C$DW$15, DW_AT_TI_symbol_name("_tripZoneState")
     202                      .dwattr $C$DW$15, DW_AT_type(*$C$DW$T$124)
     203                      .dwattr $C$DW$15, DW_AT_location[DW_OP_reg0]
     204              
     205              
     206              ;***************************************************************
     207              ;* FNAME: _PWM_setTripZoneState_DCBEVT2 FR SIZE:   0           *
     208              ;*                                                             *
     209              ;* FUNCTION ENVIRONMENT                                        *
     210              ;*                                                             *
     211              ;* FUNCTION PROPERTIES                                         *
     212              ;*                            0 Parameter,  0 Auto,  0 SOE     *
     213              ;***************************************************************
     214              
     215              _PWM_setTripZoneState_DCBEVT2:
     216              ;* AR4   assigned to _pwmHandle
     217              $C$DW$16        .dwtag  DW_TAG_variable
TMS320C2000 Assembler PC v18.1.2 Sun Jun 17 14:52:33 2018

Tools Copyright (c) 1996-2017 Texas Instruments Incorporated
C:\Users\haowp\AppData\Local\Temp\{2610D5B4-5CBC-4747-A1C3-229C8FD63D4F} PAGE    5

     218                      .dwattr $C$DW$16, DW_AT_name("pwmHandle")
     219                      .dwattr $C$DW$16, DW_AT_TI_symbol_name("_pwmHandle")
     220                      .dwattr $C$DW$16, DW_AT_type(*$C$DW$T$127)
     221                      .dwattr $C$DW$16, DW_AT_location[DW_OP_reg12]
     222              
     223              ;* AL    assigned to _tripZoneState
     224              $C$DW$17        .dwtag  DW_TAG_variable
     225                      .dwattr $C$DW$17, DW_AT_name("tripZoneState")
     226                      .dwattr $C$DW$17, DW_AT_TI_symbol_name("_tripZoneState")
     227                      .dwattr $C$DW$17, DW_AT_type(*$C$DW$T$125)
     228                      .dwattr $C$DW$17, DW_AT_location[DW_OP_reg0]
     229              
     230                      .dwcfi  cfa_offset, -2
     231                      .dwcfi  save_reg_to_mem, 26, 0
     232 00000016 7622   EALLOW
     233                      .dwpsn  file "D:/ti/motorware/motorware_1_01_00_18/sw/drivers/pwm/src/32b/f28x/f2802x/pwm.c",line 159
     234 00000017 83A4          MOVL      XAR5,XAR4             ; [CPU_ALU] |1591| 
     235                      .dwpsn  file "D:/ti/motorware/motorware_1_01_00_18/sw/drivers/pwm/src/32b/f28x/f2802x/pwm.c",line 159
     236 00000018 5603          MOV       ACC,AL << #10         ; [CPU_ALU] |1594| 
         00000019 0AA9 
     237 0000001a DC14          ADDB      XAR4,#20              ; [CPU_ALU] |1594| 
     238                      .dwpsn  file "D:/ti/motorware/motorware_1_01_00_18/sw/drivers/pwm/src/32b/f28x/f2802x/pwm.c",line 159
     239 0000001b DD14          ADDB      XAR5,#20              ; [CPU_ALU] |1591| 
     240 0000001c 18C5          AND       *+XAR5[0],#0xf3ff     ; [CPU_ALU] |1591| 
         0000001d F3FF 
     241                      .dwpsn  file "D:/ti/motorware/motorware_1_01_00_18/sw/drivers/pwm/src/32b/f28x/f2802x/pwm.c",line 159
     242 0000001e 98C4          OR        *+XAR4[0],AL          ; [CPU_ALU] |1594| 
     243 0000001f 761A   EDIS
     244 00000020 FF69          SPM       #0                    ; [CPU_ALU] 
     245              $C$DW$18        .dwtag  DW_TAG_TI_branch
     246                      .dwattr $C$DW$18, DW_AT_low_pc(0x00)
     247                      .dwattr $C$DW$18, DW_AT_TI_return
     248              
     249 00000021 0006          LRETR     ; [CPU_ALU] 
     250                      ; return occurs ; [] 
     251                      .dwattr $C$DW$13, DW_AT_TI_end_file("D:/ti/motorware/motorware_1_01_00_18/sw/drivers/pwm/src/32b/f28x
     252                      .dwattr $C$DW$13, DW_AT_TI_end_line(0x63f)
     253                      .dwattr $C$DW$13, DW_AT_TI_end_column(0x01)
     254                      .dwendentry
     255                      .dwendtag $C$DW$13
     256              
     257 00000022               .sect   ".text"
     258                      .clink
     259                      .global _PWM_setTripZoneState_DCBEVT1
     260              
     261              $C$DW$19        .dwtag  DW_TAG_subprogram
     262                      .dwattr $C$DW$19, DW_AT_name("PWM_setTripZoneState_DCBEVT1")
     263                      .dwattr $C$DW$19, DW_AT_low_pc(_PWM_setTripZoneState_DCBEVT1)
     264                      .dwattr $C$DW$19, DW_AT_high_pc(0x00)
     265                      .dwattr $C$DW$19, DW_AT_TI_symbol_name("_PWM_setTripZoneState_DCBEVT1")
     266                      .dwattr $C$DW$19, DW_AT_external
     267                      .dwattr $C$DW$19, DW_AT_TI_begin_file("D:/ti/motorware/motorware_1_01_00_18/sw/drivers/pwm/src/32b/f2
     268                      .dwattr $C$DW$19, DW_AT_TI_begin_line(0x61c)
     269                      .dwattr $C$DW$19, DW_AT_TI_begin_column(0x06)
     270                      .dwattr $C$DW$19, DW_AT_TI_max_frame_size(-2)
TMS320C2000 Assembler PC v18.1.2 Sun Jun 17 14:52:33 2018

Tools Copyright (c) 1996-2017 Texas Instruments Incorporated
C:\Users\haowp\AppData\Local\Temp\{2610D5B4-5CBC-4747-A1C3-229C8FD63D4F} PAGE    6

     271                      .dwpsn  file "D:/ti/motorware/motorware_1_01_00_18/sw/drivers/pwm/src/32b/f28x/f2802x/pwm.c",line 156
     272              
     273                      .dwfde $C$DW$CIE, _PWM_setTripZoneState_DCBEVT1
     274              $C$DW$20        .dwtag  DW_TAG_formal_parameter
     275                      .dwattr $C$DW$20, DW_AT_name("pwmHandle")
     276                      .dwattr $C$DW$20, DW_AT_TI_symbol_name("_pwmHandle")
     277                      .dwattr $C$DW$20, DW_AT_type(*$C$DW$T$33)
     278                      .dwattr $C$DW$20, DW_AT_location[DW_OP_reg12]
     279              
     280              $C$DW$21        .dwtag  DW_TAG_formal_parameter
     281                      .dwattr $C$DW$21, DW_AT_name("tripZoneState")
     282                      .dwattr $C$DW$21, DW_AT_TI_symbol_name("_tripZoneState")
     283                      .dwattr $C$DW$21, DW_AT_type(*$C$DW$T$124)
     284                      .dwattr $C$DW$21, DW_AT_location[DW_OP_reg0]
     285              
     286              
     287              ;***************************************************************
     288              ;* FNAME: _PWM_setTripZoneState_DCBEVT1 FR SIZE:   0           *
     289              ;*                                                             *
     290              ;* FUNCTION ENVIRONMENT                                        *
     291              ;*                                                             *
     292              ;* FUNCTION PROPERTIES                                         *
     293              ;*                            0 Parameter,  0 Auto,  0 SOE     *
     294              ;***************************************************************
     295              
     296              _PWM_setTripZoneState_DCBEVT1:
     297              ;* AR4   assigned to _pwmHandle
     298              $C$DW$22        .dwtag  DW_TAG_variable
     299                      .dwattr $C$DW$22, DW_AT_name("pwmHandle")
     300                      .dwattr $C$DW$22, DW_AT_TI_symbol_name("_pwmHandle")
     301                      .dwattr $C$DW$22, DW_AT_type(*$C$DW$T$127)
     302                      .dwattr $C$DW$22, DW_AT_location[DW_OP_reg12]
     303              
     304              ;* AL    assigned to _tripZoneState
     305              $C$DW$23        .dwtag  DW_TAG_variable
     306                      .dwattr $C$DW$23, DW_AT_name("tripZoneState")
     307                      .dwattr $C$DW$23, DW_AT_TI_symbol_name("_tripZoneState")
     308                      .dwattr $C$DW$23, DW_AT_type(*$C$DW$T$125)
     309                      .dwattr $C$DW$23, DW_AT_location[DW_OP_reg0]
     310              
     311                      .dwcfi  cfa_offset, -2
     312                      .dwcfi  save_reg_to_mem, 26, 0
     313 00000022 7622   EALLOW
     314                      .dwpsn  file "D:/ti/motorware/motorware_1_01_00_18/sw/drivers/pwm/src/32b/f28x/f2802x/pwm.c",line 157
     315 00000023 83A4          MOVL      XAR5,XAR4             ; [CPU_ALU] |1572| 
     316                      .dwpsn  file "D:/ti/motorware/motorware_1_01_00_18/sw/drivers/pwm/src/32b/f28x/f2802x/pwm.c",line 157
     317 00000024 5603          MOV       ACC,AL << #8          ; [CPU_ALU] |1575| 
         00000025 08A9 
     318 00000026 DC14          ADDB      XAR4,#20              ; [CPU_ALU] |1575| 
     319                      .dwpsn  file "D:/ti/motorware/motorware_1_01_00_18/sw/drivers/pwm/src/32b/f28x/f2802x/pwm.c",line 157
     320 00000027 DD14          ADDB      XAR5,#20              ; [CPU_ALU] |1572| 
     321 00000028 18C5          AND       *+XAR5[0],#0xfcff     ; [CPU_ALU] |1572| 
         00000029 FCFF 
     322                      .dwpsn  file "D:/ti/motorware/motorware_1_01_00_18/sw/drivers/pwm/src/32b/f28x/f2802x/pwm.c",line 157
     323 0000002a 98C4          OR        *+XAR4[0],AL          ; [CPU_ALU] |1575| 
TMS320C2000 Assembler PC v18.1.2 Sun Jun 17 14:52:33 2018

Tools Copyright (c) 1996-2017 Texas Instruments Incorporated
C:\Users\haowp\AppData\Local\Temp\{2610D5B4-5CBC-4747-A1C3-229C8FD63D4F} PAGE    7

     324 0000002b 761A   EDIS
     325 0000002c FF69          SPM       #0                    ; [CPU_ALU] 
     326              $C$DW$24        .dwtag  DW_TAG_TI_branch
     327                      .dwattr $C$DW$24, DW_AT_low_pc(0x00)
     328                      .dwattr $C$DW$24, DW_AT_TI_return
     329              
     330 0000002d 0006          LRETR     ; [CPU_ALU] 
     331                      ; return occurs ; [] 
     332                      .dwattr $C$DW$19, DW_AT_TI_end_file("D:/ti/motorware/motorware_1_01_00_18/sw/drivers/pwm/src/32b/f28x
     333                      .dwattr $C$DW$19, DW_AT_TI_end_line(0x62c)
     334                      .dwattr $C$DW$19, DW_AT_TI_end_column(0x01)
     335                      .dwendentry
     336                      .dwendtag $C$DW$19
     337              
     338 0000002e               .sect   ".text"
     339                      .clink
     340                      .global _PWM_setTripZoneState_DCAEVT2
     341              
     342              $C$DW$25        .dwtag  DW_TAG_subprogram
     343                      .dwattr $C$DW$25, DW_AT_name("PWM_setTripZoneState_DCAEVT2")
     344                      .dwattr $C$DW$25, DW_AT_low_pc(_PWM_setTripZoneState_DCAEVT2)
     345                      .dwattr $C$DW$25, DW_AT_high_pc(0x00)
     346                      .dwattr $C$DW$25, DW_AT_TI_symbol_name("_PWM_setTripZoneState_DCAEVT2")
     347                      .dwattr $C$DW$25, DW_AT_external
     348                      .dwattr $C$DW$25, DW_AT_TI_begin_file("D:/ti/motorware/motorware_1_01_00_18/sw/drivers/pwm/src/32b/f2
     349                      .dwattr $C$DW$25, DW_AT_TI_begin_line(0x609)
     350                      .dwattr $C$DW$25, DW_AT_TI_begin_column(0x06)
     351                      .dwattr $C$DW$25, DW_AT_TI_max_frame_size(-2)
     352                      .dwpsn  file "D:/ti/motorware/motorware_1_01_00_18/sw/drivers/pwm/src/32b/f28x/f2802x/pwm.c",line 154
     353              
     354                      .dwfde $C$DW$CIE, _PWM_setTripZoneState_DCAEVT2
     355              $C$DW$26        .dwtag  DW_TAG_formal_parameter
     356                      .dwattr $C$DW$26, DW_AT_name("pwmHandle")
     357                      .dwattr $C$DW$26, DW_AT_TI_symbol_name("_pwmHandle")
     358                      .dwattr $C$DW$26, DW_AT_type(*$C$DW$T$33)
     359                      .dwattr $C$DW$26, DW_AT_location[DW_OP_reg12]
     360              
     361              $C$DW$27        .dwtag  DW_TAG_formal_parameter
     362                      .dwattr $C$DW$27, DW_AT_name("tripZoneState")
     363                      .dwattr $C$DW$27, DW_AT_TI_symbol_name("_tripZoneState")
     364                      .dwattr $C$DW$27, DW_AT_type(*$C$DW$T$124)
     365                      .dwattr $C$DW$27, DW_AT_location[DW_OP_reg0]
     366              
     367              
     368              ;***************************************************************
     369              ;* FNAME: _PWM_setTripZoneState_DCAEVT2 FR SIZE:   0           *
     370              ;*                                                             *
     371              ;* FUNCTION ENVIRONMENT                                        *
     372              ;*                                                             *
     373              ;* FUNCTION PROPERTIES                                         *
     374              ;*                            0 Parameter,  0 Auto,  0 SOE     *
     375              ;***************************************************************
     376              
     377              _PWM_setTripZoneState_DCAEVT2:
     378              ;* AR4   assigned to _pwmHandle
TMS320C2000 Assembler PC v18.1.2 Sun Jun 17 14:52:33 2018

Tools Copyright (c) 1996-2017 Texas Instruments Incorporated
C:\Users\haowp\AppData\Local\Temp\{2610D5B4-5CBC-4747-A1C3-229C8FD63D4F} PAGE    8

     379              $C$DW$28        .dwtag  DW_TAG_variable
     380                      .dwattr $C$DW$28, DW_AT_name("pwmHandle")
     381                      .dwattr $C$DW$28, DW_AT_TI_symbol_name("_pwmHandle")
     382                      .dwattr $C$DW$28, DW_AT_type(*$C$DW$T$127)
     383                      .dwattr $C$DW$28, DW_AT_location[DW_OP_reg12]
     384              
     385              ;* AL    assigned to _tripZoneState
     386              $C$DW$29        .dwtag  DW_TAG_variable
     387                      .dwattr $C$DW$29, DW_AT_name("tripZoneState")
     388                      .dwattr $C$DW$29, DW_AT_TI_symbol_name("_tripZoneState")
     389                      .dwattr $C$DW$29, DW_AT_type(*$C$DW$T$125)
     390                      .dwattr $C$DW$29, DW_AT_location[DW_OP_reg0]
     391              
     392                      .dwcfi  cfa_offset, -2
     393                      .dwcfi  save_reg_to_mem, 26, 0
     394 0000002e 7622   EALLOW
     395                      .dwpsn  file "D:/ti/motorware/motorware_1_01_00_18/sw/drivers/pwm/src/32b/f28x/f2802x/pwm.c",line 155
     396 0000002f 83A4          MOVL      XAR5,XAR4             ; [CPU_ALU] |1553| 
     397                      .dwpsn  file "D:/ti/motorware/motorware_1_01_00_18/sw/drivers/pwm/src/32b/f28x/f2802x/pwm.c",line 155
     398 00000030 5603          MOV       ACC,AL << #6          ; [CPU_ALU] |1556| 
         00000031 06A9 
     399 00000032 DC14          ADDB      XAR4,#20              ; [CPU_ALU] |1556| 
     400                      .dwpsn  file "D:/ti/motorware/motorware_1_01_00_18/sw/drivers/pwm/src/32b/f28x/f2802x/pwm.c",line 155
     401 00000033 DD14          ADDB      XAR5,#20              ; [CPU_ALU] |1553| 
     402 00000034 18C5          AND       *+XAR5[0],#0xff3f     ; [CPU_ALU] |1553| 
         00000035 FF3F 
     403                      .dwpsn  file "D:/ti/motorware/motorware_1_01_00_18/sw/drivers/pwm/src/32b/f28x/f2802x/pwm.c",line 155
     404 00000036 98C4          OR        *+XAR4[0],AL          ; [CPU_ALU] |1556| 
     405 00000037 761A   EDIS
     406 00000038 FF69          SPM       #0                    ; [CPU_ALU] 
     407              $C$DW$30        .dwtag  DW_TAG_TI_branch
     408                      .dwattr $C$DW$30, DW_AT_low_pc(0x00)
     409                      .dwattr $C$DW$30, DW_AT_TI_return
     410              
     411 00000039 0006          LRETR     ; [CPU_ALU] 
     412                      ; return occurs ; [] 
     413                      .dwattr $C$DW$25, DW_AT_TI_end_file("D:/ti/motorware/motorware_1_01_00_18/sw/drivers/pwm/src/32b/f28x
     414                      .dwattr $C$DW$25, DW_AT_TI_end_line(0x619)
     415                      .dwattr $C$DW$25, DW_AT_TI_end_column(0x01)
     416                      .dwendentry
     417                      .dwendtag $C$DW$25
     418              
     419 0000003a               .sect   ".text"
     420                      .clink
     421                      .global _PWM_setTripZoneState_DCAEVT1
     422              
     423              $C$DW$31        .dwtag  DW_TAG_subprogram
     424                      .dwattr $C$DW$31, DW_AT_name("PWM_setTripZoneState_DCAEVT1")
     425                      .dwattr $C$DW$31, DW_AT_low_pc(_PWM_setTripZoneState_DCAEVT1)
     426                      .dwattr $C$DW$31, DW_AT_high_pc(0x00)
     427                      .dwattr $C$DW$31, DW_AT_TI_symbol_name("_PWM_setTripZoneState_DCAEVT1")
     428                      .dwattr $C$DW$31, DW_AT_external
     429                      .dwattr $C$DW$31, DW_AT_TI_begin_file("D:/ti/motorware/motorware_1_01_00_18/sw/drivers/pwm/src/32b/f2
     430                      .dwattr $C$DW$31, DW_AT_TI_begin_line(0x5f6)
     431                      .dwattr $C$DW$31, DW_AT_TI_begin_column(0x06)
TMS320C2000 Assembler PC v18.1.2 Sun Jun 17 14:52:33 2018

Tools Copyright (c) 1996-2017 Texas Instruments Incorporated
C:\Users\haowp\AppData\Local\Temp\{2610D5B4-5CBC-4747-A1C3-229C8FD63D4F} PAGE    9

     432                      .dwattr $C$DW$31, DW_AT_TI_max_frame_size(-2)
     433                      .dwpsn  file "D:/ti/motorware/motorware_1_01_00_18/sw/drivers/pwm/src/32b/f28x/f2802x/pwm.c",line 152
     434              
     435                      .dwfde $C$DW$CIE, _PWM_setTripZoneState_DCAEVT1
     436              $C$DW$32        .dwtag  DW_TAG_formal_parameter
     437                      .dwattr $C$DW$32, DW_AT_name("pwmHandle")
     438                      .dwattr $C$DW$32, DW_AT_TI_symbol_name("_pwmHandle")
     439                      .dwattr $C$DW$32, DW_AT_type(*$C$DW$T$33)
     440                      .dwattr $C$DW$32, DW_AT_location[DW_OP_reg12]
     441              
     442              $C$DW$33        .dwtag  DW_TAG_formal_parameter
     443                      .dwattr $C$DW$33, DW_AT_name("tripZoneState")
     444                      .dwattr $C$DW$33, DW_AT_TI_symbol_name("_tripZoneState")
     445                      .dwattr $C$DW$33, DW_AT_type(*$C$DW$T$124)
     446                      .dwattr $C$DW$33, DW_AT_location[DW_OP_reg0]
     447              
     448              
     449              ;***************************************************************
     450              ;* FNAME: _PWM_setTripZoneState_DCAEVT1 FR SIZE:   0           *
     451              ;*                                                             *
     452              ;* FUNCTION ENVIRONMENT                                        *
     453              ;*                                                             *
     454              ;* FUNCTION PROPERTIES                                         *
     455              ;*                            0 Parameter,  0 Auto,  0 SOE     *
     456              ;***************************************************************
     457              
     458              _PWM_setTripZoneState_DCAEVT1:
     459              ;* AR4   assigned to _pwmHandle
     460              $C$DW$34        .dwtag  DW_TAG_variable
     461                      .dwattr $C$DW$34, DW_AT_name("pwmHandle")
     462                      .dwattr $C$DW$34, DW_AT_TI_symbol_name("_pwmHandle")
     463                      .dwattr $C$DW$34, DW_AT_type(*$C$DW$T$127)
     464                      .dwattr $C$DW$34, DW_AT_location[DW_OP_reg12]
     465              
     466              ;* AL    assigned to _tripZoneState
     467              $C$DW$35        .dwtag  DW_TAG_variable
     468                      .dwattr $C$DW$35, DW_AT_name("tripZoneState")
     469                      .dwattr $C$DW$35, DW_AT_TI_symbol_name("_tripZoneState")
     470                      .dwattr $C$DW$35, DW_AT_type(*$C$DW$T$125)
     471                      .dwattr $C$DW$35, DW_AT_location[DW_OP_reg0]
     472              
     473                      .dwcfi  cfa_offset, -2
     474                      .dwcfi  save_reg_to_mem, 26, 0
     475 0000003a 7622   EALLOW
     476                      .dwpsn  file "D:/ti/motorware/motorware_1_01_00_18/sw/drivers/pwm/src/32b/f28x/f2802x/pwm.c",line 153
     477 0000003b 83A4          MOVL      XAR5,XAR4             ; [CPU_ALU] |1534| 
     478                      .dwpsn  file "D:/ti/motorware/motorware_1_01_00_18/sw/drivers/pwm/src/32b/f28x/f2802x/pwm.c",line 153
     479 0000003c 5603          MOV       ACC,AL << #4          ; [CPU_ALU] |1537| 
         0000003d 04A9 
     480 0000003e DC14          ADDB      XAR4,#20              ; [CPU_ALU] |1537| 
     481                      .dwpsn  file "D:/ti/motorware/motorware_1_01_00_18/sw/drivers/pwm/src/32b/f28x/f2802x/pwm.c",line 153
     482 0000003f DD14          ADDB      XAR5,#20              ; [CPU_ALU] |1534| 
     483 00000040 18C5          AND       *+XAR5[0],#0xffcf     ; [CPU_ALU] |1534| 
         00000041 FFCF 
     484                      .dwpsn  file "D:/ti/motorware/motorware_1_01_00_18/sw/drivers/pwm/src/32b/f28x/f2802x/pwm.c",line 153
TMS320C2000 Assembler PC v18.1.2 Sun Jun 17 14:52:33 2018

Tools Copyright (c) 1996-2017 Texas Instruments Incorporated
C:\Users\haowp\AppData\Local\Temp\{2610D5B4-5CBC-4747-A1C3-229C8FD63D4F} PAGE   10

     485 00000042 98C4          OR        *+XAR4[0],AL          ; [CPU_ALU] |1537| 
     486 00000043 761A   EDIS
     487 00000044 FF69          SPM       #0                    ; [CPU_ALU] 
     488              $C$DW$36        .dwtag  DW_TAG_TI_branch
     489                      .dwattr $C$DW$36, DW_AT_low_pc(0x00)
     490                      .dwattr $C$DW$36, DW_AT_TI_return
     491              
     492 00000045 0006          LRETR     ; [CPU_ALU] 
     493                      ; return occurs ; [] 
     494                      .dwattr $C$DW$31, DW_AT_TI_end_file("D:/ti/motorware/motorware_1_01_00_18/sw/drivers/pwm/src/32b/f28x
     495                      .dwattr $C$DW$31, DW_AT_TI_end_line(0x606)
     496                      .dwattr $C$DW$31, DW_AT_TI_end_column(0x01)
     497                      .dwendentry
     498                      .dwendtag $C$DW$31
     499              
     500 00000046               .sect   ".text"
     501                      .clink
     502                      .global _PWM_setTripZoneDCEventSelect_DCBEVT2
     503              
     504              $C$DW$37        .dwtag  DW_TAG_subprogram
     505                      .dwattr $C$DW$37, DW_AT_name("PWM_setTripZoneDCEventSelect_DCBEVT2")
     506                      .dwattr $C$DW$37, DW_AT_low_pc(_PWM_setTripZoneDCEventSelect_DCBEVT2)
     507                      .dwattr $C$DW$37, DW_AT_high_pc(0x00)
     508                      .dwattr $C$DW$37, DW_AT_TI_symbol_name("_PWM_setTripZoneDCEventSelect_DCBEVT2")
     509                      .dwattr $C$DW$37, DW_AT_external
     510                      .dwattr $C$DW$37, DW_AT_TI_begin_file("D:/ti/motorware/motorware_1_01_00_18/sw/drivers/pwm/src/32b/f2
     511                      .dwattr $C$DW$37, DW_AT_TI_begin_line(0x5e3)
     512                      .dwattr $C$DW$37, DW_AT_TI_begin_column(0x06)
     513                      .dwattr $C$DW$37, DW_AT_TI_max_frame_size(-2)
     514                      .dwpsn  file "D:/ti/motorware/motorware_1_01_00_18/sw/drivers/pwm/src/32b/f28x/f2802x/pwm.c",line 150
     515              
     516                      .dwfde $C$DW$CIE, _PWM_setTripZoneDCEventSelect_DCBEVT2
     517              $C$DW$38        .dwtag  DW_TAG_formal_parameter
     518                      .dwattr $C$DW$38, DW_AT_name("pwmHandle")
     519                      .dwattr $C$DW$38, DW_AT_TI_symbol_name("_pwmHandle")
     520                      .dwattr $C$DW$38, DW_AT_type(*$C$DW$T$33)
     521                      .dwattr $C$DW$38, DW_AT_location[DW_OP_reg12]
     522              
     523              $C$DW$39        .dwtag  DW_TAG_formal_parameter
     524                      .dwattr $C$DW$39, DW_AT_name("tripZoneEvent")
     525                      .dwattr $C$DW$39, DW_AT_TI_symbol_name("_tripZoneEvent")
     526                      .dwattr $C$DW$39, DW_AT_type(*$C$DW$T$121)
     527                      .dwattr $C$DW$39, DW_AT_location[DW_OP_reg0]
     528              
     529              
     530              ;***************************************************************
     531              ;* FNAME: _PWM_setTripZoneDCEventSelect_DCBEVT2 FR SIZE:   0           *
     532              ;*                                                             *
     533              ;* FUNCTION ENVIRONMENT                                        *
     534              ;*                                                             *
     535              ;* FUNCTION PROPERTIES                                         *
     536              ;*                            0 Parameter,  0 Auto,  0 SOE     *
     537              ;***************************************************************
     538              
     539              _PWM_setTripZoneDCEventSelect_DCBEVT2:
TMS320C2000 Assembler PC v18.1.2 Sun Jun 17 14:52:33 2018

Tools Copyright (c) 1996-2017 Texas Instruments Incorporated
C:\Users\haowp\AppData\Local\Temp\{2610D5B4-5CBC-4747-A1C3-229C8FD63D4F} PAGE   11

     540              ;* AR4   assigned to _pwmHandle
     541              $C$DW$40        .dwtag  DW_TAG_variable
     542                      .dwattr $C$DW$40, DW_AT_name("pwmHandle")
     543                      .dwattr $C$DW$40, DW_AT_TI_symbol_name("_pwmHandle")
     544                      .dwattr $C$DW$40, DW_AT_type(*$C$DW$T$127)
     545                      .dwattr $C$DW$40, DW_AT_location[DW_OP_reg12]
     546              
     547              ;* AL    assigned to _tripZoneEvent
     548              $C$DW$41        .dwtag  DW_TAG_variable
     549                      .dwattr $C$DW$41, DW_AT_name("tripZoneEvent")
     550                      .dwattr $C$DW$41, DW_AT_TI_symbol_name("_tripZoneEvent")
     551                      .dwattr $C$DW$41, DW_AT_type(*$C$DW$T$122)
     552                      .dwattr $C$DW$41, DW_AT_location[DW_OP_reg0]
     553              
     554                      .dwcfi  cfa_offset, -2
     555                      .dwcfi  save_reg_to_mem, 26, 0
     556 00000046 7622   EALLOW
     557                      .dwpsn  file "D:/ti/motorware/motorware_1_01_00_18/sw/drivers/pwm/src/32b/f28x/f2802x/pwm.c",line 151
     558 00000047 83A4          MOVL      XAR5,XAR4             ; [CPU_ALU] |1515| 
     559                      .dwpsn  file "D:/ti/motorware/motorware_1_01_00_18/sw/drivers/pwm/src/32b/f28x/f2802x/pwm.c",line 151
     560 00000048 5603          MOV       ACC,AL << #9          ; [CPU_ALU] |1518| 
         00000049 09A9 
     561 0000004a DC13          ADDB      XAR4,#19              ; [CPU_ALU] |1518| 
     562                      .dwpsn  file "D:/ti/motorware/motorware_1_01_00_18/sw/drivers/pwm/src/32b/f28x/f2802x/pwm.c",line 151
     563 0000004b DD13          ADDB      XAR5,#19              ; [CPU_ALU] |1515| 
     564 0000004c 18C5          AND       *+XAR5[0],#0xf1ff     ; [CPU_ALU] |1515| 
         0000004d F1FF 
     565                      .dwpsn  file "D:/ti/motorware/motorware_1_01_00_18/sw/drivers/pwm/src/32b/f28x/f2802x/pwm.c",line 151
     566 0000004e 98C4          OR        *+XAR4[0],AL          ; [CPU_ALU] |1518| 
     567 0000004f 761A   EDIS
     568 00000050 FF69          SPM       #0                    ; [CPU_ALU] 
     569              $C$DW$42        .dwtag  DW_TAG_TI_branch
     570                      .dwattr $C$DW$42, DW_AT_low_pc(0x00)
     571                      .dwattr $C$DW$42, DW_AT_TI_return
     572              
     573 00000051 0006          LRETR     ; [CPU_ALU] 
     574                      ; return occurs ; [] 
     575                      .dwattr $C$DW$37, DW_AT_TI_end_file("D:/ti/motorware/motorware_1_01_00_18/sw/drivers/pwm/src/32b/f28x
     576                      .dwattr $C$DW$37, DW_AT_TI_end_line(0x5f3)
     577                      .dwattr $C$DW$37, DW_AT_TI_end_column(0x01)
     578                      .dwendentry
     579                      .dwendtag $C$DW$37
     580              
     581 00000052               .sect   ".text"
     582                      .clink
     583                      .global _PWM_setTripZoneDCEventSelect_DCBEVT1
     584              
     585              $C$DW$43        .dwtag  DW_TAG_subprogram
     586                      .dwattr $C$DW$43, DW_AT_name("PWM_setTripZoneDCEventSelect_DCBEVT1")
     587                      .dwattr $C$DW$43, DW_AT_low_pc(_PWM_setTripZoneDCEventSelect_DCBEVT1)
     588                      .dwattr $C$DW$43, DW_AT_high_pc(0x00)
     589                      .dwattr $C$DW$43, DW_AT_TI_symbol_name("_PWM_setTripZoneDCEventSelect_DCBEVT1")
     590                      .dwattr $C$DW$43, DW_AT_external
     591                      .dwattr $C$DW$43, DW_AT_TI_begin_file("D:/ti/motorware/motorware_1_01_00_18/sw/drivers/pwm/src/32b/f2
     592                      .dwattr $C$DW$43, DW_AT_TI_begin_line(0x5d0)
TMS320C2000 Assembler PC v18.1.2 Sun Jun 17 14:52:33 2018

Tools Copyright (c) 1996-2017 Texas Instruments Incorporated
C:\Users\haowp\AppData\Local\Temp\{2610D5B4-5CBC-4747-A1C3-229C8FD63D4F} PAGE   12

     593                      .dwattr $C$DW$43, DW_AT_TI_begin_column(0x06)
     594                      .dwattr $C$DW$43, DW_AT_TI_max_frame_size(-2)
     595                      .dwpsn  file "D:/ti/motorware/motorware_1_01_00_18/sw/drivers/pwm/src/32b/f28x/f2802x/pwm.c",line 148
     596              
     597                      .dwfde $C$DW$CIE, _PWM_setTripZoneDCEventSelect_DCBEVT1
     598              $C$DW$44        .dwtag  DW_TAG_formal_parameter
     599                      .dwattr $C$DW$44, DW_AT_name("pwmHandle")
     600                      .dwattr $C$DW$44, DW_AT_TI_symbol_name("_pwmHandle")
     601                      .dwattr $C$DW$44, DW_AT_type(*$C$DW$T$33)
     602                      .dwattr $C$DW$44, DW_AT_location[DW_OP_reg12]
     603              
     604              $C$DW$45        .dwtag  DW_TAG_formal_parameter
     605                      .dwattr $C$DW$45, DW_AT_name("tripZoneEvent")
     606                      .dwattr $C$DW$45, DW_AT_TI_symbol_name("_tripZoneEvent")
     607                      .dwattr $C$DW$45, DW_AT_type(*$C$DW$T$121)
     608                      .dwattr $C$DW$45, DW_AT_location[DW_OP_reg0]
     609              
     610              
     611              ;***************************************************************
     612              ;* FNAME: _PWM_setTripZoneDCEventSelect_DCBEVT1 FR SIZE:   0           *
     613              ;*                                                             *
     614              ;* FUNCTION ENVIRONMENT                                        *
     615              ;*                                                             *
     616              ;* FUNCTION PROPERTIES                                         *
     617              ;*                            0 Parameter,  0 Auto,  0 SOE     *
     618              ;***************************************************************
     619              
     620              _PWM_setTripZoneDCEventSelect_DCBEVT1:
     621              ;* AR4   assigned to _pwmHandle
     622              $C$DW$46        .dwtag  DW_TAG_variable
     623                      .dwattr $C$DW$46, DW_AT_name("pwmHandle")
     624                      .dwattr $C$DW$46, DW_AT_TI_symbol_name("_pwmHandle")
     625                      .dwattr $C$DW$46, DW_AT_type(*$C$DW$T$127)
     626                      .dwattr $C$DW$46, DW_AT_location[DW_OP_reg12]
     627              
     628              ;* AL    assigned to _tripZoneEvent
     629              $C$DW$47        .dwtag  DW_TAG_variable
     630                      .dwattr $C$DW$47, DW_AT_name("tripZoneEvent")
     631                      .dwattr $C$DW$47, DW_AT_TI_symbol_name("_tripZoneEvent")
     632                      .dwattr $C$DW$47, DW_AT_type(*$C$DW$T$122)
     633                      .dwattr $C$DW$47, DW_AT_location[DW_OP_reg0]
     634              
     635                      .dwcfi  cfa_offset, -2
     636                      .dwcfi  save_reg_to_mem, 26, 0
     637 00000052 7622   EALLOW
     638                      .dwpsn  file "D:/ti/motorware/motorware_1_01_00_18/sw/drivers/pwm/src/32b/f28x/f2802x/pwm.c",line 149
     639 00000053 83A4          MOVL      XAR5,XAR4             ; [CPU_ALU] |1496| 
     640                      .dwpsn  file "D:/ti/motorware/motorware_1_01_00_18/sw/drivers/pwm/src/32b/f28x/f2802x/pwm.c",line 149
     641 00000054 5603          MOV       ACC,AL << #6          ; [CPU_ALU] |1499| 
         00000055 06A9 
     642 00000056 DC13          ADDB      XAR4,#19              ; [CPU_ALU] |1499| 
     643                      .dwpsn  file "D:/ti/motorware/motorware_1_01_00_18/sw/drivers/pwm/src/32b/f28x/f2802x/pwm.c",line 149
     644 00000057 DD13          ADDB      XAR5,#19              ; [CPU_ALU] |1496| 
     645 00000058 18C5          AND       *+XAR5[0],#0xfe3f     ; [CPU_ALU] |1496| 
         00000059 FE3F 
TMS320C2000 Assembler PC v18.1.2 Sun Jun 17 14:52:33 2018

Tools Copyright (c) 1996-2017 Texas Instruments Incorporated
C:\Users\haowp\AppData\Local\Temp\{2610D5B4-5CBC-4747-A1C3-229C8FD63D4F} PAGE   13

     646                      .dwpsn  file "D:/ti/motorware/motorware_1_01_00_18/sw/drivers/pwm/src/32b/f28x/f2802x/pwm.c",line 149
     647 0000005a 98C4          OR        *+XAR4[0],AL          ; [CPU_ALU] |1499| 
     648 0000005b 761A   EDIS
     649 0000005c FF69          SPM       #0                    ; [CPU_ALU] 
     650              $C$DW$48        .dwtag  DW_TAG_TI_branch
     651                      .dwattr $C$DW$48, DW_AT_low_pc(0x00)
     652                      .dwattr $C$DW$48, DW_AT_TI_return
     653              
     654 0000005d 0006          LRETR     ; [CPU_ALU] 
     655                      ; return occurs ; [] 
     656                      .dwattr $C$DW$43, DW_AT_TI_end_file("D:/ti/motorware/motorware_1_01_00_18/sw/drivers/pwm/src/32b/f28x
     657                      .dwattr $C$DW$43, DW_AT_TI_end_line(0x5e0)
     658                      .dwattr $C$DW$43, DW_AT_TI_end_column(0x01)
     659                      .dwendentry
     660                      .dwendtag $C$DW$43
     661              
     662 0000005e               .sect   ".text"
     663                      .clink
     664                      .global _PWM_setTripZoneDCEventSelect_DCAEVT2
     665              
     666              $C$DW$49        .dwtag  DW_TAG_subprogram
     667                      .dwattr $C$DW$49, DW_AT_name("PWM_setTripZoneDCEventSelect_DCAEVT2")
     668                      .dwattr $C$DW$49, DW_AT_low_pc(_PWM_setTripZoneDCEventSelect_DCAEVT2)
     669                      .dwattr $C$DW$49, DW_AT_high_pc(0x00)
     670                      .dwattr $C$DW$49, DW_AT_TI_symbol_name("_PWM_setTripZoneDCEventSelect_DCAEVT2")
     671                      .dwattr $C$DW$49, DW_AT_external
     672                      .dwattr $C$DW$49, DW_AT_TI_begin_file("D:/ti/motorware/motorware_1_01_00_18/sw/drivers/pwm/src/32b/f2
     673                      .dwattr $C$DW$49, DW_AT_TI_begin_line(0x5bd)
     674                      .dwattr $C$DW$49, DW_AT_TI_begin_column(0x06)
     675                      .dwattr $C$DW$49, DW_AT_TI_max_frame_size(-2)
     676                      .dwpsn  file "D:/ti/motorware/motorware_1_01_00_18/sw/drivers/pwm/src/32b/f28x/f2802x/pwm.c",line 147
     677              
     678                      .dwfde $C$DW$CIE, _PWM_setTripZoneDCEventSelect_DCAEVT2
     679              $C$DW$50        .dwtag  DW_TAG_formal_parameter
     680                      .dwattr $C$DW$50, DW_AT_name("pwmHandle")
     681                      .dwattr $C$DW$50, DW_AT_TI_symbol_name("_pwmHandle")
     682                      .dwattr $C$DW$50, DW_AT_type(*$C$DW$T$33)
     683                      .dwattr $C$DW$50, DW_AT_location[DW_OP_reg12]
     684              
     685              $C$DW$51        .dwtag  DW_TAG_formal_parameter
     686                      .dwattr $C$DW$51, DW_AT_name("tripZoneEvent")
     687                      .dwattr $C$DW$51, DW_AT_TI_symbol_name("_tripZoneEvent")
     688                      .dwattr $C$DW$51, DW_AT_type(*$C$DW$T$121)
     689                      .dwattr $C$DW$51, DW_AT_location[DW_OP_reg0]
     690              
     691              
     692              ;***************************************************************
     693              ;* FNAME: _PWM_setTripZoneDCEventSelect_DCAEVT2 FR SIZE:   0           *
     694              ;*                                                             *
     695              ;* FUNCTION ENVIRONMENT                                        *
     696              ;*                                                             *
     697              ;* FUNCTION PROPERTIES                                         *
     698              ;*                            0 Parameter,  0 Auto,  0 SOE     *
     699              ;***************************************************************
     700              
TMS320C2000 Assembler PC v18.1.2 Sun Jun 17 14:52:33 2018

Tools Copyright (c) 1996-2017 Texas Instruments Incorporated
C:\Users\haowp\AppData\Local\Temp\{2610D5B4-5CBC-4747-A1C3-229C8FD63D4F} PAGE   14

     701              _PWM_setTripZoneDCEventSelect_DCAEVT2:
     702              ;* AR4   assigned to _pwmHandle
     703              $C$DW$52        .dwtag  DW_TAG_variable
     704                      .dwattr $C$DW$52, DW_AT_name("pwmHandle")
     705                      .dwattr $C$DW$52, DW_AT_TI_symbol_name("_pwmHandle")
     706                      .dwattr $C$DW$52, DW_AT_type(*$C$DW$T$127)
     707                      .dwattr $C$DW$52, DW_AT_location[DW_OP_reg12]
     708              
     709              ;* AL    assigned to _tripZoneEvent
     710              $C$DW$53        .dwtag  DW_TAG_variable
     711                      .dwattr $C$DW$53, DW_AT_name("tripZoneEvent")
     712                      .dwattr $C$DW$53, DW_AT_TI_symbol_name("_tripZoneEvent")
     713                      .dwattr $C$DW$53, DW_AT_type(*$C$DW$T$122)
     714                      .dwattr $C$DW$53, DW_AT_location[DW_OP_reg0]
     715              
     716                      .dwcfi  cfa_offset, -2
     717                      .dwcfi  save_reg_to_mem, 26, 0
     718 0000005e 7622   EALLOW
     719                      .dwpsn  file "D:/ti/motorware/motorware_1_01_00_18/sw/drivers/pwm/src/32b/f28x/f2802x/pwm.c",line 147
     720 0000005f 83A4          MOVL      XAR5,XAR4             ; [CPU_ALU] |1477| 
     721                      .dwpsn  file "D:/ti/motorware/motorware_1_01_00_18/sw/drivers/pwm/src/32b/f28x/f2802x/pwm.c",line 148
     722 00000060 5603          MOV       ACC,AL << #3          ; [CPU_ALU] |1480| 
         00000061 03A9 
     723 00000062 DC13          ADDB      XAR4,#19              ; [CPU_ALU] |1480| 
     724                      .dwpsn  file "D:/ti/motorware/motorware_1_01_00_18/sw/drivers/pwm/src/32b/f28x/f2802x/pwm.c",line 147
     725 00000063 DD13          ADDB      XAR5,#19              ; [CPU_ALU] |1477| 
     726 00000064 18C5          AND       *+XAR5[0],#0xffc7     ; [CPU_ALU] |1477| 
         00000065 FFC7 
     727                      .dwpsn  file "D:/ti/motorware/motorware_1_01_00_18/sw/drivers/pwm/src/32b/f28x/f2802x/pwm.c",line 148
     728 00000066 98C4          OR        *+XAR4[0],AL          ; [CPU_ALU] |1480| 
     729 00000067 761A   EDIS
     730 00000068 FF69          SPM       #0                    ; [CPU_ALU] 
     731              $C$DW$54        .dwtag  DW_TAG_TI_branch
     732                      .dwattr $C$DW$54, DW_AT_low_pc(0x00)
     733                      .dwattr $C$DW$54, DW_AT_TI_return
     734              
     735 00000069 0006          LRETR     ; [CPU_ALU] 
     736                      ; return occurs ; [] 
     737                      .dwattr $C$DW$49, DW_AT_TI_end_file("D:/ti/motorware/motorware_1_01_00_18/sw/drivers/pwm/src/32b/f28x
     738                      .dwattr $C$DW$49, DW_AT_TI_end_line(0x5cd)
     739                      .dwattr $C$DW$49, DW_AT_TI_end_column(0x01)
     740                      .dwendentry
     741                      .dwendtag $C$DW$49
     742              
     743 0000006a               .sect   ".text"
     744                      .clink
     745                      .global _PWM_setTripZoneDCEventSelect_DCAEVT1
     746              
     747              $C$DW$55        .dwtag  DW_TAG_subprogram
     748                      .dwattr $C$DW$55, DW_AT_name("PWM_setTripZoneDCEventSelect_DCAEVT1")
     749                      .dwattr $C$DW$55, DW_AT_low_pc(_PWM_setTripZoneDCEventSelect_DCAEVT1)
     750                      .dwattr $C$DW$55, DW_AT_high_pc(0x00)
     751                      .dwattr $C$DW$55, DW_AT_TI_symbol_name("_PWM_setTripZoneDCEventSelect_DCAEVT1")
     752                      .dwattr $C$DW$55, DW_AT_external
     753                      .dwattr $C$DW$55, DW_AT_TI_begin_file("D:/ti/motorware/motorware_1_01_00_18/sw/drivers/pwm/src/32b/f2
TMS320C2000 Assembler PC v18.1.2 Sun Jun 17 14:52:33 2018

Tools Copyright (c) 1996-2017 Texas Instruments Incorporated
C:\Users\haowp\AppData\Local\Temp\{2610D5B4-5CBC-4747-A1C3-229C8FD63D4F} PAGE   15

     754                      .dwattr $C$DW$55, DW_AT_TI_begin_line(0x5aa)
     755                      .dwattr $C$DW$55, DW_AT_TI_begin_column(0x06)
     756                      .dwattr $C$DW$55, DW_AT_TI_max_frame_size(-2)
     757                      .dwpsn  file "D:/ti/motorware/motorware_1_01_00_18/sw/drivers/pwm/src/32b/f28x/f2802x/pwm.c",line 145
     758              
     759                      .dwfde $C$DW$CIE, _PWM_setTripZoneDCEventSelect_DCAEVT1
     760              $C$DW$56        .dwtag  DW_TAG_formal_parameter
     761                      .dwattr $C$DW$56, DW_AT_name("pwmHandle")
     762                      .dwattr $C$DW$56, DW_AT_TI_symbol_name("_pwmHandle")
     763                      .dwattr $C$DW$56, DW_AT_type(*$C$DW$T$33)
     764                      .dwattr $C$DW$56, DW_AT_location[DW_OP_reg12]
     765              
     766              $C$DW$57        .dwtag  DW_TAG_formal_parameter
     767                      .dwattr $C$DW$57, DW_AT_name("tripZoneEvent")
     768                      .dwattr $C$DW$57, DW_AT_TI_symbol_name("_tripZoneEvent")
     769                      .dwattr $C$DW$57, DW_AT_type(*$C$DW$T$121)
     770                      .dwattr $C$DW$57, DW_AT_location[DW_OP_reg0]
     771              
     772              
     773              ;***************************************************************
     774              ;* FNAME: _PWM_setTripZoneDCEventSelect_DCAEVT1 FR SIZE:   0           *
     775              ;*                                                             *
     776              ;* FUNCTION ENVIRONMENT                                        *
     777              ;*                                                             *
     778              ;* FUNCTION PROPERTIES                                         *
     779              ;*                            0 Parameter,  0 Auto,  0 SOE     *
     780              ;***************************************************************
     781              
     782              _PWM_setTripZoneDCEventSelect_DCAEVT1:
     783              ;* AR4   assigned to _pwmHandle
     784              $C$DW$58        .dwtag  DW_TAG_variable
     785                      .dwattr $C$DW$58, DW_AT_name("pwmHandle")
     786                      .dwattr $C$DW$58, DW_AT_TI_symbol_name("_pwmHandle")
     787                      .dwattr $C$DW$58, DW_AT_type(*$C$DW$T$127)
     788                      .dwattr $C$DW$58, DW_AT_location[DW_OP_reg12]
     789              
     790              ;* AL    assigned to _tripZoneEvent
     791              $C$DW$59        .dwtag  DW_TAG_variable
     792                      .dwattr $C$DW$59, DW_AT_name("tripZoneEvent")
     793                      .dwattr $C$DW$59, DW_AT_TI_symbol_name("_tripZoneEvent")
     794                      .dwattr $C$DW$59, DW_AT_type(*$C$DW$T$122)
     795                      .dwattr $C$DW$59, DW_AT_location[DW_OP_reg0]
     796              
     797                      .dwcfi  cfa_offset, -2
     798                      .dwcfi  save_reg_to_mem, 26, 0
     799 0000006a 7622   EALLOW
     800                      .dwpsn  file "D:/ti/motorware/motorware_1_01_00_18/sw/drivers/pwm/src/32b/f28x/f2802x/pwm.c",line 145
     801 0000006b 83A4          MOVL      XAR5,XAR4             ; [CPU_ALU] |1458| 
     802                      .dwpsn  file "D:/ti/motorware/motorware_1_01_00_18/sw/drivers/pwm/src/32b/f28x/f2802x/pwm.c",line 146
     803 0000006c DC13          ADDB      XAR4,#19              ; [CPU_ALU] |1461| 
     804                      .dwpsn  file "D:/ti/motorware/motorware_1_01_00_18/sw/drivers/pwm/src/32b/f28x/f2802x/pwm.c",line 145
     805 0000006d DD13          ADDB      XAR5,#19              ; [CPU_ALU] |1458| 
     806 0000006e 18C5          AND       *+XAR5[0],#0xfff8     ; [CPU_ALU] |1458| 
         0000006f FFF8 
     807                      .dwpsn  file "D:/ti/motorware/motorware_1_01_00_18/sw/drivers/pwm/src/32b/f28x/f2802x/pwm.c",line 146
TMS320C2000 Assembler PC v18.1.2 Sun Jun 17 14:52:33 2018

Tools Copyright (c) 1996-2017 Texas Instruments Incorporated
C:\Users\haowp\AppData\Local\Temp\{2610D5B4-5CBC-4747-A1C3-229C8FD63D4F} PAGE   16

     808 00000070 98C4          OR        *+XAR4[0],AL          ; [CPU_ALU] |1461| 
     809 00000071 761A   EDIS
     810 00000072 FF69          SPM       #0                    ; [CPU_ALU] 
     811              $C$DW$60        .dwtag  DW_TAG_TI_branch
     812                      .dwattr $C$DW$60, DW_AT_low_pc(0x00)
     813                      .dwattr $C$DW$60, DW_AT_TI_return
     814              
     815 00000073 0006          LRETR     ; [CPU_ALU] 
     816                      ; return occurs ; [] 
     817                      .dwattr $C$DW$55, DW_AT_TI_end_file("D:/ti/motorware/motorware_1_01_00_18/sw/drivers/pwm/src/32b/f28x
     818                      .dwattr $C$DW$55, DW_AT_TI_end_line(0x5ba)
     819                      .dwattr $C$DW$55, DW_AT_TI_end_column(0x01)
     820                      .dwendentry
     821                      .dwendtag $C$DW$55
     822              
     823 00000074               .sect   ".text"
     824                      .clink
     825                      .global _PWM_setSyncMode
     826              
     827              $C$DW$61        .dwtag  DW_TAG_subprogram
     828                      .dwattr $C$DW$61, DW_AT_name("PWM_setSyncMode")
     829                      .dwattr $C$DW$61, DW_AT_low_pc(_PWM_setSyncMode)
     830                      .dwattr $C$DW$61, DW_AT_high_pc(0x00)
     831                      .dwattr $C$DW$61, DW_AT_TI_symbol_name("_PWM_setSyncMode")
     832                      .dwattr $C$DW$61, DW_AT_external
     833                      .dwattr $C$DW$61, DW_AT_TI_begin_file("D:/ti/motorware/motorware_1_01_00_18/sw/drivers/pwm/src/32b/f2
     834                      .dwattr $C$DW$61, DW_AT_TI_begin_line(0x59c)
     835                      .dwattr $C$DW$61, DW_AT_TI_begin_column(0x06)
     836                      .dwattr $C$DW$61, DW_AT_TI_max_frame_size(-2)
     837                      .dwpsn  file "D:/ti/motorware/motorware_1_01_00_18/sw/drivers/pwm/src/32b/f28x/f2802x/pwm.c",line 143
     838              
     839                      .dwfde $C$DW$CIE, _PWM_setSyncMode
     840              $C$DW$62        .dwtag  DW_TAG_formal_parameter
     841                      .dwattr $C$DW$62, DW_AT_name("pwmHandle")
     842                      .dwattr $C$DW$62, DW_AT_TI_symbol_name("_pwmHandle")
     843                      .dwattr $C$DW$62, DW_AT_type(*$C$DW$T$33)
     844                      .dwattr $C$DW$62, DW_AT_location[DW_OP_reg12]
     845              
     846              $C$DW$63        .dwtag  DW_TAG_formal_parameter
     847                      .dwattr $C$DW$63, DW_AT_name("syncMode")
     848                      .dwattr $C$DW$63, DW_AT_TI_symbol_name("_syncMode")
     849                      .dwattr $C$DW$63, DW_AT_type(*$C$DW$T$118)
     850                      .dwattr $C$DW$63, DW_AT_location[DW_OP_reg0]
     851              
     852              
     853              ;***************************************************************
     854              ;* FNAME: _PWM_setSyncMode              FR SIZE:   0           *
     855              ;*                                                             *
     856              ;* FUNCTION ENVIRONMENT                                        *
     857              ;*                                                             *
     858              ;* FUNCTION PROPERTIES                                         *
     859              ;*                            0 Parameter,  0 Auto,  0 SOE     *
     860              ;***************************************************************
     861              
     862              _PWM_setSyncMode:
TMS320C2000 Assembler PC v18.1.2 Sun Jun 17 14:52:33 2018

Tools Copyright (c) 1996-2017 Texas Instruments Incorporated
C:\Users\haowp\AppData\Local\Temp\{2610D5B4-5CBC-4747-A1C3-229C8FD63D4F} PAGE   17

     863              ;* AR4   assigned to _pwmHandle
     864              $C$DW$64        .dwtag  DW_TAG_variable
     865                      .dwattr $C$DW$64, DW_AT_name("pwmHandle")
     866                      .dwattr $C$DW$64, DW_AT_TI_symbol_name("_pwmHandle")
     867                      .dwattr $C$DW$64, DW_AT_type(*$C$DW$T$127)
     868                      .dwattr $C$DW$64, DW_AT_location[DW_OP_reg12]
     869              
     870              ;* AL    assigned to _syncMode
     871              $C$DW$65        .dwtag  DW_TAG_variable
     872                      .dwattr $C$DW$65, DW_AT_name("syncMode")
     873                      .dwattr $C$DW$65, DW_AT_TI_symbol_name("_syncMode")
     874                      .dwattr $C$DW$65, DW_AT_type(*$C$DW$T$119)
     875                      .dwattr $C$DW$65, DW_AT_location[DW_OP_reg0]
     876              
     877                      .dwcfi  cfa_offset, -2
     878                      .dwcfi  save_reg_to_mem, 26, 0
     879                      .dwpsn  file "D:/ti/motorware/motorware_1_01_00_18/sw/drivers/pwm/src/32b/f28x/f2802x/pwm.c",line 144
     880 00000074 18C4          AND       *+XAR4[0],#0xffcf     ; [CPU_ALU] |1442| 
         00000075 FFCF 
     881                      .dwpsn  file "D:/ti/motorware/motorware_1_01_00_18/sw/drivers/pwm/src/32b/f28x/f2802x/pwm.c",line 144
     882 00000076 98C4          OR        *+XAR4[0],AL          ; [CPU_ALU] |1445| 
     883              $C$DW$66        .dwtag  DW_TAG_TI_branch
     884                      .dwattr $C$DW$66, DW_AT_low_pc(0x00)
     885                      .dwattr $C$DW$66, DW_AT_TI_return
     886              
     887 00000077 0006          LRETR     ; [CPU_ALU] 
     888                      ; return occurs ; [] 
     889                      .dwattr $C$DW$61, DW_AT_TI_end_file("D:/ti/motorware/motorware_1_01_00_18/sw/drivers/pwm/src/32b/f28x
     890                      .dwattr $C$DW$61, DW_AT_TI_end_line(0x5a8)
     891                      .dwattr $C$DW$61, DW_AT_TI_end_column(0x01)
     892                      .dwendentry
     893                      .dwendtag $C$DW$61
     894              
     895 00000078               .sect   ".text"
     896                      .clink
     897                      .global _PWM_setSwSync
     898              
     899              $C$DW$67        .dwtag  DW_TAG_subprogram
     900                      .dwattr $C$DW$67, DW_AT_name("PWM_setSwSync")
     901                      .dwattr $C$DW$67, DW_AT_low_pc(_PWM_setSwSync)
     902                      .dwattr $C$DW$67, DW_AT_high_pc(0x00)
     903                      .dwattr $C$DW$67, DW_AT_TI_symbol_name("_PWM_setSwSync")
     904                      .dwattr $C$DW$67, DW_AT_external
     905                      .dwattr $C$DW$67, DW_AT_TI_begin_file("D:/ti/motorware/motorware_1_01_00_18/sw/drivers/pwm/src/32b/f2
     906                      .dwattr $C$DW$67, DW_AT_TI_begin_line(0x590)
     907                      .dwattr $C$DW$67, DW_AT_TI_begin_column(0x06)
     908                      .dwattr $C$DW$67, DW_AT_TI_max_frame_size(-2)
     909                      .dwpsn  file "D:/ti/motorware/motorware_1_01_00_18/sw/drivers/pwm/src/32b/f28x/f2802x/pwm.c",line 142
     910              
     911                      .dwfde $C$DW$CIE, _PWM_setSwSync
     912              $C$DW$68        .dwtag  DW_TAG_formal_parameter
     913                      .dwattr $C$DW$68, DW_AT_name("pwmHandle")
     914                      .dwattr $C$DW$68, DW_AT_TI_symbol_name("_pwmHandle")
     915                      .dwattr $C$DW$68, DW_AT_type(*$C$DW$T$33)
     916                      .dwattr $C$DW$68, DW_AT_location[DW_OP_reg12]
TMS320C2000 Assembler PC v18.1.2 Sun Jun 17 14:52:33 2018

Tools Copyright (c) 1996-2017 Texas Instruments Incorporated
C:\Users\haowp\AppData\Local\Temp\{2610D5B4-5CBC-4747-A1C3-229C8FD63D4F} PAGE   18

     917              
     918              
     919              ;***************************************************************
     920              ;* FNAME: _PWM_setSwSync                FR SIZE:   0           *
     921              ;*                                                             *
     922              ;* FUNCTION ENVIRONMENT                                        *
     923              ;*                                                             *
     924              ;* FUNCTION PROPERTIES                                         *
     925              ;*                            0 Parameter,  0 Auto,  0 SOE     *
     926              ;***************************************************************
     927              
     928              _PWM_setSwSync:
     929              ;* AR4   assigned to _pwmHandle
     930              $C$DW$69        .dwtag  DW_TAG_variable
     931                      .dwattr $C$DW$69, DW_AT_name("pwmHandle")
     932                      .dwattr $C$DW$69, DW_AT_TI_symbol_name("_pwmHandle")
     933                      .dwattr $C$DW$69, DW_AT_type(*$C$DW$T$127)
     934                      .dwattr $C$DW$69, DW_AT_location[DW_OP_reg12]
     935              
     936                      .dwcfi  cfa_offset, -2
     937                      .dwcfi  save_reg_to_mem, 26, 0
     938                      .dwpsn  file "D:/ti/motorware/motorware_1_01_00_18/sw/drivers/pwm/src/32b/f28x/f2802x/pwm.c",line 143
     939 00000078 1AC4          OR        *+XAR4[0],#0x0040     ; [CPU_ALU] |1430| 
         00000079 0040 
     940              $C$DW$70        .dwtag  DW_TAG_TI_branch
     941                      .dwattr $C$DW$70, DW_AT_low_pc(0x00)
     942                      .dwattr $C$DW$70, DW_AT_TI_return
     943              
     944 0000007a 0006          LRETR     ; [CPU_ALU] 
     945                      ; return occurs ; [] 
     946                      .dwattr $C$DW$67, DW_AT_TI_end_file("D:/ti/motorware/motorware_1_01_00_18/sw/drivers/pwm/src/32b/f28x
     947                      .dwattr $C$DW$67, DW_AT_TI_end_line(0x599)
     948                      .dwattr $C$DW$67, DW_AT_TI_end_column(0x01)
     949                      .dwendentry
     950                      .dwendtag $C$DW$67
     951              
     952 0000007b               .sect   ".text"
     953                      .clink
     954                      .global _PWM_setSocBPulseSrc
     955              
     956              $C$DW$71        .dwtag  DW_TAG_subprogram
     957                      .dwattr $C$DW$71, DW_AT_name("PWM_setSocBPulseSrc")
     958                      .dwattr $C$DW$71, DW_AT_low_pc(_PWM_setSocBPulseSrc)
     959                      .dwattr $C$DW$71, DW_AT_high_pc(0x00)
     960                      .dwattr $C$DW$71, DW_AT_TI_symbol_name("_PWM_setSocBPulseSrc")
     961                      .dwattr $C$DW$71, DW_AT_external
     962                      .dwattr $C$DW$71, DW_AT_TI_begin_file("D:/ti/motorware/motorware_1_01_00_18/sw/drivers/pwm/src/32b/f2
     963                      .dwattr $C$DW$71, DW_AT_TI_begin_line(0x563)
     964                      .dwattr $C$DW$71, DW_AT_TI_begin_column(0x06)
     965                      .dwattr $C$DW$71, DW_AT_TI_max_frame_size(-2)
     966                      .dwpsn  file "D:/ti/motorware/motorware_1_01_00_18/sw/drivers/pwm/src/32b/f28x/f2802x/pwm.c",line 138
     967              
     968                      .dwfde $C$DW$CIE, _PWM_setSocBPulseSrc
     969              $C$DW$72        .dwtag  DW_TAG_formal_parameter
     970                      .dwattr $C$DW$72, DW_AT_name("pwmHandle")
TMS320C2000 Assembler PC v18.1.2 Sun Jun 17 14:52:33 2018

Tools Copyright (c) 1996-2017 Texas Instruments Incorporated
C:\Users\haowp\AppData\Local\Temp\{2610D5B4-5CBC-4747-A1C3-229C8FD63D4F} PAGE   19

     971                      .dwattr $C$DW$72, DW_AT_TI_symbol_name("_pwmHandle")
     972                      .dwattr $C$DW$72, DW_AT_type(*$C$DW$T$33)
     973                      .dwattr $C$DW$72, DW_AT_location[DW_OP_reg12]
     974              
     975              $C$DW$73        .dwtag  DW_TAG_formal_parameter
     976                      .dwattr $C$DW$73, DW_AT_name("pulseSrc")
     977                      .dwattr $C$DW$73, DW_AT_TI_symbol_name("_pulseSrc")
     978                      .dwattr $C$DW$73, DW_AT_type(*$C$DW$T$112)
     979                      .dwattr $C$DW$73, DW_AT_location[DW_OP_reg0]
     980              
     981              
     982              ;***************************************************************
     983              ;* FNAME: _PWM_setSocBPulseSrc          FR SIZE:   0           *
     984              ;*                                                             *
     985              ;* FUNCTION ENVIRONMENT                                        *
     986              ;*                                                             *
     987              ;* FUNCTION PROPERTIES                                         *
     988              ;*                            0 Parameter,  0 Auto,  0 SOE     *
     989              ;***************************************************************
     990              
     991              _PWM_setSocBPulseSrc:
     992              ;* AR4   assigned to _pwmHandle
     993              $C$DW$74        .dwtag  DW_TAG_variable
     994                      .dwattr $C$DW$74, DW_AT_name("pwmHandle")
     995                      .dwattr $C$DW$74, DW_AT_TI_symbol_name("_pwmHandle")
     996                      .dwattr $C$DW$74, DW_AT_type(*$C$DW$T$127)
     997                      .dwattr $C$DW$74, DW_AT_location[DW_OP_reg12]
     998              
     999              ;* AL    assigned to _pulseSrc
    1000              $C$DW$75        .dwtag  DW_TAG_variable
    1001                      .dwattr $C$DW$75, DW_AT_name("pulseSrc")
    1002                      .dwattr $C$DW$75, DW_AT_TI_symbol_name("_pulseSrc")
    1003                      .dwattr $C$DW$75, DW_AT_type(*$C$DW$T$113)
    1004                      .dwattr $C$DW$75, DW_AT_location[DW_OP_reg0]
    1005              
    1006                      .dwcfi  cfa_offset, -2
    1007                      .dwcfi  save_reg_to_mem, 26, 0
    1008                      .dwpsn  file "D:/ti/motorware/motorware_1_01_00_18/sw/drivers/pwm/src/32b/f28x/f2802x/pwm.c",line 138
    1009 0000007b 83A4          MOVL      XAR5,XAR4             ; [CPU_ALU] |1385| 
    1010                      .dwpsn  file "D:/ti/motorware/motorware_1_01_00_18/sw/drivers/pwm/src/32b/f28x/f2802x/pwm.c",line 138
    1011 0000007c 5603          MOV       ACC,AL << #12         ; [CPU_ALU] |1388| 
         0000007d 0CA9 
    1012                      .dwpsn  file "D:/ti/motorware/motorware_1_01_00_18/sw/drivers/pwm/src/32b/f28x/f2802x/pwm.c",line 138
    1013 0000007e DD19          ADDB      XAR5,#25              ; [CPU_ALU] |1385| 
    1014 0000007f 18C5          AND       *+XAR5[0],#0x8fff     ; [CPU_ALU] |1385| 
         00000080 8FFF 
    1015                      .dwpsn  file "D:/ti/motorware/motorware_1_01_00_18/sw/drivers/pwm/src/32b/f28x/f2802x/pwm.c",line 138
    1016 00000081 DC19          ADDB      XAR4,#25              ; [CPU_ALU] |1388| 
    1017 00000082 98C4          OR        *+XAR4[0],AL          ; [CPU_ALU] |1388| 
    1018              $C$DW$76        .dwtag  DW_TAG_TI_branch
    1019                      .dwattr $C$DW$76, DW_AT_low_pc(0x00)
    1020                      .dwattr $C$DW$76, DW_AT_TI_return
    1021              
    1022 00000083 0006          LRETR     ; [CPU_ALU] 
    1023                      ; return occurs ; [] 
TMS320C2000 Assembler PC v18.1.2 Sun Jun 17 14:52:33 2018

Tools Copyright (c) 1996-2017 Texas Instruments Incorporated
C:\Users\haowp\AppData\Local\Temp\{2610D5B4-5CBC-4747-A1C3-229C8FD63D4F} PAGE   20

    1024                      .dwattr $C$DW$71, DW_AT_TI_end_file("D:/ti/motorware/motorware_1_01_00_18/sw/drivers/pwm/src/32b/f28x
    1025                      .dwattr $C$DW$71, DW_AT_TI_end_line(0x56f)
    1026                      .dwattr $C$DW$71, DW_AT_TI_end_column(0x01)
    1027                      .dwendentry
    1028                      .dwendtag $C$DW$71
    1029              
    1030 00000084               .sect   ".text"
    1031                      .clink
    1032                      .global _PWM_setSocBPeriod
    1033              
    1034              $C$DW$77        .dwtag  DW_TAG_subprogram
    1035                      .dwattr $C$DW$77, DW_AT_name("PWM_setSocBPeriod")
    1036                      .dwattr $C$DW$77, DW_AT_low_pc(_PWM_setSocBPeriod)
    1037                      .dwattr $C$DW$77, DW_AT_high_pc(0x00)
    1038                      .dwattr $C$DW$77, DW_AT_TI_symbol_name("_PWM_setSocBPeriod")
    1039                      .dwattr $C$DW$77, DW_AT_external
    1040                      .dwattr $C$DW$77, DW_AT_TI_begin_file("D:/ti/motorware/motorware_1_01_00_18/sw/drivers/pwm/src/32b/f2
    1041                      .dwattr $C$DW$77, DW_AT_TI_begin_line(0x554)
    1042                      .dwattr $C$DW$77, DW_AT_TI_begin_column(0x06)
    1043                      .dwattr $C$DW$77, DW_AT_TI_max_frame_size(-2)
    1044                      .dwpsn  file "D:/ti/motorware/motorware_1_01_00_18/sw/drivers/pwm/src/32b/f28x/f2802x/pwm.c",line 136
    1045              
    1046                      .dwfde $C$DW$CIE, _PWM_setSocBPeriod
    1047              $C$DW$78        .dwtag  DW_TAG_formal_parameter
    1048                      .dwattr $C$DW$78, DW_AT_name("pwmHandle")
    1049                      .dwattr $C$DW$78, DW_AT_TI_symbol_name("_pwmHandle")
    1050                      .dwattr $C$DW$78, DW_AT_type(*$C$DW$T$33)
    1051                      .dwattr $C$DW$78, DW_AT_location[DW_OP_reg12]
    1052              
    1053              $C$DW$79        .dwtag  DW_TAG_formal_parameter
    1054                      .dwattr $C$DW$79, DW_AT_name("intPeriod")
    1055                      .dwattr $C$DW$79, DW_AT_TI_symbol_name("_intPeriod")
    1056                      .dwattr $C$DW$79, DW_AT_type(*$C$DW$T$109)
    1057                      .dwattr $C$DW$79, DW_AT_location[DW_OP_reg0]
    1058              
    1059              
    1060              ;***************************************************************
    1061              ;* FNAME: _PWM_setSocBPeriod            FR SIZE:   0           *
    1062              ;*                                                             *
    1063              ;* FUNCTION ENVIRONMENT                                        *
    1064              ;*                                                             *
    1065              ;* FUNCTION PROPERTIES                                         *
    1066              ;*                            0 Parameter,  0 Auto,  0 SOE     *
    1067              ;***************************************************************
    1068              
    1069              _PWM_setSocBPeriod:
    1070              ;* AR4   assigned to _pwmHandle
    1071              $C$DW$80        .dwtag  DW_TAG_variable
    1072                      .dwattr $C$DW$80, DW_AT_name("pwmHandle")
    1073                      .dwattr $C$DW$80, DW_AT_TI_symbol_name("_pwmHandle")
    1074                      .dwattr $C$DW$80, DW_AT_type(*$C$DW$T$127)
    1075                      .dwattr $C$DW$80, DW_AT_location[DW_OP_reg12]
    1076              
    1077              ;* AL    assigned to _intPeriod
    1078              $C$DW$81        .dwtag  DW_TAG_variable
TMS320C2000 Assembler PC v18.1.2 Sun Jun 17 14:52:33 2018

Tools Copyright (c) 1996-2017 Texas Instruments Incorporated
C:\Users\haowp\AppData\Local\Temp\{2610D5B4-5CBC-4747-A1C3-229C8FD63D4F} PAGE   21

    1079                      .dwattr $C$DW$81, DW_AT_name("intPeriod")
    1080                      .dwattr $C$DW$81, DW_AT_TI_symbol_name("_intPeriod")
    1081                      .dwattr $C$DW$81, DW_AT_type(*$C$DW$T$110)
    1082                      .dwattr $C$DW$81, DW_AT_location[DW_OP_reg0]
    1083              
    1084                      .dwcfi  cfa_offset, -2
    1085                      .dwcfi  save_reg_to_mem, 26, 0
    1086                      .dwpsn  file "D:/ti/motorware/motorware_1_01_00_18/sw/drivers/pwm/src/32b/f28x/f2802x/pwm.c",line 137
    1087 00000084 83A4          MOVL      XAR5,XAR4             ; [CPU_ALU] |1370| 
    1088                      .dwpsn  file "D:/ti/motorware/motorware_1_01_00_18/sw/drivers/pwm/src/32b/f28x/f2802x/pwm.c",line 137
    1089 00000085 5603          MOV       ACC,AL << #12         ; [CPU_ALU] |1373| 
         00000086 0CA9 
    1090                      .dwpsn  file "D:/ti/motorware/motorware_1_01_00_18/sw/drivers/pwm/src/32b/f28x/f2802x/pwm.c",line 137
    1091 00000087 DD1A          ADDB      XAR5,#26              ; [CPU_ALU] |1370| 
    1092 00000088 18C5          AND       *+XAR5[0],#0xcfff     ; [CPU_ALU] |1370| 
         00000089 CFFF 
    1093                      .dwpsn  file "D:/ti/motorware/motorware_1_01_00_18/sw/drivers/pwm/src/32b/f28x/f2802x/pwm.c",line 137
    1094 0000008a DC1A          ADDB      XAR4,#26              ; [CPU_ALU] |1373| 
    1095 0000008b 98C4          OR        *+XAR4[0],AL          ; [CPU_ALU] |1373| 
    1096              $C$DW$82        .dwtag  DW_TAG_TI_branch
    1097                      .dwattr $C$DW$82, DW_AT_low_pc(0x00)
    1098                      .dwattr $C$DW$82, DW_AT_TI_return
    1099              
    1100 0000008c 0006          LRETR     ; [CPU_ALU] 
    1101                      ; return occurs ; [] 
    1102                      .dwattr $C$DW$77, DW_AT_TI_end_file("D:/ti/motorware/motorware_1_01_00_18/sw/drivers/pwm/src/32b/f28x
    1103                      .dwattr $C$DW$77, DW_AT_TI_end_line(0x560)
    1104                      .dwattr $C$DW$77, DW_AT_TI_end_column(0x01)
    1105                      .dwendentry
    1106                      .dwendtag $C$DW$77
    1107              
    1108 0000008d               .sect   ".text"
    1109                      .clink
    1110                      .global _PWM_setSocAPulseSrc
    1111              
    1112              $C$DW$83        .dwtag  DW_TAG_subprogram
    1113                      .dwattr $C$DW$83, DW_AT_name("PWM_setSocAPulseSrc")
    1114                      .dwattr $C$DW$83, DW_AT_low_pc(_PWM_setSocAPulseSrc)
    1115                      .dwattr $C$DW$83, DW_AT_high_pc(0x00)
    1116                      .dwattr $C$DW$83, DW_AT_TI_symbol_name("_PWM_setSocAPulseSrc")
    1117                      .dwattr $C$DW$83, DW_AT_external
    1118                      .dwattr $C$DW$83, DW_AT_TI_begin_file("D:/ti/motorware/motorware_1_01_00_18/sw/drivers/pwm/src/32b/f2
    1119                      .dwattr $C$DW$83, DW_AT_TI_begin_line(0x544)
    1120                      .dwattr $C$DW$83, DW_AT_TI_begin_column(0x06)
    1121                      .dwattr $C$DW$83, DW_AT_TI_max_frame_size(-2)
    1122                      .dwpsn  file "D:/ti/motorware/motorware_1_01_00_18/sw/drivers/pwm/src/32b/f28x/f2802x/pwm.c",line 134
    1123              
    1124                      .dwfde $C$DW$CIE, _PWM_setSocAPulseSrc
    1125              $C$DW$84        .dwtag  DW_TAG_formal_parameter
    1126                      .dwattr $C$DW$84, DW_AT_name("pwmHandle")
    1127                      .dwattr $C$DW$84, DW_AT_TI_symbol_name("_pwmHandle")
    1128                      .dwattr $C$DW$84, DW_AT_type(*$C$DW$T$33)
    1129                      .dwattr $C$DW$84, DW_AT_location[DW_OP_reg12]
    1130              
    1131              $C$DW$85        .dwtag  DW_TAG_formal_parameter
TMS320C2000 Assembler PC v18.1.2 Sun Jun 17 14:52:33 2018

Tools Copyright (c) 1996-2017 Texas Instruments Incorporated
C:\Users\haowp\AppData\Local\Temp\{2610D5B4-5CBC-4747-A1C3-229C8FD63D4F} PAGE   22

    1132                      .dwattr $C$DW$85, DW_AT_name("pulseSrc")
    1133                      .dwattr $C$DW$85, DW_AT_TI_symbol_name("_pulseSrc")
    1134                      .dwattr $C$DW$85, DW_AT_type(*$C$DW$T$112)
    1135                      .dwattr $C$DW$85, DW_AT_location[DW_OP_reg0]
    1136              
    1137              
    1138              ;***************************************************************
    1139              ;* FNAME: _PWM_setSocAPulseSrc          FR SIZE:   0           *
    1140              ;*                                                             *
    1141              ;* FUNCTION ENVIRONMENT                                        *
    1142              ;*                                                             *
    1143              ;* FUNCTION PROPERTIES                                         *
    1144              ;*                            0 Parameter,  0 Auto,  0 SOE     *
    1145              ;***************************************************************
    1146              
    1147              _PWM_setSocAPulseSrc:
    1148              ;* AR4   assigned to _pwmHandle
    1149              $C$DW$86        .dwtag  DW_TAG_variable
    1150                      .dwattr $C$DW$86, DW_AT_name("pwmHandle")
    1151                      .dwattr $C$DW$86, DW_AT_TI_symbol_name("_pwmHandle")
    1152                      .dwattr $C$DW$86, DW_AT_type(*$C$DW$T$127)
    1153                      .dwattr $C$DW$86, DW_AT_location[DW_OP_reg12]
    1154              
    1155              ;* AL    assigned to _pulseSrc
    1156              $C$DW$87        .dwtag  DW_TAG_variable
    1157                      .dwattr $C$DW$87, DW_AT_name("pulseSrc")
    1158                      .dwattr $C$DW$87, DW_AT_TI_symbol_name("_pulseSrc")
    1159                      .dwattr $C$DW$87, DW_AT_type(*$C$DW$T$113)
    1160                      .dwattr $C$DW$87, DW_AT_location[DW_OP_reg0]
    1161              
    1162              ;* AR6   assigned to _data
    1163              $C$DW$88        .dwtag  DW_TAG_variable
    1164                      .dwattr $C$DW$88, DW_AT_name("data")
    1165                      .dwattr $C$DW$88, DW_AT_TI_symbol_name("_data")
    1166                      .dwattr $C$DW$88, DW_AT_type(*$C$DW$T$19)
    1167                      .dwattr $C$DW$88, DW_AT_location[DW_OP_reg16]
    1168              
    1169                      .dwcfi  cfa_offset, -2
    1170                      .dwcfi  save_reg_to_mem, 26, 0
    1171                      .dwpsn  file "D:/ti/motorware/motorware_1_01_00_18/sw/drivers/pwm/src/32b/f28x/f2802x/pwm.c",line 135
    1172 0000008d D019          MOVB      XAR0,#25              ; [CPU_ALU] |1354| 
    1173 0000008e 8894          MOVZ      AR6,*+XAR4[AR0]       ; [CPU_ALU] |1354| 
    1174                      .dwpsn  file "D:/ti/motorware/motorware_1_01_00_18/sw/drivers/pwm/src/32b/f28x/f2802x/pwm.c",line 135
    1175 0000008f 18A6          AND       AR6,#0xf8ff           ; [CPU_ALU] |1358| 
         00000090 F8FF 
    1176 00000091 5603          MOV       ACC,AL << #8          ; [CPU_ALU] |1358| 
         00000092 08A9 
    1177 00000093 CAA6          OR        AL,AR6                ; [CPU_ALU] |1358| 
    1178 00000094 D019          MOVB      XAR0,#25              ; [CPU_ALU] |1358| 
    1179 00000095 9694          MOV       *+XAR4[AR0],AL        ; [CPU_ALU] |1358| 
    1180              $C$DW$89        .dwtag  DW_TAG_TI_branch
    1181                      .dwattr $C$DW$89, DW_AT_low_pc(0x00)
    1182                      .dwattr $C$DW$89, DW_AT_TI_return
    1183              
    1184 00000096 0006          LRETR     ; [CPU_ALU] 
TMS320C2000 Assembler PC v18.1.2 Sun Jun 17 14:52:33 2018

Tools Copyright (c) 1996-2017 Texas Instruments Incorporated
C:\Users\haowp\AppData\Local\Temp\{2610D5B4-5CBC-4747-A1C3-229C8FD63D4F} PAGE   23

    1185                      ; return occurs ; [] 
    1186                      .dwattr $C$DW$83, DW_AT_TI_end_file("D:/ti/motorware/motorware_1_01_00_18/sw/drivers/pwm/src/32b/f28x
    1187                      .dwattr $C$DW$83, DW_AT_TI_end_line(0x551)
    1188                      .dwattr $C$DW$83, DW_AT_TI_end_column(0x01)
    1189                      .dwendentry
    1190                      .dwendtag $C$DW$83
    1191              
    1192 00000097               .sect   ".text"
    1193                      .clink
    1194                      .global _PWM_setSocAPeriod
    1195              
    1196              $C$DW$90        .dwtag  DW_TAG_subprogram
    1197                      .dwattr $C$DW$90, DW_AT_name("PWM_setSocAPeriod")
    1198                      .dwattr $C$DW$90, DW_AT_low_pc(_PWM_setSocAPeriod)
    1199                      .dwattr $C$DW$90, DW_AT_high_pc(0x00)
    1200                      .dwattr $C$DW$90, DW_AT_TI_symbol_name("_PWM_setSocAPeriod")
    1201                      .dwattr $C$DW$90, DW_AT_external
    1202                      .dwattr $C$DW$90, DW_AT_TI_begin_file("D:/ti/motorware/motorware_1_01_00_18/sw/drivers/pwm/src/32b/f2
    1203                      .dwattr $C$DW$90, DW_AT_TI_begin_line(0x535)
    1204                      .dwattr $C$DW$90, DW_AT_TI_begin_column(0x06)
    1205                      .dwattr $C$DW$90, DW_AT_TI_max_frame_size(-2)
    1206                      .dwpsn  file "D:/ti/motorware/motorware_1_01_00_18/sw/drivers/pwm/src/32b/f28x/f2802x/pwm.c",line 133
    1207              
    1208                      .dwfde $C$DW$CIE, _PWM_setSocAPeriod
    1209              $C$DW$91        .dwtag  DW_TAG_formal_parameter
    1210                      .dwattr $C$DW$91, DW_AT_name("pwmHandle")
    1211                      .dwattr $C$DW$91, DW_AT_TI_symbol_name("_pwmHandle")
    1212                      .dwattr $C$DW$91, DW_AT_type(*$C$DW$T$33)
    1213                      .dwattr $C$DW$91, DW_AT_location[DW_OP_reg12]
    1214              
    1215              $C$DW$92        .dwtag  DW_TAG_formal_parameter
    1216                      .dwattr $C$DW$92, DW_AT_name("intPeriod")
    1217                      .dwattr $C$DW$92, DW_AT_TI_symbol_name("_intPeriod")
    1218                      .dwattr $C$DW$92, DW_AT_type(*$C$DW$T$109)
    1219                      .dwattr $C$DW$92, DW_AT_location[DW_OP_reg0]
    1220              
    1221              
    1222              ;***************************************************************
    1223              ;* FNAME: _PWM_setSocAPeriod            FR SIZE:   0           *
    1224              ;*                                                             *
    1225              ;* FUNCTION ENVIRONMENT                                        *
    1226              ;*                                                             *
    1227              ;* FUNCTION PROPERTIES                                         *
    1228              ;*                            0 Parameter,  0 Auto,  0 SOE     *
    1229              ;***************************************************************
    1230              
    1231              _PWM_setSocAPeriod:
    1232              ;* AR4   assigned to _pwmHandle
    1233              $C$DW$93        .dwtag  DW_TAG_variable
    1234                      .dwattr $C$DW$93, DW_AT_name("pwmHandle")
    1235                      .dwattr $C$DW$93, DW_AT_TI_symbol_name("_pwmHandle")
    1236                      .dwattr $C$DW$93, DW_AT_type(*$C$DW$T$127)
    1237                      .dwattr $C$DW$93, DW_AT_location[DW_OP_reg12]
    1238              
    1239              ;* AL    assigned to _intPeriod
TMS320C2000 Assembler PC v18.1.2 Sun Jun 17 14:52:33 2018

Tools Copyright (c) 1996-2017 Texas Instruments Incorporated
C:\Users\haowp\AppData\Local\Temp\{2610D5B4-5CBC-4747-A1C3-229C8FD63D4F} PAGE   24

    1240              $C$DW$94        .dwtag  DW_TAG_variable
    1241                      .dwattr $C$DW$94, DW_AT_name("intPeriod")
    1242                      .dwattr $C$DW$94, DW_AT_TI_symbol_name("_intPeriod")
    1243                      .dwattr $C$DW$94, DW_AT_type(*$C$DW$T$110)
    1244                      .dwattr $C$DW$94, DW_AT_location[DW_OP_reg0]
    1245              
    1246                      .dwcfi  cfa_offset, -2
    1247                      .dwcfi  save_reg_to_mem, 26, 0
    1248                      .dwpsn  file "D:/ti/motorware/motorware_1_01_00_18/sw/drivers/pwm/src/32b/f28x/f2802x/pwm.c",line 133
    1249 00000097 83A4          MOVL      XAR5,XAR4             ; [CPU_ALU] |1339| 
    1250                      .dwpsn  file "D:/ti/motorware/motorware_1_01_00_18/sw/drivers/pwm/src/32b/f28x/f2802x/pwm.c",line 134
    1251 00000098 5603          MOV       ACC,AL << #8          ; [CPU_ALU] |1342| 
         00000099 08A9 
    1252                      .dwpsn  file "D:/ti/motorware/motorware_1_01_00_18/sw/drivers/pwm/src/32b/f28x/f2802x/pwm.c",line 133
    1253 0000009a DD1A          ADDB      XAR5,#26              ; [CPU_ALU] |1339| 
    1254 0000009b 18C5          AND       *+XAR5[0],#0xfcff     ; [CPU_ALU] |1339| 
         0000009c FCFF 
    1255                      .dwpsn  file "D:/ti/motorware/motorware_1_01_00_18/sw/drivers/pwm/src/32b/f28x/f2802x/pwm.c",line 134
    1256 0000009d DC1A          ADDB      XAR4,#26              ; [CPU_ALU] |1342| 
    1257 0000009e 98C4          OR        *+XAR4[0],AL          ; [CPU_ALU] |1342| 
    1258              $C$DW$95        .dwtag  DW_TAG_TI_branch
    1259                      .dwattr $C$DW$95, DW_AT_low_pc(0x00)
    1260                      .dwattr $C$DW$95, DW_AT_TI_return
    1261              
    1262 0000009f 0006          LRETR     ; [CPU_ALU] 
    1263                      ; return occurs ; [] 
    1264                      .dwattr $C$DW$90, DW_AT_TI_end_file("D:/ti/motorware/motorware_1_01_00_18/sw/drivers/pwm/src/32b/f28x
    1265                      .dwattr $C$DW$90, DW_AT_TI_end_line(0x541)
    1266                      .dwattr $C$DW$90, DW_AT_TI_end_column(0x01)
    1267                      .dwendentry
    1268                      .dwendtag $C$DW$90
    1269              
    1270 000000a0               .sect   ".text"
    1271                      .clink
    1272                      .global _PWM_setShadowMode_CmpB
    1273              
    1274              $C$DW$96        .dwtag  DW_TAG_subprogram
    1275                      .dwattr $C$DW$96, DW_AT_name("PWM_setShadowMode_CmpB")
    1276                      .dwattr $C$DW$96, DW_AT_low_pc(_PWM_setShadowMode_CmpB)
    1277                      .dwattr $C$DW$96, DW_AT_high_pc(0x00)
    1278                      .dwattr $C$DW$96, DW_AT_TI_symbol_name("_PWM_setShadowMode_CmpB")
    1279                      .dwattr $C$DW$96, DW_AT_external
    1280                      .dwattr $C$DW$96, DW_AT_TI_begin_file("D:/ti/motorware/motorware_1_01_00_18/sw/drivers/pwm/src/32b/f2
    1281                      .dwattr $C$DW$96, DW_AT_TI_begin_line(0x581)
    1282                      .dwattr $C$DW$96, DW_AT_TI_begin_column(0x06)
    1283                      .dwattr $C$DW$96, DW_AT_TI_max_frame_size(-2)
    1284                      .dwpsn  file "D:/ti/motorware/motorware_1_01_00_18/sw/drivers/pwm/src/32b/f28x/f2802x/pwm.c",line 141
    1285              
    1286                      .dwfde $C$DW$CIE, _PWM_setShadowMode_CmpB
    1287              $C$DW$97        .dwtag  DW_TAG_formal_parameter
    1288                      .dwattr $C$DW$97, DW_AT_name("pwmHandle")
    1289                      .dwattr $C$DW$97, DW_AT_TI_symbol_name("_pwmHandle")
    1290                      .dwattr $C$DW$97, DW_AT_type(*$C$DW$T$33)
    1291                      .dwattr $C$DW$97, DW_AT_location[DW_OP_reg12]
    1292              
TMS320C2000 Assembler PC v18.1.2 Sun Jun 17 14:52:33 2018

Tools Copyright (c) 1996-2017 Texas Instruments Incorporated
C:\Users\haowp\AppData\Local\Temp\{2610D5B4-5CBC-4747-A1C3-229C8FD63D4F} PAGE   25

    1293              $C$DW$98        .dwtag  DW_TAG_formal_parameter
    1294                      .dwattr $C$DW$98, DW_AT_name("shadowMode")
    1295                      .dwattr $C$DW$98, DW_AT_TI_symbol_name("_shadowMode")
    1296                      .dwattr $C$DW$98, DW_AT_type(*$C$DW$T$115)
    1297                      .dwattr $C$DW$98, DW_AT_location[DW_OP_reg0]
    1298              
    1299              
    1300              ;***************************************************************
    1301              ;* FNAME: _PWM_setShadowMode_CmpB       FR SIZE:   0           *
    1302              ;*                                                             *
    1303              ;* FUNCTION ENVIRONMENT                                        *
    1304              ;*                                                             *
    1305              ;* FUNCTION PROPERTIES                                         *
    1306              ;*                            0 Parameter,  0 Auto,  0 SOE     *
    1307              ;***************************************************************
    1308              
    1309              _PWM_setShadowMode_CmpB:
    1310              ;* AR4   assigned to _pwmHandle
    1311              $C$DW$99        .dwtag  DW_TAG_variable
    1312                      .dwattr $C$DW$99, DW_AT_name("pwmHandle")
    1313                      .dwattr $C$DW$99, DW_AT_TI_symbol_name("_pwmHandle")
    1314                      .dwattr $C$DW$99, DW_AT_type(*$C$DW$T$127)
    1315                      .dwattr $C$DW$99, DW_AT_location[DW_OP_reg12]
    1316              
    1317              ;* AL    assigned to _shadowMode
    1318              $C$DW$100       .dwtag  DW_TAG_variable
    1319                      .dwattr $C$DW$100, DW_AT_name("shadowMode")
    1320                      .dwattr $C$DW$100, DW_AT_TI_symbol_name("_shadowMode")
    1321                      .dwattr $C$DW$100, DW_AT_type(*$C$DW$T$116)
    1322                      .dwattr $C$DW$100, DW_AT_location[DW_OP_reg0]
    1323              
    1324                      .dwcfi  cfa_offset, -2
    1325                      .dwcfi  save_reg_to_mem, 26, 0
    1326                      .dwpsn  file "D:/ti/motorware/motorware_1_01_00_18/sw/drivers/pwm/src/32b/f28x/f2802x/pwm.c",line 141
    1327 000000a0 18FC          AND       *+XAR4[7],#0xffbf     ; [CPU_ALU] |1415| 
         000000a1 FFBF 
    1328                      .dwpsn  file "D:/ti/motorware/motorware_1_01_00_18/sw/drivers/pwm/src/32b/f28x/f2802x/pwm.c",line 141
    1329 000000a2 5603          MOV       ACC,AL << #6          ; [CPU_ALU] |1418| 
         000000a3 06A9 
    1330 000000a4 98FC          OR        *+XAR4[7],AL          ; [CPU_ALU] |1418| 
    1331              $C$DW$101       .dwtag  DW_TAG_TI_branch
    1332                      .dwattr $C$DW$101, DW_AT_low_pc(0x00)
    1333                      .dwattr $C$DW$101, DW_AT_TI_return
    1334              
    1335 000000a5 0006          LRETR     ; [CPU_ALU] 
    1336                      ; return occurs ; [] 
    1337                      .dwattr $C$DW$96, DW_AT_TI_end_file("D:/ti/motorware/motorware_1_01_00_18/sw/drivers/pwm/src/32b/f28x
    1338                      .dwattr $C$DW$96, DW_AT_TI_end_line(0x58d)
    1339                      .dwattr $C$DW$96, DW_AT_TI_end_column(0x01)
    1340                      .dwendentry
    1341                      .dwendtag $C$DW$96
    1342              
    1343 000000a6               .sect   ".text"
    1344                      .clink
    1345                      .global _PWM_setShadowMode_CmpA
TMS320C2000 Assembler PC v18.1.2 Sun Jun 17 14:52:33 2018

Tools Copyright (c) 1996-2017 Texas Instruments Incorporated
C:\Users\haowp\AppData\Local\Temp\{2610D5B4-5CBC-4747-A1C3-229C8FD63D4F} PAGE   26

    1346              
    1347              $C$DW$102       .dwtag  DW_TAG_subprogram
    1348                      .dwattr $C$DW$102, DW_AT_name("PWM_setShadowMode_CmpA")
    1349                      .dwattr $C$DW$102, DW_AT_low_pc(_PWM_setShadowMode_CmpA)
    1350                      .dwattr $C$DW$102, DW_AT_high_pc(0x00)
    1351                      .dwattr $C$DW$102, DW_AT_TI_symbol_name("_PWM_setShadowMode_CmpA")
    1352                      .dwattr $C$DW$102, DW_AT_external
    1353                      .dwattr $C$DW$102, DW_AT_TI_begin_file("D:/ti/motorware/motorware_1_01_00_18/sw/drivers/pwm/src/32b/f
    1354                      .dwattr $C$DW$102, DW_AT_TI_begin_line(0x572)
    1355                      .dwattr $C$DW$102, DW_AT_TI_begin_column(0x06)
    1356                      .dwattr $C$DW$102, DW_AT_TI_max_frame_size(-2)
    1357                      .dwpsn  file "D:/ti/motorware/motorware_1_01_00_18/sw/drivers/pwm/src/32b/f28x/f2802x/pwm.c",line 139
    1358              
    1359                      .dwfde $C$DW$CIE, _PWM_setShadowMode_CmpA
    1360              $C$DW$103       .dwtag  DW_TAG_formal_parameter
    1361                      .dwattr $C$DW$103, DW_AT_name("pwmHandle")
    1362                      .dwattr $C$DW$103, DW_AT_TI_symbol_name("_pwmHandle")
    1363                      .dwattr $C$DW$103, DW_AT_type(*$C$DW$T$33)
    1364                      .dwattr $C$DW$103, DW_AT_location[DW_OP_reg12]
    1365              
    1366              $C$DW$104       .dwtag  DW_TAG_formal_parameter
    1367                      .dwattr $C$DW$104, DW_AT_name("shadowMode")
    1368                      .dwattr $C$DW$104, DW_AT_TI_symbol_name("_shadowMode")
    1369                      .dwattr $C$DW$104, DW_AT_type(*$C$DW$T$115)
    1370                      .dwattr $C$DW$104, DW_AT_location[DW_OP_reg0]
    1371              
    1372              
    1373              ;***************************************************************
    1374              ;* FNAME: _PWM_setShadowMode_CmpA       FR SIZE:   0           *
    1375              ;*                                                             *
    1376              ;* FUNCTION ENVIRONMENT                                        *
    1377              ;*                                                             *
    1378              ;* FUNCTION PROPERTIES                                         *
    1379              ;*                            0 Parameter,  0 Auto,  0 SOE     *
    1380              ;***************************************************************
    1381              
    1382              _PWM_setShadowMode_CmpA:
    1383              ;* AR4   assigned to _pwmHandle
    1384              $C$DW$105       .dwtag  DW_TAG_variable
    1385                      .dwattr $C$DW$105, DW_AT_name("pwmHandle")
    1386                      .dwattr $C$DW$105, DW_AT_TI_symbol_name("_pwmHandle")
    1387                      .dwattr $C$DW$105, DW_AT_type(*$C$DW$T$127)
    1388                      .dwattr $C$DW$105, DW_AT_location[DW_OP_reg12]
    1389              
    1390              ;* AL    assigned to _shadowMode
    1391              $C$DW$106       .dwtag  DW_TAG_variable
    1392                      .dwattr $C$DW$106, DW_AT_name("shadowMode")
    1393                      .dwattr $C$DW$106, DW_AT_TI_symbol_name("_shadowMode")
    1394                      .dwattr $C$DW$106, DW_AT_type(*$C$DW$T$116)
    1395                      .dwattr $C$DW$106, DW_AT_location[DW_OP_reg0]
    1396              
    1397                      .dwcfi  cfa_offset, -2
    1398                      .dwcfi  save_reg_to_mem, 26, 0
    1399                      .dwpsn  file "D:/ti/motorware/motorware_1_01_00_18/sw/drivers/pwm/src/32b/f28x/f2802x/pwm.c",line 140
    1400 000000a6 18FC          AND       *+XAR4[7],#0xffef     ; [CPU_ALU] |1400| 
TMS320C2000 Assembler PC v18.1.2 Sun Jun 17 14:52:33 2018

Tools Copyright (c) 1996-2017 Texas Instruments Incorporated
C:\Users\haowp\AppData\Local\Temp\{2610D5B4-5CBC-4747-A1C3-229C8FD63D4F} PAGE   27

         000000a7 FFEF 
    1401                      .dwpsn  file "D:/ti/motorware/motorware_1_01_00_18/sw/drivers/pwm/src/32b/f28x/f2802x/pwm.c",line 140
    1402 000000a8 5603          MOV       ACC,AL << #4          ; [CPU_ALU] |1403| 
         000000a9 04A9 
    1403 000000aa 98FC          OR        *+XAR4[7],AL          ; [CPU_ALU] |1403| 
    1404              $C$DW$107       .dwtag  DW_TAG_TI_branch
    1405                      .dwattr $C$DW$107, DW_AT_low_pc(0x00)
    1406                      .dwattr $C$DW$107, DW_AT_TI_return
    1407              
    1408 000000ab 0006          LRETR     ; [CPU_ALU] 
    1409                      ; return occurs ; [] 
    1410                      .dwattr $C$DW$102, DW_AT_TI_end_file("D:/ti/motorware/motorware_1_01_00_18/sw/drivers/pwm/src/32b/f28
    1411                      .dwattr $C$DW$102, DW_AT_TI_end_line(0x57e)
    1412                      .dwattr $C$DW$102, DW_AT_TI_end_column(0x01)
    1413                      .dwendentry
    1414                      .dwendtag $C$DW$102
    1415              
    1416 000000ac               .sect   ".text"
    1417                      .clink
    1418                      .global _PWM_setRunMode
    1419              
    1420              $C$DW$108       .dwtag  DW_TAG_subprogram
    1421                      .dwattr $C$DW$108, DW_AT_name("PWM_setRunMode")
    1422                      .dwattr $C$DW$108, DW_AT_low_pc(_PWM_setRunMode)
    1423                      .dwattr $C$DW$108, DW_AT_high_pc(0x00)
    1424                      .dwattr $C$DW$108, DW_AT_TI_symbol_name("_PWM_setRunMode")
    1425                      .dwattr $C$DW$108, DW_AT_external
    1426                      .dwattr $C$DW$108, DW_AT_TI_begin_file("D:/ti/motorware/motorware_1_01_00_18/sw/drivers/pwm/src/32b/f
    1427                      .dwattr $C$DW$108, DW_AT_TI_begin_line(0x526)
    1428                      .dwattr $C$DW$108, DW_AT_TI_begin_column(0x06)
    1429                      .dwattr $C$DW$108, DW_AT_TI_max_frame_size(-2)
    1430                      .dwpsn  file "D:/ti/motorware/motorware_1_01_00_18/sw/drivers/pwm/src/32b/f28x/f2802x/pwm.c",line 131
    1431              
    1432                      .dwfde $C$DW$CIE, _PWM_setRunMode
    1433              $C$DW$109       .dwtag  DW_TAG_formal_parameter
    1434                      .dwattr $C$DW$109, DW_AT_name("pwmHandle")
    1435                      .dwattr $C$DW$109, DW_AT_TI_symbol_name("_pwmHandle")
    1436                      .dwattr $C$DW$109, DW_AT_type(*$C$DW$T$33)
    1437                      .dwattr $C$DW$109, DW_AT_location[DW_OP_reg12]
    1438              
    1439              $C$DW$110       .dwtag  DW_TAG_formal_parameter
    1440                      .dwattr $C$DW$110, DW_AT_name("runMode")
    1441                      .dwattr $C$DW$110, DW_AT_TI_symbol_name("_runMode")
    1442                      .dwattr $C$DW$110, DW_AT_type(*$C$DW$T$106)
    1443                      .dwattr $C$DW$110, DW_AT_location[DW_OP_reg0]
    1444              
    1445              
    1446              ;***************************************************************
    1447              ;* FNAME: _PWM_setRunMode               FR SIZE:   0           *
    1448              ;*                                                             *
    1449              ;* FUNCTION ENVIRONMENT                                        *
    1450              ;*                                                             *
    1451              ;* FUNCTION PROPERTIES                                         *
    1452              ;*                            0 Parameter,  0 Auto,  0 SOE     *
    1453              ;***************************************************************
TMS320C2000 Assembler PC v18.1.2 Sun Jun 17 14:52:33 2018

Tools Copyright (c) 1996-2017 Texas Instruments Incorporated
C:\Users\haowp\AppData\Local\Temp\{2610D5B4-5CBC-4747-A1C3-229C8FD63D4F} PAGE   28

    1454              
    1455              _PWM_setRunMode:
    1456              ;* AR4   assigned to _pwmHandle
    1457              $C$DW$111       .dwtag  DW_TAG_variable
    1458                      .dwattr $C$DW$111, DW_AT_name("pwmHandle")
    1459                      .dwattr $C$DW$111, DW_AT_TI_symbol_name("_pwmHandle")
    1460                      .dwattr $C$DW$111, DW_AT_type(*$C$DW$T$127)
    1461                      .dwattr $C$DW$111, DW_AT_location[DW_OP_reg12]
    1462              
    1463              ;* AL    assigned to _runMode
    1464              $C$DW$112       .dwtag  DW_TAG_variable
    1465                      .dwattr $C$DW$112, DW_AT_name("runMode")
    1466                      .dwattr $C$DW$112, DW_AT_TI_symbol_name("_runMode")
    1467                      .dwattr $C$DW$112, DW_AT_type(*$C$DW$T$107)
    1468                      .dwattr $C$DW$112, DW_AT_location[DW_OP_reg0]
    1469              
    1470                      .dwcfi  cfa_offset, -2
    1471                      .dwcfi  save_reg_to_mem, 26, 0
    1472                      .dwpsn  file "D:/ti/motorware/motorware_1_01_00_18/sw/drivers/pwm/src/32b/f28x/f2802x/pwm.c",line 132
    1473 000000ac 18C4          AND       *+XAR4[0],#0x3fff     ; [CPU_ALU] |1324| 
         000000ad 3FFF 
    1474                      .dwpsn  file "D:/ti/motorware/motorware_1_01_00_18/sw/drivers/pwm/src/32b/f28x/f2802x/pwm.c",line 132
    1475 000000ae 98C4          OR        *+XAR4[0],AL          ; [CPU_ALU] |1327| 
    1476              $C$DW$113       .dwtag  DW_TAG_TI_branch
    1477                      .dwattr $C$DW$113, DW_AT_low_pc(0x00)
    1478                      .dwattr $C$DW$113, DW_AT_TI_return
    1479              
    1480 000000af 0006          LRETR     ; [CPU_ALU] 
    1481                      ; return occurs ; [] 
    1482                      .dwattr $C$DW$108, DW_AT_TI_end_file("D:/ti/motorware/motorware_1_01_00_18/sw/drivers/pwm/src/32b/f28
    1483                      .dwattr $C$DW$108, DW_AT_TI_end_line(0x532)
    1484                      .dwattr $C$DW$108, DW_AT_TI_end_column(0x01)
    1485                      .dwendentry
    1486                      .dwendtag $C$DW$108
    1487              
    1488 000000b0               .sect   ".text"
    1489                      .clink
    1490                      .global _PWM_setPhaseDir
    1491              
    1492              $C$DW$114       .dwtag  DW_TAG_subprogram
    1493                      .dwattr $C$DW$114, DW_AT_name("PWM_setPhaseDir")
    1494                      .dwattr $C$DW$114, DW_AT_low_pc(_PWM_setPhaseDir)
    1495                      .dwattr $C$DW$114, DW_AT_high_pc(0x00)
    1496                      .dwattr $C$DW$114, DW_AT_TI_symbol_name("_PWM_setPhaseDir")
    1497                      .dwattr $C$DW$114, DW_AT_external
    1498                      .dwattr $C$DW$114, DW_AT_TI_begin_file("D:/ti/motorware/motorware_1_01_00_18/sw/drivers/pwm/src/32b/f
    1499                      .dwattr $C$DW$114, DW_AT_TI_begin_line(0x508)
    1500                      .dwattr $C$DW$114, DW_AT_TI_begin_column(0x06)
    1501                      .dwattr $C$DW$114, DW_AT_TI_max_frame_size(-2)
    1502                      .dwpsn  file "D:/ti/motorware/motorware_1_01_00_18/sw/drivers/pwm/src/32b/f28x/f2802x/pwm.c",line 128
    1503              
    1504                      .dwfde $C$DW$CIE, _PWM_setPhaseDir
    1505              $C$DW$115       .dwtag  DW_TAG_formal_parameter
    1506                      .dwattr $C$DW$115, DW_AT_name("pwmHandle")
    1507                      .dwattr $C$DW$115, DW_AT_TI_symbol_name("_pwmHandle")
TMS320C2000 Assembler PC v18.1.2 Sun Jun 17 14:52:33 2018

Tools Copyright (c) 1996-2017 Texas Instruments Incorporated
C:\Users\haowp\AppData\Local\Temp\{2610D5B4-5CBC-4747-A1C3-229C8FD63D4F} PAGE   29

    1508                      .dwattr $C$DW$115, DW_AT_type(*$C$DW$T$33)
    1509                      .dwattr $C$DW$115, DW_AT_location[DW_OP_reg12]
    1510              
    1511              $C$DW$116       .dwtag  DW_TAG_formal_parameter
    1512                      .dwattr $C$DW$116, DW_AT_name("phaseDir")
    1513                      .dwattr $C$DW$116, DW_AT_TI_symbol_name("_phaseDir")
    1514                      .dwattr $C$DW$116, DW_AT_type(*$C$DW$T$100)
    1515                      .dwattr $C$DW$116, DW_AT_location[DW_OP_reg0]
    1516              
    1517              
    1518              ;***************************************************************
    1519              ;* FNAME: _PWM_setPhaseDir              FR SIZE:   0           *
    1520              ;*                                                             *
    1521              ;* FUNCTION ENVIRONMENT                                        *
    1522              ;*                                                             *
    1523              ;* FUNCTION PROPERTIES                                         *
    1524              ;*                            0 Parameter,  0 Auto,  0 SOE     *
    1525              ;***************************************************************
    1526              
    1527              _PWM_setPhaseDir:
    1528              ;* AR4   assigned to _pwmHandle
    1529              $C$DW$117       .dwtag  DW_TAG_variable
    1530                      .dwattr $C$DW$117, DW_AT_name("pwmHandle")
    1531                      .dwattr $C$DW$117, DW_AT_TI_symbol_name("_pwmHandle")
    1532                      .dwattr $C$DW$117, DW_AT_type(*$C$DW$T$127)
    1533                      .dwattr $C$DW$117, DW_AT_location[DW_OP_reg12]
    1534              
    1535              ;* AL    assigned to _phaseDir
    1536              $C$DW$118       .dwtag  DW_TAG_variable
    1537                      .dwattr $C$DW$118, DW_AT_name("phaseDir")
    1538                      .dwattr $C$DW$118, DW_AT_TI_symbol_name("_phaseDir")
    1539                      .dwattr $C$DW$118, DW_AT_type(*$C$DW$T$101)
    1540                      .dwattr $C$DW$118, DW_AT_location[DW_OP_reg0]
    1541              
    1542                      .dwcfi  cfa_offset, -2
    1543                      .dwcfi  save_reg_to_mem, 26, 0
    1544                      .dwpsn  file "D:/ti/motorware/motorware_1_01_00_18/sw/drivers/pwm/src/32b/f28x/f2802x/pwm.c",line 129
    1545 000000b0 18C4          AND       *+XAR4[0],#0xdfff     ; [CPU_ALU] |1294| 
         000000b1 DFFF 
    1546                      .dwpsn  file "D:/ti/motorware/motorware_1_01_00_18/sw/drivers/pwm/src/32b/f28x/f2802x/pwm.c",line 129
    1547 000000b2 98C4          OR        *+XAR4[0],AL          ; [CPU_ALU] |1297| 
    1548              $C$DW$119       .dwtag  DW_TAG_TI_branch
    1549                      .dwattr $C$DW$119, DW_AT_low_pc(0x00)
    1550                      .dwattr $C$DW$119, DW_AT_TI_return
    1551              
    1552 000000b3 0006          LRETR     ; [CPU_ALU] 
    1553                      ; return occurs ; [] 
    1554                      .dwattr $C$DW$114, DW_AT_TI_end_file("D:/ti/motorware/motorware_1_01_00_18/sw/drivers/pwm/src/32b/f28
    1555                      .dwattr $C$DW$114, DW_AT_TI_end_line(0x514)
    1556                      .dwattr $C$DW$114, DW_AT_TI_end_column(0x01)
    1557                      .dwendentry
    1558                      .dwendtag $C$DW$114
    1559              
    1560 000000b4               .sect   ".text"
    1561                      .clink
TMS320C2000 Assembler PC v18.1.2 Sun Jun 17 14:52:33 2018

Tools Copyright (c) 1996-2017 Texas Instruments Incorporated
C:\Users\haowp\AppData\Local\Temp\{2610D5B4-5CBC-4747-A1C3-229C8FD63D4F} PAGE   30

    1562                      .global _PWM_setPhase
    1563              
    1564              $C$DW$120       .dwtag  DW_TAG_subprogram
    1565                      .dwattr $C$DW$120, DW_AT_name("PWM_setPhase")
    1566                      .dwattr $C$DW$120, DW_AT_low_pc(_PWM_setPhase)
    1567                      .dwattr $C$DW$120, DW_AT_high_pc(0x00)
    1568                      .dwattr $C$DW$120, DW_AT_TI_symbol_name("_PWM_setPhase")
    1569                      .dwattr $C$DW$120, DW_AT_external
    1570                      .dwattr $C$DW$120, DW_AT_TI_begin_file("D:/ti/motorware/motorware_1_01_00_18/sw/drivers/pwm/src/32b/f
    1571                      .dwattr $C$DW$120, DW_AT_TI_begin_line(0x4fd)
    1572                      .dwattr $C$DW$120, DW_AT_TI_begin_column(0x06)
    1573                      .dwattr $C$DW$120, DW_AT_TI_max_frame_size(-2)
    1574                      .dwpsn  file "D:/ti/motorware/motorware_1_01_00_18/sw/drivers/pwm/src/32b/f28x/f2802x/pwm.c",line 127
    1575              
    1576                      .dwfde $C$DW$CIE, _PWM_setPhase
    1577              $C$DW$121       .dwtag  DW_TAG_formal_parameter
    1578                      .dwattr $C$DW$121, DW_AT_name("pwmHandle")
    1579                      .dwattr $C$DW$121, DW_AT_TI_symbol_name("_pwmHandle")
    1580                      .dwattr $C$DW$121, DW_AT_type(*$C$DW$T$33)
    1581                      .dwattr $C$DW$121, DW_AT_location[DW_OP_reg12]
    1582              
    1583              $C$DW$122       .dwtag  DW_TAG_formal_parameter
    1584                      .dwattr $C$DW$122, DW_AT_name("phase")
    1585                      .dwattr $C$DW$122, DW_AT_TI_symbol_name("_phase")
    1586                      .dwattr $C$DW$122, DW_AT_type(*$C$DW$T$19)
    1587                      .dwattr $C$DW$122, DW_AT_location[DW_OP_reg0]
    1588              
    1589              
    1590              ;***************************************************************
    1591              ;* FNAME: _PWM_setPhase                 FR SIZE:   0           *
    1592              ;*                                                             *
    1593              ;* FUNCTION ENVIRONMENT                                        *
    1594              ;*                                                             *
    1595              ;* FUNCTION PROPERTIES                                         *
    1596              ;*                            0 Parameter,  0 Auto,  0 SOE     *
    1597              ;***************************************************************
    1598              
    1599              _PWM_setPhase:
    1600              ;* AR4   assigned to _pwmHandle
    1601              $C$DW$123       .dwtag  DW_TAG_variable
    1602                      .dwattr $C$DW$123, DW_AT_name("pwmHandle")
    1603                      .dwattr $C$DW$123, DW_AT_TI_symbol_name("_pwmHandle")
    1604                      .dwattr $C$DW$123, DW_AT_type(*$C$DW$T$127)
    1605                      .dwattr $C$DW$123, DW_AT_location[DW_OP_reg12]
    1606              
    1607              ;* AL    assigned to _phase
    1608              $C$DW$124       .dwtag  DW_TAG_variable
    1609                      .dwattr $C$DW$124, DW_AT_name("phase")
    1610                      .dwattr $C$DW$124, DW_AT_TI_symbol_name("_phase")
    1611                      .dwattr $C$DW$124, DW_AT_type(*$C$DW$T$146)
    1612                      .dwattr $C$DW$124, DW_AT_location[DW_OP_reg0]
    1613              
    1614                      .dwcfi  cfa_offset, -2
    1615                      .dwcfi  save_reg_to_mem, 26, 0
    1616                      .dwpsn  file "D:/ti/motorware/motorware_1_01_00_18/sw/drivers/pwm/src/32b/f28x/f2802x/pwm.c",line 128
TMS320C2000 Assembler PC v18.1.2 Sun Jun 17 14:52:33 2018

Tools Copyright (c) 1996-2017 Texas Instruments Incorporated
C:\Users\haowp\AppData\Local\Temp\{2610D5B4-5CBC-4747-A1C3-229C8FD63D4F} PAGE   31

    1617 000000b4 96DC          MOV       *+XAR4[3],AL          ; [CPU_ALU] |1282| 
    1618              $C$DW$125       .dwtag  DW_TAG_TI_branch
    1619                      .dwattr $C$DW$125, DW_AT_low_pc(0x00)
    1620                      .dwattr $C$DW$125, DW_AT_TI_return
    1621              
    1622 000000b5 0006          LRETR     ; [CPU_ALU] 
    1623                      ; return occurs ; [] 
    1624                      .dwattr $C$DW$120, DW_AT_TI_end_file("D:/ti/motorware/motorware_1_01_00_18/sw/drivers/pwm/src/32b/f28
    1625                      .dwattr $C$DW$120, DW_AT_TI_end_line(0x505)
    1626                      .dwattr $C$DW$120, DW_AT_TI_end_column(0x01)
    1627                      .dwendentry
    1628                      .dwendtag $C$DW$120
    1629              
    1630 000000b6               .sect   ".text"
    1631                      .clink
    1632                      .global _PWM_setPeriodLoad
    1633              
    1634              $C$DW$126       .dwtag  DW_TAG_subprogram
    1635                      .dwattr $C$DW$126, DW_AT_name("PWM_setPeriodLoad")
    1636                      .dwattr $C$DW$126, DW_AT_low_pc(_PWM_setPeriodLoad)
    1637                      .dwattr $C$DW$126, DW_AT_high_pc(0x00)
    1638                      .dwattr $C$DW$126, DW_AT_TI_symbol_name("_PWM_setPeriodLoad")
    1639                      .dwattr $C$DW$126, DW_AT_external
    1640                      .dwattr $C$DW$126, DW_AT_TI_begin_file("D:/ti/motorware/motorware_1_01_00_18/sw/drivers/pwm/src/32b/f
    1641                      .dwattr $C$DW$126, DW_AT_TI_begin_line(0x517)
    1642                      .dwattr $C$DW$126, DW_AT_TI_begin_column(0x06)
    1643                      .dwattr $C$DW$126, DW_AT_TI_max_frame_size(-2)
    1644                      .dwpsn  file "D:/ti/motorware/motorware_1_01_00_18/sw/drivers/pwm/src/32b/f28x/f2802x/pwm.c",line 130
    1645              
    1646                      .dwfde $C$DW$CIE, _PWM_setPeriodLoad
    1647              $C$DW$127       .dwtag  DW_TAG_formal_parameter
    1648                      .dwattr $C$DW$127, DW_AT_name("pwmHandle")
    1649                      .dwattr $C$DW$127, DW_AT_TI_symbol_name("_pwmHandle")
    1650                      .dwattr $C$DW$127, DW_AT_type(*$C$DW$T$33)
    1651                      .dwattr $C$DW$127, DW_AT_location[DW_OP_reg12]
    1652              
    1653              $C$DW$128       .dwtag  DW_TAG_formal_parameter
    1654                      .dwattr $C$DW$128, DW_AT_name("periodLoad")
    1655                      .dwattr $C$DW$128, DW_AT_TI_symbol_name("_periodLoad")
    1656                      .dwattr $C$DW$128, DW_AT_type(*$C$DW$T$103)
    1657                      .dwattr $C$DW$128, DW_AT_location[DW_OP_reg0]
    1658              
    1659              
    1660              ;***************************************************************
    1661              ;* FNAME: _PWM_setPeriodLoad            FR SIZE:   0           *
    1662              ;*                                                             *
    1663              ;* FUNCTION ENVIRONMENT                                        *
    1664              ;*                                                             *
    1665              ;* FUNCTION PROPERTIES                                         *
    1666              ;*                            0 Parameter,  0 Auto,  0 SOE     *
    1667              ;***************************************************************
    1668              
    1669              _PWM_setPeriodLoad:
    1670              ;* AR4   assigned to _pwmHandle
    1671              $C$DW$129       .dwtag  DW_TAG_variable
TMS320C2000 Assembler PC v18.1.2 Sun Jun 17 14:52:33 2018

Tools Copyright (c) 1996-2017 Texas Instruments Incorporated
C:\Users\haowp\AppData\Local\Temp\{2610D5B4-5CBC-4747-A1C3-229C8FD63D4F} PAGE   32

    1672                      .dwattr $C$DW$129, DW_AT_name("pwmHandle")
    1673                      .dwattr $C$DW$129, DW_AT_TI_symbol_name("_pwmHandle")
    1674                      .dwattr $C$DW$129, DW_AT_type(*$C$DW$T$127)
    1675                      .dwattr $C$DW$129, DW_AT_location[DW_OP_reg12]
    1676              
    1677              ;* AL    assigned to _periodLoad
    1678              $C$DW$130       .dwtag  DW_TAG_variable
    1679                      .dwattr $C$DW$130, DW_AT_name("periodLoad")
    1680                      .dwattr $C$DW$130, DW_AT_TI_symbol_name("_periodLoad")
    1681                      .dwattr $C$DW$130, DW_AT_type(*$C$DW$T$104)
    1682                      .dwattr $C$DW$130, DW_AT_location[DW_OP_reg0]
    1683              
    1684                      .dwcfi  cfa_offset, -2
    1685                      .dwcfi  save_reg_to_mem, 26, 0
    1686                      .dwpsn  file "D:/ti/motorware/motorware_1_01_00_18/sw/drivers/pwm/src/32b/f28x/f2802x/pwm.c",line 130
    1687 000000b6 18C4          AND       *+XAR4[0],#0xfff7     ; [CPU_ALU] |1309| 
         000000b7 FFF7 
    1688                      .dwpsn  file "D:/ti/motorware/motorware_1_01_00_18/sw/drivers/pwm/src/32b/f28x/f2802x/pwm.c",line 131
    1689 000000b8 98C4          OR        *+XAR4[0],AL          ; [CPU_ALU] |1312| 
    1690              $C$DW$131       .dwtag  DW_TAG_TI_branch
    1691                      .dwattr $C$DW$131, DW_AT_low_pc(0x00)
    1692                      .dwattr $C$DW$131, DW_AT_TI_return
    1693              
    1694 000000b9 0006          LRETR     ; [CPU_ALU] 
    1695                      ; return occurs ; [] 
    1696                      .dwattr $C$DW$126, DW_AT_TI_end_file("D:/ti/motorware/motorware_1_01_00_18/sw/drivers/pwm/src/32b/f28
    1697                      .dwattr $C$DW$126, DW_AT_TI_end_line(0x523)
    1698                      .dwattr $C$DW$126, DW_AT_TI_end_column(0x01)
    1699                      .dwendentry
    1700                      .dwendtag $C$DW$126
    1701              
    1702 000000ba               .sect   ".text"
    1703                      .clink
    1704                      .global _PWM_setPeriodHr
    1705              
    1706              $C$DW$132       .dwtag  DW_TAG_subprogram
    1707                      .dwattr $C$DW$132, DW_AT_name("PWM_setPeriodHr")
    1708                      .dwattr $C$DW$132, DW_AT_low_pc(_PWM_setPeriodHr)
    1709                      .dwattr $C$DW$132, DW_AT_high_pc(0x00)
    1710                      .dwattr $C$DW$132, DW_AT_TI_symbol_name("_PWM_setPeriodHr")
    1711                      .dwattr $C$DW$132, DW_AT_external
    1712                      .dwattr $C$DW$132, DW_AT_TI_begin_file("D:/ti/motorware/motorware_1_01_00_18/sw/drivers/pwm/src/32b/f
    1713                      .dwattr $C$DW$132, DW_AT_TI_begin_line(0x4ee)
    1714                      .dwattr $C$DW$132, DW_AT_TI_begin_column(0x06)
    1715                      .dwattr $C$DW$132, DW_AT_TI_max_frame_size(-2)
    1716                      .dwpsn  file "D:/ti/motorware/motorware_1_01_00_18/sw/drivers/pwm/src/32b/f28x/f2802x/pwm.c",line 126
    1717              
    1718                      .dwfde $C$DW$CIE, _PWM_setPeriodHr
    1719              $C$DW$133       .dwtag  DW_TAG_formal_parameter
    1720                      .dwattr $C$DW$133, DW_AT_name("pwmHandle")
    1721                      .dwattr $C$DW$133, DW_AT_TI_symbol_name("_pwmHandle")
    1722                      .dwattr $C$DW$133, DW_AT_type(*$C$DW$T$33)
    1723                      .dwattr $C$DW$133, DW_AT_location[DW_OP_reg12]
    1724              
    1725              $C$DW$134       .dwtag  DW_TAG_formal_parameter
TMS320C2000 Assembler PC v18.1.2 Sun Jun 17 14:52:33 2018

Tools Copyright (c) 1996-2017 Texas Instruments Incorporated
C:\Users\haowp\AppData\Local\Temp\{2610D5B4-5CBC-4747-A1C3-229C8FD63D4F} PAGE   33

    1726                      .dwattr $C$DW$134, DW_AT_name("period")
    1727                      .dwattr $C$DW$134, DW_AT_TI_symbol_name("_period")
    1728                      .dwattr $C$DW$134, DW_AT_type(*$C$DW$T$19)
    1729                      .dwattr $C$DW$134, DW_AT_location[DW_OP_reg0]
    1730              
    1731              
    1732              ;***************************************************************
    1733              ;* FNAME: _PWM_setPeriodHr              FR SIZE:   0           *
    1734              ;*                                                             *
    1735              ;* FUNCTION ENVIRONMENT                                        *
    1736              ;*                                                             *
    1737              ;* FUNCTION PROPERTIES                                         *
    1738              ;*                            0 Parameter,  0 Auto,  0 SOE     *
    1739              ;***************************************************************
    1740              
    1741              _PWM_setPeriodHr:
    1742              ;* AR4   assigned to _pwmHandle
    1743              $C$DW$135       .dwtag  DW_TAG_variable
    1744                      .dwattr $C$DW$135, DW_AT_name("pwmHandle")
    1745                      .dwattr $C$DW$135, DW_AT_TI_symbol_name("_pwmHandle")
    1746                      .dwattr $C$DW$135, DW_AT_type(*$C$DW$T$127)
    1747                      .dwattr $C$DW$135, DW_AT_location[DW_OP_reg12]
    1748              
    1749              ;* AL    assigned to _period
    1750              $C$DW$136       .dwtag  DW_TAG_variable
    1751                      .dwattr $C$DW$136, DW_AT_name("period")
    1752                      .dwattr $C$DW$136, DW_AT_TI_symbol_name("_period")
    1753                      .dwattr $C$DW$136, DW_AT_type(*$C$DW$T$146)
    1754                      .dwattr $C$DW$136, DW_AT_location[DW_OP_reg0]
    1755              
    1756                      .dwcfi  cfa_offset, -2
    1757                      .dwcfi  save_reg_to_mem, 26, 0
    1758 000000ba 7622   EALLOW
    1759                      .dwpsn  file "D:/ti/motorware/motorware_1_01_00_18/sw/drivers/pwm/src/32b/f28x/f2802x/pwm.c",line 126
    1760 000000bb 96F4          MOV       *+XAR4[6],AL          ; [CPU_ALU] |1269| 
    1761 000000bc 761A   EDIS
    1762 000000bd FF69          SPM       #0                    ; [CPU_ALU] 
    1763              $C$DW$137       .dwtag  DW_TAG_TI_branch
    1764                      .dwattr $C$DW$137, DW_AT_low_pc(0x00)
    1765                      .dwattr $C$DW$137, DW_AT_TI_return
    1766              
    1767 000000be 0006          LRETR     ; [CPU_ALU] 
    1768                      ; return occurs ; [] 
    1769                      .dwattr $C$DW$132, DW_AT_TI_end_file("D:/ti/motorware/motorware_1_01_00_18/sw/drivers/pwm/src/32b/f28
    1770                      .dwattr $C$DW$132, DW_AT_TI_end_line(0x4fa)
    1771                      .dwattr $C$DW$132, DW_AT_TI_end_column(0x01)
    1772                      .dwendentry
    1773                      .dwendtag $C$DW$132
    1774              
    1775 000000bf               .sect   ".text"
    1776                      .clink
    1777                      .global _PWM_setPeriod
    1778              
    1779              $C$DW$138       .dwtag  DW_TAG_subprogram
    1780                      .dwattr $C$DW$138, DW_AT_name("PWM_setPeriod")
TMS320C2000 Assembler PC v18.1.2 Sun Jun 17 14:52:33 2018

Tools Copyright (c) 1996-2017 Texas Instruments Incorporated
C:\Users\haowp\AppData\Local\Temp\{2610D5B4-5CBC-4747-A1C3-229C8FD63D4F} PAGE   34

    1781                      .dwattr $C$DW$138, DW_AT_low_pc(_PWM_setPeriod)
    1782                      .dwattr $C$DW$138, DW_AT_high_pc(0x00)
    1783                      .dwattr $C$DW$138, DW_AT_TI_symbol_name("_PWM_setPeriod")
    1784                      .dwattr $C$DW$138, DW_AT_external
    1785                      .dwattr $C$DW$138, DW_AT_TI_begin_file("D:/ti/motorware/motorware_1_01_00_18/sw/drivers/pwm/src/32b/f
    1786                      .dwattr $C$DW$138, DW_AT_TI_begin_line(0x4e2)
    1787                      .dwattr $C$DW$138, DW_AT_TI_begin_column(0x06)
    1788                      .dwattr $C$DW$138, DW_AT_TI_max_frame_size(-2)
    1789                      .dwpsn  file "D:/ti/motorware/motorware_1_01_00_18/sw/drivers/pwm/src/32b/f28x/f2802x/pwm.c",line 125
    1790              
    1791                      .dwfde $C$DW$CIE, _PWM_setPeriod
    1792              $C$DW$139       .dwtag  DW_TAG_formal_parameter
    1793                      .dwattr $C$DW$139, DW_AT_name("pwmHandle")
    1794                      .dwattr $C$DW$139, DW_AT_TI_symbol_name("_pwmHandle")
    1795                      .dwattr $C$DW$139, DW_AT_type(*$C$DW$T$33)
    1796                      .dwattr $C$DW$139, DW_AT_location[DW_OP_reg12]
    1797              
    1798              $C$DW$140       .dwtag  DW_TAG_formal_parameter
    1799                      .dwattr $C$DW$140, DW_AT_name("period")
    1800                      .dwattr $C$DW$140, DW_AT_TI_symbol_name("_period")
    1801                      .dwattr $C$DW$140, DW_AT_type(*$C$DW$T$19)
    1802                      .dwattr $C$DW$140, DW_AT_location[DW_OP_reg0]
    1803              
    1804              
    1805              ;***************************************************************
    1806              ;* FNAME: _PWM_setPeriod                FR SIZE:   0           *
    1807              ;*                                                             *
    1808              ;* FUNCTION ENVIRONMENT                                        *
    1809              ;*                                                             *
    1810              ;* FUNCTION PROPERTIES                                         *
    1811              ;*                            0 Parameter,  0 Auto,  0 SOE     *
    1812              ;***************************************************************
    1813              
    1814              _PWM_setPeriod:
    1815              ;* AR4   assigned to _pwmHandle
    1816              $C$DW$141       .dwtag  DW_TAG_variable
    1817                      .dwattr $C$DW$141, DW_AT_name("pwmHandle")
    1818                      .dwattr $C$DW$141, DW_AT_TI_symbol_name("_pwmHandle")
    1819                      .dwattr $C$DW$141, DW_AT_type(*$C$DW$T$127)
    1820                      .dwattr $C$DW$141, DW_AT_location[DW_OP_reg12]
    1821              
    1822              ;* AL    assigned to _period
    1823              $C$DW$142       .dwtag  DW_TAG_variable
    1824                      .dwattr $C$DW$142, DW_AT_name("period")
    1825                      .dwattr $C$DW$142, DW_AT_TI_symbol_name("_period")
    1826                      .dwattr $C$DW$142, DW_AT_type(*$C$DW$T$146)
    1827                      .dwattr $C$DW$142, DW_AT_location[DW_OP_reg0]
    1828              
    1829                      .dwcfi  cfa_offset, -2
    1830                      .dwcfi  save_reg_to_mem, 26, 0
    1831                      .dwpsn  file "D:/ti/motorware/motorware_1_01_00_18/sw/drivers/pwm/src/32b/f28x/f2802x/pwm.c",line 125
    1832 000000bf 96EC          MOV       *+XAR4[5],AL          ; [CPU_ALU] |1256| 
    1833              $C$DW$143       .dwtag  DW_TAG_TI_branch
    1834                      .dwattr $C$DW$143, DW_AT_low_pc(0x00)
    1835                      .dwattr $C$DW$143, DW_AT_TI_return
TMS320C2000 Assembler PC v18.1.2 Sun Jun 17 14:52:33 2018

Tools Copyright (c) 1996-2017 Texas Instruments Incorporated
C:\Users\haowp\AppData\Local\Temp\{2610D5B4-5CBC-4747-A1C3-229C8FD63D4F} PAGE   35

    1836              
    1837 000000c0 0006          LRETR     ; [CPU_ALU] 
    1838                      ; return occurs ; [] 
    1839                      .dwattr $C$DW$138, DW_AT_TI_end_file("D:/ti/motorware/motorware_1_01_00_18/sw/drivers/pwm/src/32b/f28
    1840                      .dwattr $C$DW$138, DW_AT_TI_end_line(0x4eb)
    1841                      .dwattr $C$DW$138, DW_AT_TI_end_column(0x01)
    1842                      .dwendentry
    1843                      .dwendtag $C$DW$138
    1844              
    1845 000000c1               .sect   ".text"
    1846                      .clink
    1847                      .global _PWM_setLoadMode_CmpB
    1848              
    1849              $C$DW$144       .dwtag  DW_TAG_subprogram
    1850                      .dwattr $C$DW$144, DW_AT_name("PWM_setLoadMode_CmpB")
    1851                      .dwattr $C$DW$144, DW_AT_low_pc(_PWM_setLoadMode_CmpB)
    1852                      .dwattr $C$DW$144, DW_AT_high_pc(0x00)
    1853                      .dwattr $C$DW$144, DW_AT_TI_symbol_name("_PWM_setLoadMode_CmpB")
    1854                      .dwattr $C$DW$144, DW_AT_external
    1855                      .dwattr $C$DW$144, DW_AT_TI_begin_file("D:/ti/motorware/motorware_1_01_00_18/sw/drivers/pwm/src/32b/f
    1856                      .dwattr $C$DW$144, DW_AT_TI_begin_line(0x4d3)
    1857                      .dwattr $C$DW$144, DW_AT_TI_begin_column(0x06)
    1858                      .dwattr $C$DW$144, DW_AT_TI_max_frame_size(-2)
    1859                      .dwpsn  file "D:/ti/motorware/motorware_1_01_00_18/sw/drivers/pwm/src/32b/f28x/f2802x/pwm.c",line 123
    1860              
    1861                      .dwfde $C$DW$CIE, _PWM_setLoadMode_CmpB
    1862              $C$DW$145       .dwtag  DW_TAG_formal_parameter
    1863                      .dwattr $C$DW$145, DW_AT_name("pwmHandle")
    1864                      .dwattr $C$DW$145, DW_AT_TI_symbol_name("_pwmHandle")
    1865                      .dwattr $C$DW$145, DW_AT_type(*$C$DW$T$33)
    1866                      .dwattr $C$DW$145, DW_AT_location[DW_OP_reg12]
    1867              
    1868              $C$DW$146       .dwtag  DW_TAG_formal_parameter
    1869                      .dwattr $C$DW$146, DW_AT_name("loadMode")
    1870                      .dwattr $C$DW$146, DW_AT_TI_symbol_name("_loadMode")
    1871                      .dwattr $C$DW$146, DW_AT_type(*$C$DW$T$97)
    1872                      .dwattr $C$DW$146, DW_AT_location[DW_OP_reg0]
    1873              
    1874              
    1875              ;***************************************************************
    1876              ;* FNAME: _PWM_setLoadMode_CmpB         FR SIZE:   0           *
    1877              ;*                                                             *
    1878              ;* FUNCTION ENVIRONMENT                                        *
    1879              ;*                                                             *
    1880              ;* FUNCTION PROPERTIES                                         *
    1881              ;*                            0 Parameter,  0 Auto,  0 SOE     *
    1882              ;***************************************************************
    1883              
    1884              _PWM_setLoadMode_CmpB:
    1885              ;* AR4   assigned to _pwmHandle
    1886              $C$DW$147       .dwtag  DW_TAG_variable
    1887                      .dwattr $C$DW$147, DW_AT_name("pwmHandle")
    1888                      .dwattr $C$DW$147, DW_AT_TI_symbol_name("_pwmHandle")
    1889                      .dwattr $C$DW$147, DW_AT_type(*$C$DW$T$127)
    1890                      .dwattr $C$DW$147, DW_AT_location[DW_OP_reg12]
TMS320C2000 Assembler PC v18.1.2 Sun Jun 17 14:52:33 2018

Tools Copyright (c) 1996-2017 Texas Instruments Incorporated
C:\Users\haowp\AppData\Local\Temp\{2610D5B4-5CBC-4747-A1C3-229C8FD63D4F} PAGE   36

    1891              
    1892              ;* AL    assigned to _loadMode
    1893              $C$DW$148       .dwtag  DW_TAG_variable
    1894                      .dwattr $C$DW$148, DW_AT_name("loadMode")
    1895                      .dwattr $C$DW$148, DW_AT_TI_symbol_name("_loadMode")
    1896                      .dwattr $C$DW$148, DW_AT_type(*$C$DW$T$98)
    1897                      .dwattr $C$DW$148, DW_AT_location[DW_OP_reg0]
    1898              
    1899                      .dwcfi  cfa_offset, -2
    1900                      .dwcfi  save_reg_to_mem, 26, 0
    1901                      .dwpsn  file "D:/ti/motorware/motorware_1_01_00_18/sw/drivers/pwm/src/32b/f28x/f2802x/pwm.c",line 124
    1902 000000c1 18FC          AND       *+XAR4[7],#0xfff3     ; [CPU_ALU] |1241| 
         000000c2 FFF3 
    1903                      .dwpsn  file "D:/ti/motorware/motorware_1_01_00_18/sw/drivers/pwm/src/32b/f28x/f2802x/pwm.c",line 124
    1904 000000c3 5603          MOV       ACC,AL << #2          ; [CPU_ALU] |1244| 
         000000c4 02A9 
    1905 000000c5 98FC          OR        *+XAR4[7],AL          ; [CPU_ALU] |1244| 
    1906              $C$DW$149       .dwtag  DW_TAG_TI_branch
    1907                      .dwattr $C$DW$149, DW_AT_low_pc(0x00)
    1908                      .dwattr $C$DW$149, DW_AT_TI_return
    1909              
    1910 000000c6 0006          LRETR     ; [CPU_ALU] 
    1911                      ; return occurs ; [] 
    1912                      .dwattr $C$DW$144, DW_AT_TI_end_file("D:/ti/motorware/motorware_1_01_00_18/sw/drivers/pwm/src/32b/f28
    1913                      .dwattr $C$DW$144, DW_AT_TI_end_line(0x4df)
    1914                      .dwattr $C$DW$144, DW_AT_TI_end_column(0x01)
    1915                      .dwendentry
    1916                      .dwendtag $C$DW$144
    1917              
    1918 000000c7               .sect   ".text"
    1919                      .clink
    1920                      .global _PWM_setLoadMode_CmpA
    1921              
    1922              $C$DW$150       .dwtag  DW_TAG_subprogram
    1923                      .dwattr $C$DW$150, DW_AT_name("PWM_setLoadMode_CmpA")
    1924                      .dwattr $C$DW$150, DW_AT_low_pc(_PWM_setLoadMode_CmpA)
    1925                      .dwattr $C$DW$150, DW_AT_high_pc(0x00)
    1926                      .dwattr $C$DW$150, DW_AT_TI_symbol_name("_PWM_setLoadMode_CmpA")
    1927                      .dwattr $C$DW$150, DW_AT_external
    1928                      .dwattr $C$DW$150, DW_AT_TI_begin_file("D:/ti/motorware/motorware_1_01_00_18/sw/drivers/pwm/src/32b/f
    1929                      .dwattr $C$DW$150, DW_AT_TI_begin_line(0x4c4)
    1930                      .dwattr $C$DW$150, DW_AT_TI_begin_column(0x06)
    1931                      .dwattr $C$DW$150, DW_AT_TI_max_frame_size(-2)
    1932                      .dwpsn  file "D:/ti/motorware/motorware_1_01_00_18/sw/drivers/pwm/src/32b/f28x/f2802x/pwm.c",line 122
    1933              
    1934                      .dwfde $C$DW$CIE, _PWM_setLoadMode_CmpA
    1935              $C$DW$151       .dwtag  DW_TAG_formal_parameter
    1936                      .dwattr $C$DW$151, DW_AT_name("pwmHandle")
    1937                      .dwattr $C$DW$151, DW_AT_TI_symbol_name("_pwmHandle")
    1938                      .dwattr $C$DW$151, DW_AT_type(*$C$DW$T$33)
    1939                      .dwattr $C$DW$151, DW_AT_location[DW_OP_reg12]
    1940              
    1941              $C$DW$152       .dwtag  DW_TAG_formal_parameter
    1942                      .dwattr $C$DW$152, DW_AT_name("loadMode")
    1943                      .dwattr $C$DW$152, DW_AT_TI_symbol_name("_loadMode")
TMS320C2000 Assembler PC v18.1.2 Sun Jun 17 14:52:33 2018

Tools Copyright (c) 1996-2017 Texas Instruments Incorporated
C:\Users\haowp\AppData\Local\Temp\{2610D5B4-5CBC-4747-A1C3-229C8FD63D4F} PAGE   37

    1944                      .dwattr $C$DW$152, DW_AT_type(*$C$DW$T$97)
    1945                      .dwattr $C$DW$152, DW_AT_location[DW_OP_reg0]
    1946              
    1947              
    1948              ;***************************************************************
    1949              ;* FNAME: _PWM_setLoadMode_CmpA         FR SIZE:   0           *
    1950              ;*                                                             *
    1951              ;* FUNCTION ENVIRONMENT                                        *
    1952              ;*                                                             *
    1953              ;* FUNCTION PROPERTIES                                         *
    1954              ;*                            0 Parameter,  0 Auto,  0 SOE     *
    1955              ;***************************************************************
    1956              
    1957              _PWM_setLoadMode_CmpA:
    1958              ;* AR4   assigned to _pwmHandle
    1959              $C$DW$153       .dwtag  DW_TAG_variable
    1960                      .dwattr $C$DW$153, DW_AT_name("pwmHandle")
    1961                      .dwattr $C$DW$153, DW_AT_TI_symbol_name("_pwmHandle")
    1962                      .dwattr $C$DW$153, DW_AT_type(*$C$DW$T$127)
    1963                      .dwattr $C$DW$153, DW_AT_location[DW_OP_reg12]
    1964              
    1965              ;* AL    assigned to _loadMode
    1966              $C$DW$154       .dwtag  DW_TAG_variable
    1967                      .dwattr $C$DW$154, DW_AT_name("loadMode")
    1968                      .dwattr $C$DW$154, DW_AT_TI_symbol_name("_loadMode")
    1969                      .dwattr $C$DW$154, DW_AT_type(*$C$DW$T$98)
    1970                      .dwattr $C$DW$154, DW_AT_location[DW_OP_reg0]
    1971              
    1972                      .dwcfi  cfa_offset, -2
    1973                      .dwcfi  save_reg_to_mem, 26, 0
    1974                      .dwpsn  file "D:/ti/motorware/motorware_1_01_00_18/sw/drivers/pwm/src/32b/f28x/f2802x/pwm.c",line 122
    1975 000000c7 18FC          AND       *+XAR4[7],#0xfffc     ; [CPU_ALU] |1226| 
         000000c8 FFFC 
    1976                      .dwpsn  file "D:/ti/motorware/motorware_1_01_00_18/sw/drivers/pwm/src/32b/f28x/f2802x/pwm.c",line 122
    1977 000000c9 98FC          OR        *+XAR4[7],AL          ; [CPU_ALU] |1229| 
    1978              $C$DW$155       .dwtag  DW_TAG_TI_branch
    1979                      .dwattr $C$DW$155, DW_AT_low_pc(0x00)
    1980                      .dwattr $C$DW$155, DW_AT_TI_return
    1981              
    1982 000000ca 0006          LRETR     ; [CPU_ALU] 
    1983                      ; return occurs ; [] 
    1984                      .dwattr $C$DW$150, DW_AT_TI_end_file("D:/ti/motorware/motorware_1_01_00_18/sw/drivers/pwm/src/32b/f28
    1985                      .dwattr $C$DW$150, DW_AT_TI_end_line(0x4d0)
    1986                      .dwattr $C$DW$150, DW_AT_TI_end_column(0x01)
    1987                      .dwendentry
    1988                      .dwendtag $C$DW$150
    1989              
    1990 000000cb               .sect   ".text"
    1991                      .clink
    1992                      .global _PWM_setIntPeriod
    1993              
    1994              $C$DW$156       .dwtag  DW_TAG_subprogram
    1995                      .dwattr $C$DW$156, DW_AT_name("PWM_setIntPeriod")
    1996                      .dwattr $C$DW$156, DW_AT_low_pc(_PWM_setIntPeriod)
    1997                      .dwattr $C$DW$156, DW_AT_high_pc(0x00)
TMS320C2000 Assembler PC v18.1.2 Sun Jun 17 14:52:33 2018

Tools Copyright (c) 1996-2017 Texas Instruments Incorporated
C:\Users\haowp\AppData\Local\Temp\{2610D5B4-5CBC-4747-A1C3-229C8FD63D4F} PAGE   38

    1998                      .dwattr $C$DW$156, DW_AT_TI_symbol_name("_PWM_setIntPeriod")
    1999                      .dwattr $C$DW$156, DW_AT_external
    2000                      .dwattr $C$DW$156, DW_AT_TI_begin_file("D:/ti/motorware/motorware_1_01_00_18/sw/drivers/pwm/src/32b/f
    2001                      .dwattr $C$DW$156, DW_AT_TI_begin_line(0x4b5)
    2002                      .dwattr $C$DW$156, DW_AT_TI_begin_column(0x06)
    2003                      .dwattr $C$DW$156, DW_AT_TI_max_frame_size(-2)
    2004                      .dwpsn  file "D:/ti/motorware/motorware_1_01_00_18/sw/drivers/pwm/src/32b/f28x/f2802x/pwm.c",line 120
    2005              
    2006                      .dwfde $C$DW$CIE, _PWM_setIntPeriod
    2007              $C$DW$157       .dwtag  DW_TAG_formal_parameter
    2008                      .dwattr $C$DW$157, DW_AT_name("pwmHandle")
    2009                      .dwattr $C$DW$157, DW_AT_TI_symbol_name("_pwmHandle")
    2010                      .dwattr $C$DW$157, DW_AT_type(*$C$DW$T$33)
    2011                      .dwattr $C$DW$157, DW_AT_location[DW_OP_reg12]
    2012              
    2013              $C$DW$158       .dwtag  DW_TAG_formal_parameter
    2014                      .dwattr $C$DW$158, DW_AT_name("intPeriod")
    2015                      .dwattr $C$DW$158, DW_AT_TI_symbol_name("_intPeriod")
    2016                      .dwattr $C$DW$158, DW_AT_type(*$C$DW$T$94)
    2017                      .dwattr $C$DW$158, DW_AT_location[DW_OP_reg0]
    2018              
    2019              
    2020              ;***************************************************************
    2021              ;* FNAME: _PWM_setIntPeriod             FR SIZE:   0           *
    2022              ;*                                                             *
    2023              ;* FUNCTION ENVIRONMENT                                        *
    2024              ;*                                                             *
    2025              ;* FUNCTION PROPERTIES                                         *
    2026              ;*                            0 Parameter,  0 Auto,  0 SOE     *
    2027              ;***************************************************************
    2028              
    2029              _PWM_setIntPeriod:
    2030              ;* AR4   assigned to _pwmHandle
    2031              $C$DW$159       .dwtag  DW_TAG_variable
    2032                      .dwattr $C$DW$159, DW_AT_name("pwmHandle")
    2033                      .dwattr $C$DW$159, DW_AT_TI_symbol_name("_pwmHandle")
    2034                      .dwattr $C$DW$159, DW_AT_type(*$C$DW$T$127)
    2035                      .dwattr $C$DW$159, DW_AT_location[DW_OP_reg12]
    2036              
    2037              ;* AL    assigned to _intPeriod
    2038              $C$DW$160       .dwtag  DW_TAG_variable
    2039                      .dwattr $C$DW$160, DW_AT_name("intPeriod")
    2040                      .dwattr $C$DW$160, DW_AT_TI_symbol_name("_intPeriod")
    2041                      .dwattr $C$DW$160, DW_AT_type(*$C$DW$T$95)
    2042                      .dwattr $C$DW$160, DW_AT_location[DW_OP_reg0]
    2043              
    2044                      .dwcfi  cfa_offset, -2
    2045                      .dwcfi  save_reg_to_mem, 26, 0
    2046                      .dwpsn  file "D:/ti/motorware/motorware_1_01_00_18/sw/drivers/pwm/src/32b/f28x/f2802x/pwm.c",line 121
    2047 000000cb 83A4          MOVL      XAR5,XAR4             ; [CPU_ALU] |1211| 
    2048 000000cc DD1A          ADDB      XAR5,#26              ; [CPU_ALU] |1211| 
    2049 000000cd 18C5          AND       *+XAR5[0],#0xfffc     ; [CPU_ALU] |1211| 
         000000ce FFFC 
    2050                      .dwpsn  file "D:/ti/motorware/motorware_1_01_00_18/sw/drivers/pwm/src/32b/f28x/f2802x/pwm.c",line 121
    2051 000000cf DC1A          ADDB      XAR4,#26              ; [CPU_ALU] |1214| 
TMS320C2000 Assembler PC v18.1.2 Sun Jun 17 14:52:33 2018

Tools Copyright (c) 1996-2017 Texas Instruments Incorporated
C:\Users\haowp\AppData\Local\Temp\{2610D5B4-5CBC-4747-A1C3-229C8FD63D4F} PAGE   39

    2052 000000d0 98C4          OR        *+XAR4[0],AL          ; [CPU_ALU] |1214| 
    2053              $C$DW$161       .dwtag  DW_TAG_TI_branch
    2054                      .dwattr $C$DW$161, DW_AT_low_pc(0x00)
    2055                      .dwattr $C$DW$161, DW_AT_TI_return
    2056              
    2057 000000d1 0006          LRETR     ; [CPU_ALU] 
    2058                      ; return occurs ; [] 
    2059                      .dwattr $C$DW$156, DW_AT_TI_end_file("D:/ti/motorware/motorware_1_01_00_18/sw/drivers/pwm/src/32b/f28
    2060                      .dwattr $C$DW$156, DW_AT_TI_end_line(0x4c1)
    2061                      .dwattr $C$DW$156, DW_AT_TI_end_column(0x01)
    2062                      .dwendentry
    2063                      .dwendtag $C$DW$156
    2064              
    2065 000000d2               .sect   ".text"
    2066                      .clink
    2067                      .global _PWM_setIntMode
    2068              
    2069              $C$DW$162       .dwtag  DW_TAG_subprogram
    2070                      .dwattr $C$DW$162, DW_AT_name("PWM_setIntMode")
    2071                      .dwattr $C$DW$162, DW_AT_low_pc(_PWM_setIntMode)
    2072                      .dwattr $C$DW$162, DW_AT_high_pc(0x00)
    2073                      .dwattr $C$DW$162, DW_AT_TI_symbol_name("_PWM_setIntMode")
    2074                      .dwattr $C$DW$162, DW_AT_external
    2075                      .dwattr $C$DW$162, DW_AT_TI_begin_file("D:/ti/motorware/motorware_1_01_00_18/sw/drivers/pwm/src/32b/f
    2076                      .dwattr $C$DW$162, DW_AT_TI_begin_line(0x4a6)
    2077                      .dwattr $C$DW$162, DW_AT_TI_begin_column(0x06)
    2078                      .dwattr $C$DW$162, DW_AT_TI_max_frame_size(-2)
    2079                      .dwpsn  file "D:/ti/motorware/motorware_1_01_00_18/sw/drivers/pwm/src/32b/f28x/f2802x/pwm.c",line 119
    2080              
    2081                      .dwfde $C$DW$CIE, _PWM_setIntMode
    2082              $C$DW$163       .dwtag  DW_TAG_formal_parameter
    2083                      .dwattr $C$DW$163, DW_AT_name("pwmHandle")
    2084                      .dwattr $C$DW$163, DW_AT_TI_symbol_name("_pwmHandle")
    2085                      .dwattr $C$DW$163, DW_AT_type(*$C$DW$T$33)
    2086                      .dwattr $C$DW$163, DW_AT_location[DW_OP_reg12]
    2087              
    2088              $C$DW$164       .dwtag  DW_TAG_formal_parameter
    2089                      .dwattr $C$DW$164, DW_AT_name("intMode")
    2090                      .dwattr $C$DW$164, DW_AT_TI_symbol_name("_intMode")
    2091                      .dwattr $C$DW$164, DW_AT_type(*$C$DW$T$91)
    2092                      .dwattr $C$DW$164, DW_AT_location[DW_OP_reg0]
    2093              
    2094              
    2095              ;***************************************************************
    2096              ;* FNAME: _PWM_setIntMode               FR SIZE:   0           *
    2097              ;*                                                             *
    2098              ;* FUNCTION ENVIRONMENT                                        *
    2099              ;*                                                             *
    2100              ;* FUNCTION PROPERTIES                                         *
    2101              ;*                            0 Parameter,  0 Auto,  0 SOE     *
    2102              ;***************************************************************
    2103              
    2104              _PWM_setIntMode:
    2105              ;* AR4   assigned to _pwmHandle
    2106              $C$DW$165       .dwtag  DW_TAG_variable
TMS320C2000 Assembler PC v18.1.2 Sun Jun 17 14:52:33 2018

Tools Copyright (c) 1996-2017 Texas Instruments Incorporated
C:\Users\haowp\AppData\Local\Temp\{2610D5B4-5CBC-4747-A1C3-229C8FD63D4F} PAGE   40

    2107                      .dwattr $C$DW$165, DW_AT_name("pwmHandle")
    2108                      .dwattr $C$DW$165, DW_AT_TI_symbol_name("_pwmHandle")
    2109                      .dwattr $C$DW$165, DW_AT_type(*$C$DW$T$127)
    2110                      .dwattr $C$DW$165, DW_AT_location[DW_OP_reg12]
    2111              
    2112              ;* AL    assigned to _intMode
    2113              $C$DW$166       .dwtag  DW_TAG_variable
    2114                      .dwattr $C$DW$166, DW_AT_name("intMode")
    2115                      .dwattr $C$DW$166, DW_AT_TI_symbol_name("_intMode")
    2116                      .dwattr $C$DW$166, DW_AT_type(*$C$DW$T$92)
    2117                      .dwattr $C$DW$166, DW_AT_location[DW_OP_reg0]
    2118              
    2119                      .dwcfi  cfa_offset, -2
    2120                      .dwcfi  save_reg_to_mem, 26, 0
    2121                      .dwpsn  file "D:/ti/motorware/motorware_1_01_00_18/sw/drivers/pwm/src/32b/f28x/f2802x/pwm.c",line 119
    2122 000000d2 83A4          MOVL      XAR5,XAR4             ; [CPU_ALU] |1196| 
    2123 000000d3 DD19          ADDB      XAR5,#25              ; [CPU_ALU] |1196| 
    2124 000000d4 18C5          AND       *+XAR5[0],#0xfff8     ; [CPU_ALU] |1196| 
         000000d5 FFF8 
    2125                      .dwpsn  file "D:/ti/motorware/motorware_1_01_00_18/sw/drivers/pwm/src/32b/f28x/f2802x/pwm.c",line 119
    2126 000000d6 DC19          ADDB      XAR4,#25              ; [CPU_ALU] |1199| 
    2127 000000d7 98C4          OR        *+XAR4[0],AL          ; [CPU_ALU] |1199| 
    2128              $C$DW$167       .dwtag  DW_TAG_TI_branch
    2129                      .dwattr $C$DW$167, DW_AT_low_pc(0x00)
    2130                      .dwattr $C$DW$167, DW_AT_TI_return
    2131              
    2132 000000d8 0006          LRETR     ; [CPU_ALU] 
    2133                      ; return occurs ; [] 
    2134                      .dwattr $C$DW$162, DW_AT_TI_end_file("D:/ti/motorware/motorware_1_01_00_18/sw/drivers/pwm/src/32b/f28
    2135                      .dwattr $C$DW$162, DW_AT_TI_end_line(0x4b2)
    2136                      .dwattr $C$DW$162, DW_AT_TI_end_column(0x01)
    2137                      .dwendentry
    2138                      .dwendtag $C$DW$162
    2139              
    2140 000000d9               .sect   ".text"
    2141                      .clink
    2142                      .global _PWM_setHrShadowMode
    2143              
    2144              $C$DW$168       .dwtag  DW_TAG_subprogram
    2145                      .dwattr $C$DW$168, DW_AT_name("PWM_setHrShadowMode")
    2146                      .dwattr $C$DW$168, DW_AT_low_pc(_PWM_setHrShadowMode)
    2147                      .dwattr $C$DW$168, DW_AT_high_pc(0x00)
    2148                      .dwattr $C$DW$168, DW_AT_TI_symbol_name("_PWM_setHrShadowMode")
    2149                      .dwattr $C$DW$168, DW_AT_external
    2150                      .dwattr $C$DW$168, DW_AT_TI_begin_file("D:/ti/motorware/motorware_1_01_00_18/sw/drivers/pwm/src/32b/f
    2151                      .dwattr $C$DW$168, DW_AT_TI_begin_line(0x24e)
    2152                      .dwattr $C$DW$168, DW_AT_TI_begin_column(0x06)
    2153                      .dwattr $C$DW$168, DW_AT_TI_max_frame_size(-2)
    2154                      .dwpsn  file "D:/ti/motorware/motorware_1_01_00_18/sw/drivers/pwm/src/32b/f28x/f2802x/pwm.c",line 591
    2155              
    2156                      .dwfde $C$DW$CIE, _PWM_setHrShadowMode
    2157              $C$DW$169       .dwtag  DW_TAG_formal_parameter
    2158                      .dwattr $C$DW$169, DW_AT_name("pwmHandle")
    2159                      .dwattr $C$DW$169, DW_AT_TI_symbol_name("_pwmHandle")
    2160                      .dwattr $C$DW$169, DW_AT_type(*$C$DW$T$33)
TMS320C2000 Assembler PC v18.1.2 Sun Jun 17 14:52:33 2018

Tools Copyright (c) 1996-2017 Texas Instruments Incorporated
C:\Users\haowp\AppData\Local\Temp\{2610D5B4-5CBC-4747-A1C3-229C8FD63D4F} PAGE   41

    2161                      .dwattr $C$DW$169, DW_AT_location[DW_OP_reg12]
    2162              
    2163              $C$DW$170       .dwtag  DW_TAG_formal_parameter
    2164                      .dwattr $C$DW$170, DW_AT_name("shadowMode")
    2165                      .dwattr $C$DW$170, DW_AT_TI_symbol_name("_shadowMode")
    2166                      .dwattr $C$DW$170, DW_AT_type(*$C$DW$T$43)
    2167                      .dwattr $C$DW$170, DW_AT_location[DW_OP_reg0]
    2168              
    2169              
    2170              ;***************************************************************
    2171              ;* FNAME: _PWM_setHrShadowMode          FR SIZE:   0           *
    2172              ;*                                                             *
    2173              ;* FUNCTION ENVIRONMENT                                        *
    2174              ;*                                                             *
    2175              ;* FUNCTION PROPERTIES                                         *
    2176              ;*                            0 Parameter,  0 Auto,  0 SOE     *
    2177              ;***************************************************************
    2178              
    2179              _PWM_setHrShadowMode:
    2180              ;* AR4   assigned to _pwmHandle
    2181              $C$DW$171       .dwtag  DW_TAG_variable
    2182                      .dwattr $C$DW$171, DW_AT_name("pwmHandle")
    2183                      .dwattr $C$DW$171, DW_AT_TI_symbol_name("_pwmHandle")
    2184                      .dwattr $C$DW$171, DW_AT_type(*$C$DW$T$127)
    2185                      .dwattr $C$DW$171, DW_AT_location[DW_OP_reg12]
    2186              
    2187              ;* AL    assigned to _shadowMode
    2188              $C$DW$172       .dwtag  DW_TAG_variable
    2189                      .dwattr $C$DW$172, DW_AT_name("shadowMode")
    2190                      .dwattr $C$DW$172, DW_AT_TI_symbol_name("_shadowMode")
    2191                      .dwattr $C$DW$172, DW_AT_type(*$C$DW$T$44)
    2192                      .dwattr $C$DW$172, DW_AT_location[DW_OP_reg0]
    2193              
    2194                      .dwcfi  cfa_offset, -2
    2195                      .dwcfi  save_reg_to_mem, 26, 0
    2196 000000d9 7622   EALLOW
    2197                      .dwpsn  file "D:/ti/motorware/motorware_1_01_00_18/sw/drivers/pwm/src/32b/f28x/f2802x/pwm.c",line 596
    2198 000000da 83A4          MOVL      XAR5,XAR4             ; [CPU_ALU] |596| 
    2199                      .dwpsn  file "D:/ti/motorware/motorware_1_01_00_18/sw/drivers/pwm/src/32b/f28x/f2802x/pwm.c",line 598
    2200 000000db DC20          ADDB      XAR4,#32              ; [CPU_ALU] |598| 
    2201                      .dwpsn  file "D:/ti/motorware/motorware_1_01_00_18/sw/drivers/pwm/src/32b/f28x/f2802x/pwm.c",line 596
    2202 000000dc DD20          ADDB      XAR5,#32              ; [CPU_ALU] |596| 
    2203 000000dd 18C5          AND       *+XAR5[0],#0xffe7     ; [CPU_ALU] |596| 
         000000de FFE7 
    2204                      .dwpsn  file "D:/ti/motorware/motorware_1_01_00_18/sw/drivers/pwm/src/32b/f28x/f2802x/pwm.c",line 598
    2205 000000df 98C4          OR        *+XAR4[0],AL          ; [CPU_ALU] |598| 
    2206 000000e0 761A   EDIS
    2207 000000e1 FF69          SPM       #0                    ; [CPU_ALU] 
    2208              $C$DW$173       .dwtag  DW_TAG_TI_branch
    2209                      .dwattr $C$DW$173, DW_AT_low_pc(0x00)
    2210                      .dwattr $C$DW$173, DW_AT_TI_return
    2211              
    2212 000000e2 0006          LRETR     ; [CPU_ALU] 
    2213                      ; return occurs ; [] 
    2214                      .dwattr $C$DW$168, DW_AT_TI_end_file("D:/ti/motorware/motorware_1_01_00_18/sw/drivers/pwm/src/32b/f28
TMS320C2000 Assembler PC v18.1.2 Sun Jun 17 14:52:33 2018

Tools Copyright (c) 1996-2017 Texas Instruments Incorporated
C:\Users\haowp\AppData\Local\Temp\{2610D5B4-5CBC-4747-A1C3-229C8FD63D4F} PAGE   42

    2215                      .dwattr $C$DW$168, DW_AT_TI_end_line(0x25b)
    2216                      .dwattr $C$DW$168, DW_AT_TI_end_column(0x01)
    2217                      .dwendentry
    2218                      .dwendtag $C$DW$168
    2219              
    2220 000000e3               .sect   ".text"
    2221                      .clink
    2222                      .global _PWM_setHrEdgeMode
    2223              
    2224              $C$DW$174       .dwtag  DW_TAG_subprogram
    2225                      .dwattr $C$DW$174, DW_AT_name("PWM_setHrEdgeMode")
    2226                      .dwattr $C$DW$174, DW_AT_low_pc(_PWM_setHrEdgeMode)
    2227                      .dwattr $C$DW$174, DW_AT_high_pc(0x00)
    2228                      .dwattr $C$DW$174, DW_AT_TI_symbol_name("_PWM_setHrEdgeMode")
    2229                      .dwattr $C$DW$174, DW_AT_external
    2230                      .dwattr $C$DW$174, DW_AT_TI_begin_file("D:/ti/motorware/motorware_1_01_00_18/sw/drivers/pwm/src/32b/f
    2231                      .dwattr $C$DW$174, DW_AT_TI_begin_line(0x23e)
    2232                      .dwattr $C$DW$174, DW_AT_TI_begin_column(0x06)
    2233                      .dwattr $C$DW$174, DW_AT_TI_max_frame_size(-2)
    2234                      .dwpsn  file "D:/ti/motorware/motorware_1_01_00_18/sw/drivers/pwm/src/32b/f28x/f2802x/pwm.c",line 575
    2235              
    2236                      .dwfde $C$DW$CIE, _PWM_setHrEdgeMode
    2237              $C$DW$175       .dwtag  DW_TAG_formal_parameter
    2238                      .dwattr $C$DW$175, DW_AT_name("pwmHandle")
    2239                      .dwattr $C$DW$175, DW_AT_TI_symbol_name("_pwmHandle")
    2240                      .dwattr $C$DW$175, DW_AT_type(*$C$DW$T$33)
    2241                      .dwattr $C$DW$175, DW_AT_location[DW_OP_reg12]
    2242              
    2243              $C$DW$176       .dwtag  DW_TAG_formal_parameter
    2244                      .dwattr $C$DW$176, DW_AT_name("edgeMode")
    2245                      .dwattr $C$DW$176, DW_AT_TI_symbol_name("_edgeMode")
    2246                      .dwattr $C$DW$176, DW_AT_type(*$C$DW$T$40)
    2247                      .dwattr $C$DW$176, DW_AT_location[DW_OP_reg0]
    2248              
    2249              
    2250              ;***************************************************************
    2251              ;* FNAME: _PWM_setHrEdgeMode            FR SIZE:   0           *
    2252              ;*                                                             *
    2253              ;* FUNCTION ENVIRONMENT                                        *
    2254              ;*                                                             *
    2255              ;* FUNCTION PROPERTIES                                         *
    2256              ;*                            0 Parameter,  0 Auto,  0 SOE     *
    2257              ;***************************************************************
    2258              
    2259              _PWM_setHrEdgeMode:
    2260              ;* AR4   assigned to _pwmHandle
    2261              $C$DW$177       .dwtag  DW_TAG_variable
    2262                      .dwattr $C$DW$177, DW_AT_name("pwmHandle")
    2263                      .dwattr $C$DW$177, DW_AT_TI_symbol_name("_pwmHandle")
    2264                      .dwattr $C$DW$177, DW_AT_type(*$C$DW$T$127)
    2265                      .dwattr $C$DW$177, DW_AT_location[DW_OP_reg12]
    2266              
    2267              ;* AL    assigned to _edgeMode
    2268              $C$DW$178       .dwtag  DW_TAG_variable
    2269                      .dwattr $C$DW$178, DW_AT_name("edgeMode")
TMS320C2000 Assembler PC v18.1.2 Sun Jun 17 14:52:33 2018

Tools Copyright (c) 1996-2017 Texas Instruments Incorporated
C:\Users\haowp\AppData\Local\Temp\{2610D5B4-5CBC-4747-A1C3-229C8FD63D4F} PAGE   43

    2270                      .dwattr $C$DW$178, DW_AT_TI_symbol_name("_edgeMode")
    2271                      .dwattr $C$DW$178, DW_AT_type(*$C$DW$T$41)
    2272                      .dwattr $C$DW$178, DW_AT_location[DW_OP_reg0]
    2273              
    2274                      .dwcfi  cfa_offset, -2
    2275                      .dwcfi  save_reg_to_mem, 26, 0
    2276 000000e3 7622   EALLOW
    2277                      .dwpsn  file "D:/ti/motorware/motorware_1_01_00_18/sw/drivers/pwm/src/32b/f28x/f2802x/pwm.c",line 580
    2278 000000e4 83A4          MOVL      XAR5,XAR4             ; [CPU_ALU] |580| 
    2279                      .dwpsn  file "D:/ti/motorware/motorware_1_01_00_18/sw/drivers/pwm/src/32b/f28x/f2802x/pwm.c",line 582
    2280 000000e5 DC20          ADDB      XAR4,#32              ; [CPU_ALU] |582| 
    2281                      .dwpsn  file "D:/ti/motorware/motorware_1_01_00_18/sw/drivers/pwm/src/32b/f28x/f2802x/pwm.c",line 580
    2282 000000e6 DD20          ADDB      XAR5,#32              ; [CPU_ALU] |580| 
    2283 000000e7 18C5          AND       *+XAR5[0],#0xfffc     ; [CPU_ALU] |580| 
         000000e8 FFFC 
    2284                      .dwpsn  file "D:/ti/motorware/motorware_1_01_00_18/sw/drivers/pwm/src/32b/f28x/f2802x/pwm.c",line 582
    2285 000000e9 98C4          OR        *+XAR4[0],AL          ; [CPU_ALU] |582| 
    2286 000000ea 761A   EDIS
    2287 000000eb FF69          SPM       #0                    ; [CPU_ALU] 
    2288              $C$DW$179       .dwtag  DW_TAG_TI_branch
    2289                      .dwattr $C$DW$179, DW_AT_low_pc(0x00)
    2290                      .dwattr $C$DW$179, DW_AT_TI_return
    2291              
    2292 000000ec 0006          LRETR     ; [CPU_ALU] 
    2293                      ; return occurs ; [] 
    2294                      .dwattr $C$DW$174, DW_AT_TI_end_file("D:/ti/motorware/motorware_1_01_00_18/sw/drivers/pwm/src/32b/f28
    2295                      .dwattr $C$DW$174, DW_AT_TI_end_line(0x24b)
    2296                      .dwattr $C$DW$174, DW_AT_TI_end_column(0x01)
    2297                      .dwendentry
    2298                      .dwendtag $C$DW$174
    2299              
    2300 000000ed               .sect   ".text"
    2301                      .clink
    2302                      .global _PWM_setHrControlMode
    2303              
    2304              $C$DW$180       .dwtag  DW_TAG_subprogram
    2305                      .dwattr $C$DW$180, DW_AT_name("PWM_setHrControlMode")
    2306                      .dwattr $C$DW$180, DW_AT_low_pc(_PWM_setHrControlMode)
    2307                      .dwattr $C$DW$180, DW_AT_high_pc(0x00)
    2308                      .dwattr $C$DW$180, DW_AT_TI_symbol_name("_PWM_setHrControlMode")
    2309                      .dwattr $C$DW$180, DW_AT_external
    2310                      .dwattr $C$DW$180, DW_AT_TI_begin_file("D:/ti/motorware/motorware_1_01_00_18/sw/drivers/pwm/src/32b/f
    2311                      .dwattr $C$DW$180, DW_AT_TI_begin_line(0x22e)
    2312                      .dwattr $C$DW$180, DW_AT_TI_begin_column(0x06)
    2313                      .dwattr $C$DW$180, DW_AT_TI_max_frame_size(-2)
    2314                      .dwpsn  file "D:/ti/motorware/motorware_1_01_00_18/sw/drivers/pwm/src/32b/f28x/f2802x/pwm.c",line 559
    2315              
    2316                      .dwfde $C$DW$CIE, _PWM_setHrControlMode
    2317              $C$DW$181       .dwtag  DW_TAG_formal_parameter
    2318                      .dwattr $C$DW$181, DW_AT_name("pwmHandle")
    2319                      .dwattr $C$DW$181, DW_AT_TI_symbol_name("_pwmHandle")
    2320                      .dwattr $C$DW$181, DW_AT_type(*$C$DW$T$33)
    2321                      .dwattr $C$DW$181, DW_AT_location[DW_OP_reg12]
    2322              
    2323              $C$DW$182       .dwtag  DW_TAG_formal_parameter
TMS320C2000 Assembler PC v18.1.2 Sun Jun 17 14:52:33 2018

Tools Copyright (c) 1996-2017 Texas Instruments Incorporated
C:\Users\haowp\AppData\Local\Temp\{2610D5B4-5CBC-4747-A1C3-229C8FD63D4F} PAGE   44

    2324                      .dwattr $C$DW$182, DW_AT_name("controlMode")
    2325                      .dwattr $C$DW$182, DW_AT_TI_symbol_name("_controlMode")
    2326                      .dwattr $C$DW$182, DW_AT_type(*$C$DW$T$37)
    2327                      .dwattr $C$DW$182, DW_AT_location[DW_OP_reg0]
    2328              
    2329              
    2330              ;***************************************************************
    2331              ;* FNAME: _PWM_setHrControlMode         FR SIZE:   0           *
    2332              ;*                                                             *
    2333              ;* FUNCTION ENVIRONMENT                                        *
    2334              ;*                                                             *
    2335              ;* FUNCTION PROPERTIES                                         *
    2336              ;*                            0 Parameter,  0 Auto,  0 SOE     *
    2337              ;***************************************************************
    2338              
    2339              _PWM_setHrControlMode:
    2340              ;* AR4   assigned to _pwmHandle
    2341              $C$DW$183       .dwtag  DW_TAG_variable
    2342                      .dwattr $C$DW$183, DW_AT_name("pwmHandle")
    2343                      .dwattr $C$DW$183, DW_AT_TI_symbol_name("_pwmHandle")
    2344                      .dwattr $C$DW$183, DW_AT_type(*$C$DW$T$127)
    2345                      .dwattr $C$DW$183, DW_AT_location[DW_OP_reg12]
    2346              
    2347              ;* AL    assigned to _controlMode
    2348              $C$DW$184       .dwtag  DW_TAG_variable
    2349                      .dwattr $C$DW$184, DW_AT_name("controlMode")
    2350                      .dwattr $C$DW$184, DW_AT_TI_symbol_name("_controlMode")
    2351                      .dwattr $C$DW$184, DW_AT_type(*$C$DW$T$38)
    2352                      .dwattr $C$DW$184, DW_AT_location[DW_OP_reg0]
    2353              
    2354                      .dwcfi  cfa_offset, -2
    2355                      .dwcfi  save_reg_to_mem, 26, 0
    2356 000000ed 7622   EALLOW
    2357                      .dwpsn  file "D:/ti/motorware/motorware_1_01_00_18/sw/drivers/pwm/src/32b/f28x/f2802x/pwm.c",line 564
    2358 000000ee 83A4          MOVL      XAR5,XAR4             ; [CPU_ALU] |564| 
    2359                      .dwpsn  file "D:/ti/motorware/motorware_1_01_00_18/sw/drivers/pwm/src/32b/f28x/f2802x/pwm.c",line 566
    2360 000000ef DC20          ADDB      XAR4,#32              ; [CPU_ALU] |566| 
    2361                      .dwpsn  file "D:/ti/motorware/motorware_1_01_00_18/sw/drivers/pwm/src/32b/f28x/f2802x/pwm.c",line 564
    2362 000000f0 DD20          ADDB      XAR5,#32              ; [CPU_ALU] |564| 
    2363 000000f1 18C5          AND       *+XAR5[0],#0xfffb     ; [CPU_ALU] |564| 
         000000f2 FFFB 
    2364                      .dwpsn  file "D:/ti/motorware/motorware_1_01_00_18/sw/drivers/pwm/src/32b/f28x/f2802x/pwm.c",line 566
    2365 000000f3 98C4          OR        *+XAR4[0],AL          ; [CPU_ALU] |566| 
    2366 000000f4 761A   EDIS
    2367 000000f5 FF69          SPM       #0                    ; [CPU_ALU] 
    2368              $C$DW$185       .dwtag  DW_TAG_TI_branch
    2369                      .dwattr $C$DW$185, DW_AT_low_pc(0x00)
    2370                      .dwattr $C$DW$185, DW_AT_TI_return
    2371              
    2372 000000f6 0006          LRETR     ; [CPU_ALU] 
    2373                      ; return occurs ; [] 
    2374                      .dwattr $C$DW$180, DW_AT_TI_end_file("D:/ti/motorware/motorware_1_01_00_18/sw/drivers/pwm/src/32b/f28
    2375                      .dwattr $C$DW$180, DW_AT_TI_end_line(0x23b)
    2376                      .dwattr $C$DW$180, DW_AT_TI_end_column(0x01)
    2377                      .dwendentry
TMS320C2000 Assembler PC v18.1.2 Sun Jun 17 14:52:33 2018

Tools Copyright (c) 1996-2017 Texas Instruments Incorporated
C:\Users\haowp\AppData\Local\Temp\{2610D5B4-5CBC-4747-A1C3-229C8FD63D4F} PAGE   45

    2378                      .dwendtag $C$DW$180
    2379              
    2380 000000f7               .sect   ".text"
    2381                      .clink
    2382                      .global _PWM_setHighSpeedClkDiv
    2383              
    2384              $C$DW$186       .dwtag  DW_TAG_subprogram
    2385                      .dwattr $C$DW$186, DW_AT_name("PWM_setHighSpeedClkDiv")
    2386                      .dwattr $C$DW$186, DW_AT_low_pc(_PWM_setHighSpeedClkDiv)
    2387                      .dwattr $C$DW$186, DW_AT_high_pc(0x00)
    2388                      .dwattr $C$DW$186, DW_AT_TI_symbol_name("_PWM_setHighSpeedClkDiv")
    2389                      .dwattr $C$DW$186, DW_AT_external
    2390                      .dwattr $C$DW$186, DW_AT_TI_begin_file("D:/ti/motorware/motorware_1_01_00_18/sw/drivers/pwm/src/32b/f
    2391                      .dwattr $C$DW$186, DW_AT_TI_begin_line(0x497)
    2392                      .dwattr $C$DW$186, DW_AT_TI_begin_column(0x06)
    2393                      .dwattr $C$DW$186, DW_AT_TI_max_frame_size(-2)
    2394                      .dwpsn  file "D:/ti/motorware/motorware_1_01_00_18/sw/drivers/pwm/src/32b/f28x/f2802x/pwm.c",line 117
    2395              
    2396                      .dwfde $C$DW$CIE, _PWM_setHighSpeedClkDiv
    2397              $C$DW$187       .dwtag  DW_TAG_formal_parameter
    2398                      .dwattr $C$DW$187, DW_AT_name("pwmHandle")
    2399                      .dwattr $C$DW$187, DW_AT_TI_symbol_name("_pwmHandle")
    2400                      .dwattr $C$DW$187, DW_AT_type(*$C$DW$T$33)
    2401                      .dwattr $C$DW$187, DW_AT_location[DW_OP_reg12]
    2402              
    2403              $C$DW$188       .dwtag  DW_TAG_formal_parameter
    2404                      .dwattr $C$DW$188, DW_AT_name("clkDiv")
    2405                      .dwattr $C$DW$188, DW_AT_TI_symbol_name("_clkDiv")
    2406                      .dwattr $C$DW$188, DW_AT_type(*$C$DW$T$88)
    2407                      .dwattr $C$DW$188, DW_AT_location[DW_OP_reg0]
    2408              
    2409              
    2410              ;***************************************************************
    2411              ;* FNAME: _PWM_setHighSpeedClkDiv       FR SIZE:   0           *
    2412              ;*                                                             *
    2413              ;* FUNCTION ENVIRONMENT                                        *
    2414              ;*                                                             *
    2415              ;* FUNCTION PROPERTIES                                         *
    2416              ;*                            0 Parameter,  0 Auto,  0 SOE     *
    2417              ;***************************************************************
    2418              
    2419              _PWM_setHighSpeedClkDiv:
    2420              ;* AR4   assigned to _pwmHandle
    2421              $C$DW$189       .dwtag  DW_TAG_variable
    2422                      .dwattr $C$DW$189, DW_AT_name("pwmHandle")
    2423                      .dwattr $C$DW$189, DW_AT_TI_symbol_name("_pwmHandle")
    2424                      .dwattr $C$DW$189, DW_AT_type(*$C$DW$T$127)
    2425                      .dwattr $C$DW$189, DW_AT_location[DW_OP_reg12]
    2426              
    2427              ;* AL    assigned to _clkDiv
    2428              $C$DW$190       .dwtag  DW_TAG_variable
    2429                      .dwattr $C$DW$190, DW_AT_name("clkDiv")
    2430                      .dwattr $C$DW$190, DW_AT_TI_symbol_name("_clkDiv")
    2431                      .dwattr $C$DW$190, DW_AT_type(*$C$DW$T$89)
    2432                      .dwattr $C$DW$190, DW_AT_location[DW_OP_reg0]
TMS320C2000 Assembler PC v18.1.2 Sun Jun 17 14:52:33 2018

Tools Copyright (c) 1996-2017 Texas Instruments Incorporated
C:\Users\haowp\AppData\Local\Temp\{2610D5B4-5CBC-4747-A1C3-229C8FD63D4F} PAGE   46

    2433              
    2434                      .dwcfi  cfa_offset, -2
    2435                      .dwcfi  save_reg_to_mem, 26, 0
    2436                      .dwpsn  file "D:/ti/motorware/motorware_1_01_00_18/sw/drivers/pwm/src/32b/f28x/f2802x/pwm.c",line 118
    2437 000000f7 18C4          AND       *+XAR4[0],#0xfc7f     ; [CPU_ALU] |1181| 
         000000f8 FC7F 
    2438                      .dwpsn  file "D:/ti/motorware/motorware_1_01_00_18/sw/drivers/pwm/src/32b/f28x/f2802x/pwm.c",line 118
    2439 000000f9 98C4          OR        *+XAR4[0],AL          ; [CPU_ALU] |1184| 
    2440              $C$DW$191       .dwtag  DW_TAG_TI_branch
    2441                      .dwattr $C$DW$191, DW_AT_low_pc(0x00)
    2442                      .dwattr $C$DW$191, DW_AT_TI_return
    2443              
    2444 000000fa 0006          LRETR     ; [CPU_ALU] 
    2445                      ; return occurs ; [] 
    2446                      .dwattr $C$DW$186, DW_AT_TI_end_file("D:/ti/motorware/motorware_1_01_00_18/sw/drivers/pwm/src/32b/f28
    2447                      .dwattr $C$DW$186, DW_AT_TI_end_line(0x4a3)
    2448                      .dwattr $C$DW$186, DW_AT_TI_end_column(0x01)
    2449                      .dwendentry
    2450                      .dwendtag $C$DW$186
    2451              
    2452 000000fb               .sect   ".text"
    2453                      .clink
    2454                      .global _PWM_setDigitalCompareInput
    2455              
    2456              $C$DW$192       .dwtag  DW_TAG_subprogram
    2457                      .dwattr $C$DW$192, DW_AT_name("PWM_setDigitalCompareInput")
    2458                      .dwattr $C$DW$192, DW_AT_low_pc(_PWM_setDigitalCompareInput)
    2459                      .dwattr $C$DW$192, DW_AT_high_pc(0x00)
    2460                      .dwattr $C$DW$192, DW_AT_TI_symbol_name("_PWM_setDigitalCompareInput")
    2461                      .dwattr $C$DW$192, DW_AT_external
    2462                      .dwattr $C$DW$192, DW_AT_TI_begin_file("D:/ti/motorware/motorware_1_01_00_18/sw/drivers/pwm/src/32b/f
    2463                      .dwattr $C$DW$192, DW_AT_TI_begin_line(0x42f)
    2464                      .dwattr $C$DW$192, DW_AT_TI_begin_column(0x06)
    2465                      .dwattr $C$DW$192, DW_AT_TI_max_frame_size(-2)
    2466                      .dwpsn  file "D:/ti/motorware/motorware_1_01_00_18/sw/drivers/pwm/src/32b/f28x/f2802x/pwm.c",line 107
    2467              
    2468                      .dwfde $C$DW$CIE, _PWM_setDigitalCompareInput
    2469              $C$DW$193       .dwtag  DW_TAG_formal_parameter
    2470                      .dwattr $C$DW$193, DW_AT_name("pwmHandle")
    2471                      .dwattr $C$DW$193, DW_AT_TI_symbol_name("_pwmHandle")
    2472                      .dwattr $C$DW$193, DW_AT_type(*$C$DW$T$33)
    2473                      .dwattr $C$DW$193, DW_AT_location[DW_OP_reg12]
    2474              
    2475              $C$DW$194       .dwtag  DW_TAG_formal_parameter
    2476                      .dwattr $C$DW$194, DW_AT_name("input")
    2477                      .dwattr $C$DW$194, DW_AT_TI_symbol_name("_input")
    2478                      .dwattr $C$DW$194, DW_AT_type(*$C$DW$T$82)
    2479                      .dwattr $C$DW$194, DW_AT_location[DW_OP_reg0]
    2480              
    2481              $C$DW$195       .dwtag  DW_TAG_formal_parameter
    2482                      .dwattr $C$DW$195, DW_AT_name("inputSel")
    2483                      .dwattr $C$DW$195, DW_AT_TI_symbol_name("_inputSel")
    2484                      .dwattr $C$DW$195, DW_AT_type(*$C$DW$T$85)
    2485                      .dwattr $C$DW$195, DW_AT_location[DW_OP_reg1]
    2486              
TMS320C2000 Assembler PC v18.1.2 Sun Jun 17 14:52:33 2018

Tools Copyright (c) 1996-2017 Texas Instruments Incorporated
C:\Users\haowp\AppData\Local\Temp\{2610D5B4-5CBC-4747-A1C3-229C8FD63D4F} PAGE   47

    2487              
    2488              ;***************************************************************
    2489              ;* FNAME: _PWM_setDigitalCompareInput   FR SIZE:   0           *
    2490              ;*                                                             *
    2491              ;* FUNCTION ENVIRONMENT                                        *
    2492              ;*                                                             *
    2493              ;* FUNCTION PROPERTIES                                         *
    2494              ;*                            0 Parameter,  0 Auto,  0 SOE     *
    2495              ;***************************************************************
    2496              
    2497              _PWM_setDigitalCompareInput:
    2498              ;* AR4   assigned to _pwmHandle
    2499              $C$DW$196       .dwtag  DW_TAG_variable
    2500                      .dwattr $C$DW$196, DW_AT_name("pwmHandle")
    2501                      .dwattr $C$DW$196, DW_AT_TI_symbol_name("_pwmHandle")
    2502                      .dwattr $C$DW$196, DW_AT_type(*$C$DW$T$127)
    2503                      .dwattr $C$DW$196, DW_AT_location[DW_OP_reg12]
    2504              
    2505              ;* T     assigned to _input
    2506              $C$DW$197       .dwtag  DW_TAG_variable
    2507                      .dwattr $C$DW$197, DW_AT_name("input")
    2508                      .dwattr $C$DW$197, DW_AT_TI_symbol_name("_input")
    2509                      .dwattr $C$DW$197, DW_AT_type(*$C$DW$T$83)
    2510                      .dwattr $C$DW$197, DW_AT_location[DW_OP_reg22]
    2511              
    2512              ;* AH    assigned to _inputSel
    2513              $C$DW$198       .dwtag  DW_TAG_variable
    2514                      .dwattr $C$DW$198, DW_AT_name("inputSel")
    2515                      .dwattr $C$DW$198, DW_AT_TI_symbol_name("_inputSel")
    2516                      .dwattr $C$DW$198, DW_AT_type(*$C$DW$T$86)
    2517                      .dwattr $C$DW$198, DW_AT_location[DW_OP_reg1]
    2518              
    2519                      .dwcfi  cfa_offset, -2
    2520                      .dwcfi  save_reg_to_mem, 26, 0
    2521 000000fb 2DA9          MOV       T,AL                  ; [CPU_ALU] |1074| 
    2522 000000fc 7622   EALLOW
    2523                      .dwpsn  file "D:/ti/motorware/motorware_1_01_00_18/sw/drivers/pwm/src/32b/f28x/f2802x/pwm.c",line 108
    2524 000000fd 83A4          MOVL      XAR5,XAR4             ; [CPU_ALU] |1080| 
    2525 000000fe 9A0F          MOVB      AL,#15                ; [CPU_ALU] |1080| 
    2526 000000ff FF66          LSL       AL,T                  ; [CPU_ALU] |1080| 
    2527                      .dwpsn  file "D:/ti/motorware/motorware_1_01_00_18/sw/drivers/pwm/src/32b/f28x/f2802x/pwm.c",line 108
    2528 00000100 DC30          ADDB      XAR4,#48              ; [CPU_ALU] |1083| 
    2529                      .dwpsn  file "D:/ti/motorware/motorware_1_01_00_18/sw/drivers/pwm/src/32b/f28x/f2802x/pwm.c",line 108
    2530 00000101 FF5E          NOT       AL                    ; [CPU_ALU] |1080| 
    2531 00000102 DD30          ADDB      XAR5,#48              ; [CPU_ALU] |1080| 
    2532 00000103 C0C5          AND       *+XAR5[0],AL          ; [CPU_ALU] |1080| 
    2533                      .dwpsn  file "D:/ti/motorware/motorware_1_01_00_18/sw/drivers/pwm/src/32b/f28x/f2802x/pwm.c",line 108
    2534 00000104 92A8          MOV       AL,AH                 ; [CPU_ALU] |1083| 
    2535 00000105 FF66          LSL       AL,T                  ; [CPU_ALU] |1083| 
    2536 00000106 98C4          OR        *+XAR4[0],AL          ; [CPU_ALU] |1083| 
    2537 00000107 761A   EDIS
    2538 00000108 FF69          SPM       #0                    ; [CPU_ALU] 
    2539              $C$DW$199       .dwtag  DW_TAG_TI_branch
    2540                      .dwattr $C$DW$199, DW_AT_low_pc(0x00)
    2541                      .dwattr $C$DW$199, DW_AT_TI_return
TMS320C2000 Assembler PC v18.1.2 Sun Jun 17 14:52:33 2018

Tools Copyright (c) 1996-2017 Texas Instruments Incorporated
C:\Users\haowp\AppData\Local\Temp\{2610D5B4-5CBC-4747-A1C3-229C8FD63D4F} PAGE   48

    2542              
    2543 00000109 0006          LRETR     ; [CPU_ALU] 
    2544                      ; return occurs ; [] 
    2545                      .dwattr $C$DW$192, DW_AT_TI_end_file("D:/ti/motorware/motorware_1_01_00_18/sw/drivers/pwm/src/32b/f28
    2546                      .dwattr $C$DW$192, DW_AT_TI_end_line(0x440)
    2547                      .dwattr $C$DW$192, DW_AT_TI_end_column(0x01)
    2548                      .dwendentry
    2549                      .dwendtag $C$DW$192
    2550              
    2551 0000010a               .sect   ".text"
    2552                      .clink
    2553                      .global _PWM_setDigitalCompareFilterWindow
    2554              
    2555              $C$DW$200       .dwtag  DW_TAG_subprogram
    2556                      .dwattr $C$DW$200, DW_AT_name("PWM_setDigitalCompareFilterWindow")
    2557                      .dwattr $C$DW$200, DW_AT_low_pc(_PWM_setDigitalCompareFilterWindow)
    2558                      .dwattr $C$DW$200, DW_AT_high_pc(0x00)
    2559                      .dwattr $C$DW$200, DW_AT_TI_symbol_name("_PWM_setDigitalCompareFilterWindow")
    2560                      .dwattr $C$DW$200, DW_AT_external
    2561                      .dwattr $C$DW$200, DW_AT_TI_begin_file("D:/ti/motorware/motorware_1_01_00_18/sw/drivers/pwm/src/32b/f
    2562                      .dwattr $C$DW$200, DW_AT_TI_begin_line(0x423)
    2563                      .dwattr $C$DW$200, DW_AT_TI_begin_column(0x06)
    2564                      .dwattr $C$DW$200, DW_AT_TI_max_frame_size(-2)
    2565                      .dwpsn  file "D:/ti/motorware/motorware_1_01_00_18/sw/drivers/pwm/src/32b/f28x/f2802x/pwm.c",line 106
    2566              
    2567                      .dwfde $C$DW$CIE, _PWM_setDigitalCompareFilterWindow
    2568              $C$DW$201       .dwtag  DW_TAG_formal_parameter
    2569                      .dwattr $C$DW$201, DW_AT_name("pwmHandle")
    2570                      .dwattr $C$DW$201, DW_AT_TI_symbol_name("_pwmHandle")
    2571                      .dwattr $C$DW$201, DW_AT_type(*$C$DW$T$33)
    2572                      .dwattr $C$DW$201, DW_AT_location[DW_OP_reg12]
    2573              
    2574              $C$DW$202       .dwtag  DW_TAG_formal_parameter
    2575                      .dwattr $C$DW$202, DW_AT_name("window")
    2576                      .dwattr $C$DW$202, DW_AT_TI_symbol_name("_window")
    2577                      .dwattr $C$DW$202, DW_AT_type(*$C$DW$T$19)
    2578                      .dwattr $C$DW$202, DW_AT_location[DW_OP_reg0]
    2579              
    2580              
    2581              ;***************************************************************
    2582              ;* FNAME: _PWM_setDigitalCompareFilterWindow FR SIZE:   0           *
    2583              ;*                                                             *
    2584              ;* FUNCTION ENVIRONMENT                                        *
    2585              ;*                                                             *
    2586              ;* FUNCTION PROPERTIES                                         *
    2587              ;*                            0 Parameter,  0 Auto,  0 SOE     *
    2588              ;***************************************************************
    2589              
    2590              _PWM_setDigitalCompareFilterWindow:
    2591              ;* AR4   assigned to _pwmHandle
    2592              $C$DW$203       .dwtag  DW_TAG_variable
    2593                      .dwattr $C$DW$203, DW_AT_name("pwmHandle")
    2594                      .dwattr $C$DW$203, DW_AT_TI_symbol_name("_pwmHandle")
    2595                      .dwattr $C$DW$203, DW_AT_type(*$C$DW$T$127)
    2596                      .dwattr $C$DW$203, DW_AT_location[DW_OP_reg12]
TMS320C2000 Assembler PC v18.1.2 Sun Jun 17 14:52:33 2018

Tools Copyright (c) 1996-2017 Texas Instruments Incorporated
C:\Users\haowp\AppData\Local\Temp\{2610D5B4-5CBC-4747-A1C3-229C8FD63D4F} PAGE   49

    2597              
    2598              ;* AL    assigned to _window
    2599              $C$DW$204       .dwtag  DW_TAG_variable
    2600                      .dwattr $C$DW$204, DW_AT_name("window")
    2601                      .dwattr $C$DW$204, DW_AT_TI_symbol_name("_window")
    2602                      .dwattr $C$DW$204, DW_AT_type(*$C$DW$T$146)
    2603                      .dwattr $C$DW$204, DW_AT_location[DW_OP_reg0]
    2604              
    2605                      .dwcfi  cfa_offset, -2
    2606                      .dwcfi  save_reg_to_mem, 26, 0
    2607                      .dwpsn  file "D:/ti/motorware/motorware_1_01_00_18/sw/drivers/pwm/src/32b/f28x/f2802x/pwm.c",line 106
    2608 0000010a D037          MOVB      XAR0,#55              ; [CPU_ALU] |1065| 
    2609 0000010b 9694          MOV       *+XAR4[AR0],AL        ; [CPU_ALU] |1065| 
    2610              $C$DW$205       .dwtag  DW_TAG_TI_branch
    2611                      .dwattr $C$DW$205, DW_AT_low_pc(0x00)
    2612                      .dwattr $C$DW$205, DW_AT_TI_return
    2613              
    2614 0000010c 0006          LRETR     ; [CPU_ALU] 
    2615                      ; return occurs ; [] 
    2616                      .dwattr $C$DW$200, DW_AT_TI_end_file("D:/ti/motorware/motorware_1_01_00_18/sw/drivers/pwm/src/32b/f28
    2617                      .dwattr $C$DW$200, DW_AT_TI_end_line(0x42c)
    2618                      .dwattr $C$DW$200, DW_AT_TI_end_column(0x01)
    2619                      .dwendentry
    2620                      .dwendtag $C$DW$200
    2621              
    2622 0000010d               .sect   ".text"
    2623                      .clink
    2624                      .global _PWM_setDigitalCompareFilterSource
    2625              
    2626              $C$DW$206       .dwtag  DW_TAG_subprogram
    2627                      .dwattr $C$DW$206, DW_AT_name("PWM_setDigitalCompareFilterSource")
    2628                      .dwattr $C$DW$206, DW_AT_low_pc(_PWM_setDigitalCompareFilterSource)
    2629                      .dwattr $C$DW$206, DW_AT_high_pc(0x00)
    2630                      .dwattr $C$DW$206, DW_AT_TI_symbol_name("_PWM_setDigitalCompareFilterSource")
    2631                      .dwattr $C$DW$206, DW_AT_external
    2632                      .dwattr $C$DW$206, DW_AT_TI_begin_file("D:/ti/motorware/motorware_1_01_00_18/sw/drivers/pwm/src/32b/f
    2633                      .dwattr $C$DW$206, DW_AT_TI_begin_line(0x3f1)
    2634                      .dwattr $C$DW$206, DW_AT_TI_begin_column(0x06)
    2635                      .dwattr $C$DW$206, DW_AT_TI_max_frame_size(-2)
    2636                      .dwpsn  file "D:/ti/motorware/motorware_1_01_00_18/sw/drivers/pwm/src/32b/f28x/f2802x/pwm.c",line 101
    2637              
    2638                      .dwfde $C$DW$CIE, _PWM_setDigitalCompareFilterSource
    2639              $C$DW$207       .dwtag  DW_TAG_formal_parameter
    2640                      .dwattr $C$DW$207, DW_AT_name("pwmHandle")
    2641                      .dwattr $C$DW$207, DW_AT_TI_symbol_name("_pwmHandle")
    2642                      .dwattr $C$DW$207, DW_AT_type(*$C$DW$T$33)
    2643                      .dwattr $C$DW$207, DW_AT_location[DW_OP_reg12]
    2644              
    2645              $C$DW$208       .dwtag  DW_TAG_formal_parameter
    2646                      .dwattr $C$DW$208, DW_AT_name("input")
    2647                      .dwattr $C$DW$208, DW_AT_TI_symbol_name("_input")
    2648                      .dwattr $C$DW$208, DW_AT_type(*$C$DW$T$76)
    2649                      .dwattr $C$DW$208, DW_AT_location[DW_OP_reg0]
    2650              
    2651              
TMS320C2000 Assembler PC v18.1.2 Sun Jun 17 14:52:33 2018

Tools Copyright (c) 1996-2017 Texas Instruments Incorporated
C:\Users\haowp\AppData\Local\Temp\{2610D5B4-5CBC-4747-A1C3-229C8FD63D4F} PAGE   50

    2652              ;***************************************************************
    2653              ;* FNAME: _PWM_setDigitalCompareFilterSource FR SIZE:   0           *
    2654              ;*                                                             *
    2655              ;* FUNCTION ENVIRONMENT                                        *
    2656              ;*                                                             *
    2657              ;* FUNCTION PROPERTIES                                         *
    2658              ;*                            0 Parameter,  0 Auto,  0 SOE     *
    2659              ;***************************************************************
    2660              
    2661              _PWM_setDigitalCompareFilterSource:
    2662              ;* AR4   assigned to _pwmHandle
    2663              $C$DW$209       .dwtag  DW_TAG_variable
    2664                      .dwattr $C$DW$209, DW_AT_name("pwmHandle")
    2665                      .dwattr $C$DW$209, DW_AT_TI_symbol_name("_pwmHandle")
    2666                      .dwattr $C$DW$209, DW_AT_type(*$C$DW$T$127)
    2667                      .dwattr $C$DW$209, DW_AT_location[DW_OP_reg12]
    2668              
    2669              ;* AL    assigned to _input
    2670              $C$DW$210       .dwtag  DW_TAG_variable
    2671                      .dwattr $C$DW$210, DW_AT_name("input")
    2672                      .dwattr $C$DW$210, DW_AT_TI_symbol_name("_input")
    2673                      .dwattr $C$DW$210, DW_AT_type(*$C$DW$T$77)
    2674                      .dwattr $C$DW$210, DW_AT_location[DW_OP_reg0]
    2675              
    2676                      .dwcfi  cfa_offset, -2
    2677                      .dwcfi  save_reg_to_mem, 26, 0
    2678 0000010d 7622   EALLOW
    2679                      .dwpsn  file "D:/ti/motorware/motorware_1_01_00_18/sw/drivers/pwm/src/32b/f28x/f2802x/pwm.c",line 101
    2680 0000010e 83A4          MOVL      XAR5,XAR4             ; [CPU_ALU] |1017| 
    2681                      .dwpsn  file "D:/ti/motorware/motorware_1_01_00_18/sw/drivers/pwm/src/32b/f28x/f2802x/pwm.c",line 102
    2682 0000010f DC33          ADDB      XAR4,#51              ; [CPU_ALU] |1020| 
    2683                      .dwpsn  file "D:/ti/motorware/motorware_1_01_00_18/sw/drivers/pwm/src/32b/f28x/f2802x/pwm.c",line 101
    2684 00000110 DD33          ADDB      XAR5,#51              ; [CPU_ALU] |1017| 
    2685 00000111 18C5          AND       *+XAR5[0],#0xfffc     ; [CPU_ALU] |1017| 
         00000112 FFFC 
    2686                      .dwpsn  file "D:/ti/motorware/motorware_1_01_00_18/sw/drivers/pwm/src/32b/f28x/f2802x/pwm.c",line 102
    2687 00000113 98C4          OR        *+XAR4[0],AL          ; [CPU_ALU] |1020| 
    2688 00000114 761A   EDIS
    2689 00000115 FF69          SPM       #0                    ; [CPU_ALU] 
    2690              $C$DW$211       .dwtag  DW_TAG_TI_branch
    2691                      .dwattr $C$DW$211, DW_AT_low_pc(0x00)
    2692                      .dwattr $C$DW$211, DW_AT_TI_return
    2693              
    2694 00000116 0006          LRETR     ; [CPU_ALU] 
    2695                      ; return occurs ; [] 
    2696                      .dwattr $C$DW$206, DW_AT_TI_end_file("D:/ti/motorware/motorware_1_01_00_18/sw/drivers/pwm/src/32b/f28
    2697                      .dwattr $C$DW$206, DW_AT_TI_end_line(0x401)
    2698                      .dwattr $C$DW$206, DW_AT_TI_end_column(0x01)
    2699                      .dwendentry
    2700                      .dwendtag $C$DW$206
    2701              
    2702 00000117               .sect   ".text"
    2703                      .clink
    2704                      .global _PWM_setDigitalCompareFilterOffset
    2705              
TMS320C2000 Assembler PC v18.1.2 Sun Jun 17 14:52:33 2018

Tools Copyright (c) 1996-2017 Texas Instruments Incorporated
C:\Users\haowp\AppData\Local\Temp\{2610D5B4-5CBC-4747-A1C3-229C8FD63D4F} PAGE   51

    2706              $C$DW$212       .dwtag  DW_TAG_subprogram
    2707                      .dwattr $C$DW$212, DW_AT_name("PWM_setDigitalCompareFilterOffset")
    2708                      .dwattr $C$DW$212, DW_AT_low_pc(_PWM_setDigitalCompareFilterOffset)
    2709                      .dwattr $C$DW$212, DW_AT_high_pc(0x00)
    2710                      .dwattr $C$DW$212, DW_AT_TI_symbol_name("_PWM_setDigitalCompareFilterOffset")
    2711                      .dwattr $C$DW$212, DW_AT_external
    2712                      .dwattr $C$DW$212, DW_AT_TI_begin_file("D:/ti/motorware/motorware_1_01_00_18/sw/drivers/pwm/src/32b/f
    2713                      .dwattr $C$DW$212, DW_AT_TI_begin_line(0x417)
    2714                      .dwattr $C$DW$212, DW_AT_TI_begin_column(0x06)
    2715                      .dwattr $C$DW$212, DW_AT_TI_max_frame_size(-2)
    2716                      .dwpsn  file "D:/ti/motorware/motorware_1_01_00_18/sw/drivers/pwm/src/32b/f28x/f2802x/pwm.c",line 104
    2717              
    2718                      .dwfde $C$DW$CIE, _PWM_setDigitalCompareFilterOffset
    2719              $C$DW$213       .dwtag  DW_TAG_formal_parameter
    2720                      .dwattr $C$DW$213, DW_AT_name("pwmHandle")
    2721                      .dwattr $C$DW$213, DW_AT_TI_symbol_name("_pwmHandle")
    2722                      .dwattr $C$DW$213, DW_AT_type(*$C$DW$T$33)
    2723                      .dwattr $C$DW$213, DW_AT_location[DW_OP_reg12]
    2724              
    2725              $C$DW$214       .dwtag  DW_TAG_formal_parameter
    2726                      .dwattr $C$DW$214, DW_AT_name("offset")
    2727                      .dwattr $C$DW$214, DW_AT_TI_symbol_name("_offset")
    2728                      .dwattr $C$DW$214, DW_AT_type(*$C$DW$T$19)
    2729                      .dwattr $C$DW$214, DW_AT_location[DW_OP_reg0]
    2730              
    2731              
    2732              ;***************************************************************
    2733              ;* FNAME: _PWM_setDigitalCompareFilterOffset FR SIZE:   0           *
    2734              ;*                                                             *
    2735              ;* FUNCTION ENVIRONMENT                                        *
    2736              ;*                                                             *
    2737              ;* FUNCTION PROPERTIES                                         *
    2738              ;*                            0 Parameter,  0 Auto,  0 SOE     *
    2739              ;***************************************************************
    2740              
    2741              _PWM_setDigitalCompareFilterOffset:
    2742              ;* AR4   assigned to _pwmHandle
    2743              $C$DW$215       .dwtag  DW_TAG_variable
    2744                      .dwattr $C$DW$215, DW_AT_name("pwmHandle")
    2745                      .dwattr $C$DW$215, DW_AT_TI_symbol_name("_pwmHandle")
    2746                      .dwattr $C$DW$215, DW_AT_type(*$C$DW$T$127)
    2747                      .dwattr $C$DW$215, DW_AT_location[DW_OP_reg12]
    2748              
    2749              ;* AL    assigned to _offset
    2750              $C$DW$216       .dwtag  DW_TAG_variable
    2751                      .dwattr $C$DW$216, DW_AT_name("offset")
    2752                      .dwattr $C$DW$216, DW_AT_TI_symbol_name("_offset")
    2753                      .dwattr $C$DW$216, DW_AT_type(*$C$DW$T$146)
    2754                      .dwattr $C$DW$216, DW_AT_location[DW_OP_reg0]
    2755              
    2756                      .dwcfi  cfa_offset, -2
    2757                      .dwcfi  save_reg_to_mem, 26, 0
    2758                      .dwpsn  file "D:/ti/motorware/motorware_1_01_00_18/sw/drivers/pwm/src/32b/f28x/f2802x/pwm.c",line 105
    2759 00000117 D035          MOVB      XAR0,#53              ; [CPU_ALU] |1053| 
    2760 00000118 9694          MOV       *+XAR4[AR0],AL        ; [CPU_ALU] |1053| 
TMS320C2000 Assembler PC v18.1.2 Sun Jun 17 14:52:33 2018

Tools Copyright (c) 1996-2017 Texas Instruments Incorporated
C:\Users\haowp\AppData\Local\Temp\{2610D5B4-5CBC-4747-A1C3-229C8FD63D4F} PAGE   52

    2761              $C$DW$217       .dwtag  DW_TAG_TI_branch
    2762                      .dwattr $C$DW$217, DW_AT_low_pc(0x00)
    2763                      .dwattr $C$DW$217, DW_AT_TI_return
    2764              
    2765 00000119 0006          LRETR     ; [CPU_ALU] 
    2766                      ; return occurs ; [] 
    2767                      .dwattr $C$DW$212, DW_AT_TI_end_file("D:/ti/motorware/motorware_1_01_00_18/sw/drivers/pwm/src/32b/f28
    2768                      .dwattr $C$DW$212, DW_AT_TI_end_line(0x420)
    2769                      .dwattr $C$DW$212, DW_AT_TI_end_column(0x01)
    2770                      .dwendentry
    2771                      .dwendtag $C$DW$212
    2772              
    2773 0000011a               .sect   ".text"
    2774                      .clink
    2775                      .global _PWM_setDigitalCompareBlankingPulse
    2776              
    2777              $C$DW$218       .dwtag  DW_TAG_subprogram
    2778                      .dwattr $C$DW$218, DW_AT_name("PWM_setDigitalCompareBlankingPulse")
    2779                      .dwattr $C$DW$218, DW_AT_low_pc(_PWM_setDigitalCompareBlankingPulse)
    2780                      .dwattr $C$DW$218, DW_AT_high_pc(0x00)
    2781                      .dwattr $C$DW$218, DW_AT_TI_symbol_name("_PWM_setDigitalCompareBlankingPulse")
    2782                      .dwattr $C$DW$218, DW_AT_external
    2783                      .dwattr $C$DW$218, DW_AT_TI_begin_file("D:/ti/motorware/motorware_1_01_00_18/sw/drivers/pwm/src/32b/f
    2784                      .dwattr $C$DW$218, DW_AT_TI_begin_line(0x404)
    2785                      .dwattr $C$DW$218, DW_AT_TI_begin_column(0x06)
    2786                      .dwattr $C$DW$218, DW_AT_TI_max_frame_size(-2)
    2787                      .dwpsn  file "D:/ti/motorware/motorware_1_01_00_18/sw/drivers/pwm/src/32b/f28x/f2802x/pwm.c",line 103
    2788              
    2789                      .dwfde $C$DW$CIE, _PWM_setDigitalCompareBlankingPulse
    2790              $C$DW$219       .dwtag  DW_TAG_formal_parameter
    2791                      .dwattr $C$DW$219, DW_AT_name("pwmHandle")
    2792                      .dwattr $C$DW$219, DW_AT_TI_symbol_name("_pwmHandle")
    2793                      .dwattr $C$DW$219, DW_AT_type(*$C$DW$T$33)
    2794                      .dwattr $C$DW$219, DW_AT_location[DW_OP_reg12]
    2795              
    2796              $C$DW$220       .dwtag  DW_TAG_formal_parameter
    2797                      .dwattr $C$DW$220, DW_AT_name("pulseSelect")
    2798                      .dwattr $C$DW$220, DW_AT_TI_symbol_name("_pulseSelect")
    2799                      .dwattr $C$DW$220, DW_AT_type(*$C$DW$T$79)
    2800                      .dwattr $C$DW$220, DW_AT_location[DW_OP_reg0]
    2801              
    2802              
    2803              ;***************************************************************
    2804              ;* FNAME: _PWM_setDigitalCompareBlankingPulse FR SIZE:   0           *
    2805              ;*                                                             *
    2806              ;* FUNCTION ENVIRONMENT                                        *
    2807              ;*                                                             *
    2808              ;* FUNCTION PROPERTIES                                         *
    2809              ;*                            0 Parameter,  0 Auto,  0 SOE     *
    2810              ;***************************************************************
    2811              
    2812              _PWM_setDigitalCompareBlankingPulse:
    2813              ;* AR4   assigned to _pwmHandle
    2814              $C$DW$221       .dwtag  DW_TAG_variable
    2815                      .dwattr $C$DW$221, DW_AT_name("pwmHandle")
TMS320C2000 Assembler PC v18.1.2 Sun Jun 17 14:52:33 2018

Tools Copyright (c) 1996-2017 Texas Instruments Incorporated
C:\Users\haowp\AppData\Local\Temp\{2610D5B4-5CBC-4747-A1C3-229C8FD63D4F} PAGE   53

    2816                      .dwattr $C$DW$221, DW_AT_TI_symbol_name("_pwmHandle")
    2817                      .dwattr $C$DW$221, DW_AT_type(*$C$DW$T$127)
    2818                      .dwattr $C$DW$221, DW_AT_location[DW_OP_reg12]
    2819              
    2820              ;* AL    assigned to _pulseSelect
    2821              $C$DW$222       .dwtag  DW_TAG_variable
    2822                      .dwattr $C$DW$222, DW_AT_name("pulseSelect")
    2823                      .dwattr $C$DW$222, DW_AT_TI_symbol_name("_pulseSelect")
    2824                      .dwattr $C$DW$222, DW_AT_type(*$C$DW$T$80)
    2825                      .dwattr $C$DW$222, DW_AT_location[DW_OP_reg0]
    2826              
    2827                      .dwcfi  cfa_offset, -2
    2828                      .dwcfi  save_reg_to_mem, 26, 0
    2829 0000011a 7622   EALLOW
    2830                      .dwpsn  file "D:/ti/motorware/motorware_1_01_00_18/sw/drivers/pwm/src/32b/f28x/f2802x/pwm.c",line 103
    2831 0000011b 83A4          MOVL      XAR5,XAR4             ; [CPU_ALU] |1036| 
    2832                      .dwpsn  file "D:/ti/motorware/motorware_1_01_00_18/sw/drivers/pwm/src/32b/f28x/f2802x/pwm.c",line 103
    2833 0000011c 5603          MOV       ACC,AL << #4          ; [CPU_ALU] |1039| 
         0000011d 04A9 
    2834 0000011e DC33          ADDB      XAR4,#51              ; [CPU_ALU] |1039| 
    2835                      .dwpsn  file "D:/ti/motorware/motorware_1_01_00_18/sw/drivers/pwm/src/32b/f28x/f2802x/pwm.c",line 103
    2836 0000011f DD33          ADDB      XAR5,#51              ; [CPU_ALU] |1036| 
    2837 00000120 18C5          AND       *+XAR5[0],#0xffcf     ; [CPU_ALU] |1036| 
         00000121 FFCF 
    2838                      .dwpsn  file "D:/ti/motorware/motorware_1_01_00_18/sw/drivers/pwm/src/32b/f28x/f2802x/pwm.c",line 103
    2839 00000122 98C4          OR        *+XAR4[0],AL          ; [CPU_ALU] |1039| 
    2840 00000123 761A   EDIS
    2841 00000124 FF69          SPM       #0                    ; [CPU_ALU] 
    2842              $C$DW$223       .dwtag  DW_TAG_TI_branch
    2843                      .dwattr $C$DW$223, DW_AT_low_pc(0x00)
    2844                      .dwattr $C$DW$223, DW_AT_TI_return
    2845              
    2846 00000125 0006          LRETR     ; [CPU_ALU] 
    2847                      ; return occurs ; [] 
    2848                      .dwattr $C$DW$218, DW_AT_TI_end_file("D:/ti/motorware/motorware_1_01_00_18/sw/drivers/pwm/src/32b/f28
    2849                      .dwattr $C$DW$218, DW_AT_TI_end_line(0x414)
    2850                      .dwattr $C$DW$218, DW_AT_TI_end_column(0x01)
    2851                      .dwendentry
    2852                      .dwendtag $C$DW$218
    2853              
    2854 00000126               .sect   ".text"
    2855                      .clink
    2856                      .global _PWM_setDigitalCompareBEvent2
    2857              
    2858              $C$DW$224       .dwtag  DW_TAG_subprogram
    2859                      .dwattr $C$DW$224, DW_AT_name("PWM_setDigitalCompareBEvent2")
    2860                      .dwattr $C$DW$224, DW_AT_low_pc(_PWM_setDigitalCompareBEvent2)
    2861                      .dwattr $C$DW$224, DW_AT_high_pc(0x00)
    2862                      .dwattr $C$DW$224, DW_AT_TI_symbol_name("_PWM_setDigitalCompareBEvent2")
    2863                      .dwattr $C$DW$224, DW_AT_external
    2864                      .dwattr $C$DW$224, DW_AT_TI_begin_file("D:/ti/motorware/motorware_1_01_00_18/sw/drivers/pwm/src/32b/f
    2865                      .dwattr $C$DW$224, DW_AT_TI_begin_line(0x483)
    2866                      .dwattr $C$DW$224, DW_AT_TI_begin_column(0x06)
    2867                      .dwattr $C$DW$224, DW_AT_TI_max_frame_size(-2)
    2868                      .dwpsn  file "D:/ti/motorware/motorware_1_01_00_18/sw/drivers/pwm/src/32b/f28x/f2802x/pwm.c",line 115
TMS320C2000 Assembler PC v18.1.2 Sun Jun 17 14:52:33 2018

Tools Copyright (c) 1996-2017 Texas Instruments Incorporated
C:\Users\haowp\AppData\Local\Temp\{2610D5B4-5CBC-4747-A1C3-229C8FD63D4F} PAGE   54

    2869              
    2870                      .dwfde $C$DW$CIE, _PWM_setDigitalCompareBEvent2
    2871              $C$DW$225       .dwtag  DW_TAG_formal_parameter
    2872                      .dwattr $C$DW$225, DW_AT_name("pwmHandle")
    2873                      .dwattr $C$DW$225, DW_AT_TI_symbol_name("_pwmHandle")
    2874                      .dwattr $C$DW$225, DW_AT_type(*$C$DW$T$33)
    2875                      .dwattr $C$DW$225, DW_AT_location[DW_OP_reg12]
    2876              
    2877              $C$DW$226       .dwtag  DW_TAG_formal_parameter
    2878                      .dwattr $C$DW$226, DW_AT_name("selectFilter")
    2879                      .dwattr $C$DW$226, DW_AT_TI_symbol_name("_selectFilter")
    2880                      .dwattr $C$DW$226, DW_AT_type(*$C$DW$T$155)
    2881                      .dwattr $C$DW$226, DW_AT_location[DW_OP_reg0]
    2882              
    2883              $C$DW$227       .dwtag  DW_TAG_formal_parameter
    2884                      .dwattr $C$DW$227, DW_AT_name("disableSync")
    2885                      .dwattr $C$DW$227, DW_AT_TI_symbol_name("_disableSync")
    2886                      .dwattr $C$DW$227, DW_AT_type(*$C$DW$T$155)
    2887                      .dwattr $C$DW$227, DW_AT_location[DW_OP_reg1]
    2888              
    2889              
    2890              ;***************************************************************
    2891              ;* FNAME: _PWM_setDigitalCompareBEvent2 FR SIZE:   0           *
    2892              ;*                                                             *
    2893              ;* FUNCTION ENVIRONMENT                                        *
    2894              ;*                                                             *
    2895              ;* FUNCTION PROPERTIES                                         *
    2896              ;*                            0 Parameter,  0 Auto,  0 SOE     *
    2897              ;***************************************************************
    2898              
    2899              _PWM_setDigitalCompareBEvent2:
    2900              ;* AR4   assigned to _pwmHandle
    2901              $C$DW$228       .dwtag  DW_TAG_variable
    2902                      .dwattr $C$DW$228, DW_AT_name("pwmHandle")
    2903                      .dwattr $C$DW$228, DW_AT_TI_symbol_name("_pwmHandle")
    2904                      .dwattr $C$DW$228, DW_AT_type(*$C$DW$T$127)
    2905                      .dwattr $C$DW$228, DW_AT_location[DW_OP_reg12]
    2906              
    2907              ;* AR6   assigned to _selectFilter
    2908              $C$DW$229       .dwtag  DW_TAG_variable
    2909                      .dwattr $C$DW$229, DW_AT_name("selectFilter")
    2910                      .dwattr $C$DW$229, DW_AT_TI_symbol_name("_selectFilter")
    2911                      .dwattr $C$DW$229, DW_AT_type(*$C$DW$T$156)
    2912                      .dwattr $C$DW$229, DW_AT_location[DW_OP_reg16]
    2913              
    2914              ;* AH    assigned to _disableSync
    2915              $C$DW$230       .dwtag  DW_TAG_variable
    2916                      .dwattr $C$DW$230, DW_AT_name("disableSync")
    2917                      .dwattr $C$DW$230, DW_AT_TI_symbol_name("_disableSync")
    2918                      .dwattr $C$DW$230, DW_AT_type(*$C$DW$T$156)
    2919                      .dwattr $C$DW$230, DW_AT_location[DW_OP_reg1]
    2920              
    2921                      .dwcfi  cfa_offset, -2
    2922                      .dwcfi  save_reg_to_mem, 26, 0
    2923 00000126 88A9          MOVZ      AR6,AL                ; [CPU_ALU] |1158| 
TMS320C2000 Assembler PC v18.1.2 Sun Jun 17 14:52:33 2018

Tools Copyright (c) 1996-2017 Texas Instruments Incorporated
C:\Users\haowp\AppData\Local\Temp\{2610D5B4-5CBC-4747-A1C3-229C8FD63D4F} PAGE   55

    2924 00000127 7622   EALLOW
    2925                      .dwpsn  file "D:/ti/motorware/motorware_1_01_00_18/sw/drivers/pwm/src/32b/f28x/f2802x/pwm.c",line 116
    2926 00000128 83A4          MOVL      XAR5,XAR4             ; [CPU_ALU] |1164| 
    2927                      .dwpsn  file "D:/ti/motorware/motorware_1_01_00_18/sw/drivers/pwm/src/32b/f28x/f2802x/pwm.c",line 116
    2928 00000129 5603          MOV       ACC,AH << #1          ; [CPU_ALU] |1167| 
         0000012a 01A8 
    2929 0000012b DC32          ADDB      XAR4,#50              ; [CPU_ALU] |1167| 
    2930 0000012c CAA6          OR        AL,AR6                ; [CPU_ALU] |1167| 
    2931 0000012d 5603          MOV       ACC,AL << #8          ; [CPU_ALU] |1167| 
         0000012e 08A9 
    2932                      .dwpsn  file "D:/ti/motorware/motorware_1_01_00_18/sw/drivers/pwm/src/32b/f28x/f2802x/pwm.c",line 116
    2933 0000012f DD32          ADDB      XAR5,#50              ; [CPU_ALU] |1164| 
    2934 00000130 18C5          AND       *+XAR5[0],#0xfcff     ; [CPU_ALU] |1164| 
         00000131 FCFF 
    2935                      .dwpsn  file "D:/ti/motorware/motorware_1_01_00_18/sw/drivers/pwm/src/32b/f28x/f2802x/pwm.c",line 116
    2936 00000132 98C4          OR        *+XAR4[0],AL          ; [CPU_ALU] |1167| 
    2937 00000133 761A   EDIS
    2938 00000134 FF69          SPM       #0                    ; [CPU_ALU] 
    2939              $C$DW$231       .dwtag  DW_TAG_TI_branch
    2940                      .dwattr $C$DW$231, DW_AT_low_pc(0x00)
    2941                      .dwattr $C$DW$231, DW_AT_TI_return
    2942              
    2943 00000135 0006          LRETR     ; [CPU_ALU] 
    2944                      ; return occurs ; [] 
    2945                      .dwattr $C$DW$224, DW_AT_TI_end_file("D:/ti/motorware/motorware_1_01_00_18/sw/drivers/pwm/src/32b/f28
    2946                      .dwattr $C$DW$224, DW_AT_TI_end_line(0x494)
    2947                      .dwattr $C$DW$224, DW_AT_TI_end_column(0x01)
    2948                      .dwendentry
    2949                      .dwendtag $C$DW$224
    2950              
    2951 00000136               .sect   ".text"
    2952                      .clink
    2953                      .global _PWM_setDigitalCompareBEvent1
    2954              
    2955              $C$DW$232       .dwtag  DW_TAG_subprogram
    2956                      .dwattr $C$DW$232, DW_AT_name("PWM_setDigitalCompareBEvent1")
    2957                      .dwattr $C$DW$232, DW_AT_low_pc(_PWM_setDigitalCompareBEvent1)
    2958                      .dwattr $C$DW$232, DW_AT_high_pc(0x00)
    2959                      .dwattr $C$DW$232, DW_AT_TI_symbol_name("_PWM_setDigitalCompareBEvent1")
    2960                      .dwattr $C$DW$232, DW_AT_external
    2961                      .dwattr $C$DW$232, DW_AT_TI_begin_file("D:/ti/motorware/motorware_1_01_00_18/sw/drivers/pwm/src/32b/f
    2962                      .dwattr $C$DW$232, DW_AT_TI_begin_line(0x46d)
    2963                      .dwattr $C$DW$232, DW_AT_TI_begin_column(0x06)
    2964                      .dwattr $C$DW$232, DW_AT_TI_max_frame_size(-2)
    2965                      .dwpsn  file "D:/ti/motorware/motorware_1_01_00_18/sw/drivers/pwm/src/32b/f28x/f2802x/pwm.c",line 113
    2966              
    2967                      .dwfde $C$DW$CIE, _PWM_setDigitalCompareBEvent1
    2968              $C$DW$233       .dwtag  DW_TAG_formal_parameter
    2969                      .dwattr $C$DW$233, DW_AT_name("pwmHandle")
    2970                      .dwattr $C$DW$233, DW_AT_TI_symbol_name("_pwmHandle")
    2971                      .dwattr $C$DW$233, DW_AT_type(*$C$DW$T$33)
    2972                      .dwattr $C$DW$233, DW_AT_location[DW_OP_reg12]
    2973              
    2974              $C$DW$234       .dwtag  DW_TAG_formal_parameter
    2975                      .dwattr $C$DW$234, DW_AT_name("selectFilter")
TMS320C2000 Assembler PC v18.1.2 Sun Jun 17 14:52:33 2018

Tools Copyright (c) 1996-2017 Texas Instruments Incorporated
C:\Users\haowp\AppData\Local\Temp\{2610D5B4-5CBC-4747-A1C3-229C8FD63D4F} PAGE   56

    2976                      .dwattr $C$DW$234, DW_AT_TI_symbol_name("_selectFilter")
    2977                      .dwattr $C$DW$234, DW_AT_type(*$C$DW$T$155)
    2978                      .dwattr $C$DW$234, DW_AT_location[DW_OP_reg0]
    2979              
    2980              $C$DW$235       .dwtag  DW_TAG_formal_parameter
    2981                      .dwattr $C$DW$235, DW_AT_name("disableSync")
    2982                      .dwattr $C$DW$235, DW_AT_TI_symbol_name("_disableSync")
    2983                      .dwattr $C$DW$235, DW_AT_type(*$C$DW$T$155)
    2984                      .dwattr $C$DW$235, DW_AT_location[DW_OP_reg1]
    2985              
    2986              $C$DW$236       .dwtag  DW_TAG_formal_parameter
    2987                      .dwattr $C$DW$236, DW_AT_name("enableSoc")
    2988                      .dwattr $C$DW$236, DW_AT_TI_symbol_name("_enableSoc")
    2989                      .dwattr $C$DW$236, DW_AT_type(*$C$DW$T$155)
    2990                      .dwattr $C$DW$236, DW_AT_location[DW_OP_reg14]
    2991              
    2992              $C$DW$237       .dwtag  DW_TAG_formal_parameter
    2993                      .dwattr $C$DW$237, DW_AT_name("generateSync")
    2994                      .dwattr $C$DW$237, DW_AT_TI_symbol_name("_generateSync")
    2995                      .dwattr $C$DW$237, DW_AT_type(*$C$DW$T$155)
    2996                      .dwattr $C$DW$237, DW_AT_location[DW_OP_breg20 -3]
    2997              
    2998              
    2999              ;***************************************************************
    3000              ;* FNAME: _PWM_setDigitalCompareBEvent1 FR SIZE:   0           *
    3001              ;*                                                             *
    3002              ;* FUNCTION ENVIRONMENT                                        *
    3003              ;*                                                             *
    3004              ;* FUNCTION PROPERTIES                                         *
    3005              ;*                            0 Parameter,  0 Auto,  0 SOE     *
    3006              ;***************************************************************
    3007              
    3008              _PWM_setDigitalCompareBEvent1:
    3009              ;* AR4   assigned to _pwmHandle
    3010              $C$DW$238       .dwtag  DW_TAG_variable
    3011                      .dwattr $C$DW$238, DW_AT_name("pwmHandle")
    3012                      .dwattr $C$DW$238, DW_AT_TI_symbol_name("_pwmHandle")
    3013                      .dwattr $C$DW$238, DW_AT_type(*$C$DW$T$127)
    3014                      .dwattr $C$DW$238, DW_AT_location[DW_OP_reg12]
    3015              
    3016              ;* AR7   assigned to _selectFilter
    3017              $C$DW$239       .dwtag  DW_TAG_variable
    3018                      .dwattr $C$DW$239, DW_AT_name("selectFilter")
    3019                      .dwattr $C$DW$239, DW_AT_TI_symbol_name("_selectFilter")
    3020                      .dwattr $C$DW$239, DW_AT_type(*$C$DW$T$156)
    3021                      .dwattr $C$DW$239, DW_AT_location[DW_OP_reg18]
    3022              
    3023              ;* AH    assigned to _disableSync
    3024              $C$DW$240       .dwtag  DW_TAG_variable
    3025                      .dwattr $C$DW$240, DW_AT_name("disableSync")
    3026                      .dwattr $C$DW$240, DW_AT_TI_symbol_name("_disableSync")
    3027                      .dwattr $C$DW$240, DW_AT_type(*$C$DW$T$156)
    3028                      .dwattr $C$DW$240, DW_AT_location[DW_OP_reg1]
    3029              
    3030              ;* AR5   assigned to _enableSoc
TMS320C2000 Assembler PC v18.1.2 Sun Jun 17 14:52:33 2018

Tools Copyright (c) 1996-2017 Texas Instruments Incorporated
C:\Users\haowp\AppData\Local\Temp\{2610D5B4-5CBC-4747-A1C3-229C8FD63D4F} PAGE   57

    3031              $C$DW$241       .dwtag  DW_TAG_variable
    3032                      .dwattr $C$DW$241, DW_AT_name("enableSoc")
    3033                      .dwattr $C$DW$241, DW_AT_TI_symbol_name("_enableSoc")
    3034                      .dwattr $C$DW$241, DW_AT_type(*$C$DW$T$156)
    3035                      .dwattr $C$DW$241, DW_AT_location[DW_OP_reg14]
    3036              
    3037              ;* PL    assigned to _generateSync
    3038              $C$DW$242       .dwtag  DW_TAG_variable
    3039                      .dwattr $C$DW$242, DW_AT_name("generateSync")
    3040                      .dwattr $C$DW$242, DW_AT_TI_symbol_name("_generateSync")
    3041                      .dwattr $C$DW$242, DW_AT_type(*$C$DW$T$156)
    3042                      .dwattr $C$DW$242, DW_AT_location[DW_OP_reg2]
    3043              
    3044                      .dwcfi  cfa_offset, -2
    3045                      .dwcfi  save_reg_to_mem, 26, 0
    3046 00000136 80A9          MOVZ      AR7,AL                ; [CPU_ALU] |1138| 
    3047 00000137 2743          MOV       PL,*-SP[3]            ; [CPU_ALU] |1138| 
    3048 00000138 7622   EALLOW
    3049                      .dwpsn  file "D:/ti/motorware/motorware_1_01_00_18/sw/drivers/pwm/src/32b/f28x/f2802x/pwm.c",line 114
    3050 00000139 C4A4          MOVL      XAR6,XAR4             ; [CPU_ALU] |1144| 
    3051                      .dwpsn  file "D:/ti/motorware/motorware_1_01_00_18/sw/drivers/pwm/src/32b/f28x/f2802x/pwm.c",line 114
    3052 0000013a 5603          MOV       ACC,AH << #1          ; [CPU_ALU] |1147| 
         0000013b 01A8 
    3053 0000013c DC32          ADDB      XAR4,#50              ; [CPU_ALU] |1147| 
    3054 0000013d 93A9          MOV       AH,AL                 ; [CPU_ALU] |1147| 
    3055                      .dwpsn  file "D:/ti/motorware/motorware_1_01_00_18/sw/drivers/pwm/src/32b/f28x/f2802x/pwm.c",line 114
    3056 0000013e DE32          ADDB      XAR6,#50              ; [CPU_ALU] |1144| 
    3057 0000013f 18C6          AND       *+XAR6[0],#0xfff0     ; [CPU_ALU] |1144| 
         00000140 FFF0 
    3058                      .dwpsn  file "D:/ti/motorware/motorware_1_01_00_18/sw/drivers/pwm/src/32b/f28x/f2802x/pwm.c",line 114
    3059 00000141 CBC4          OR        AH,*+XAR4[0]          ; [CPU_ALU] |1147| 
    3060 00000142 88A8          MOVZ      AR6,AH                ; [CPU_ALU] |1147| 
    3061 00000143 5603          MOV       ACC,AR5 << #2         ; [CPU_ALU] |1147| 
         00000144 02A5 
    3062 00000145 93A9          MOV       AH,AL                 ; [CPU_ALU] |1147| 
    3063 00000146 CBA6          OR        AH,AR6                ; [CPU_ALU] |1147| 
    3064 00000147 2FA8          MOV       PH,AH                 ; [CPU_ALU] |1147| 
    3065 00000148 5603          MOV       ACC,PL << #3          ; [CPU_ALU] |1147| 
         00000149 03AB 
    3066 0000014a CAAA          OR        AL,PH                 ; [CPU_ALU] |1147| 
    3067 0000014b CAA7          OR        AL,AR7                ; [CPU_ALU] |1147| 
    3068 0000014c 96C4          MOV       *+XAR4[0],AL          ; [CPU_ALU] |1147| 
    3069 0000014d 761A   EDIS
    3070 0000014e FF69          SPM       #0                    ; [CPU_ALU] 
    3071              $C$DW$243       .dwtag  DW_TAG_TI_branch
    3072                      .dwattr $C$DW$243, DW_AT_low_pc(0x00)
    3073                      .dwattr $C$DW$243, DW_AT_TI_return
    3074              
    3075 0000014f 0006          LRETR     ; [CPU_ALU] 
    3076                      ; return occurs ; [] 
    3077                      .dwattr $C$DW$232, DW_AT_TI_end_file("D:/ti/motorware/motorware_1_01_00_18/sw/drivers/pwm/src/32b/f28
    3078                      .dwattr $C$DW$232, DW_AT_TI_end_line(0x480)
    3079                      .dwattr $C$DW$232, DW_AT_TI_end_column(0x01)
    3080                      .dwendentry
    3081                      .dwendtag $C$DW$232
TMS320C2000 Assembler PC v18.1.2 Sun Jun 17 14:52:33 2018

Tools Copyright (c) 1996-2017 Texas Instruments Incorporated
C:\Users\haowp\AppData\Local\Temp\{2610D5B4-5CBC-4747-A1C3-229C8FD63D4F} PAGE   58

    3082              
    3083 00000150               .sect   ".text"
    3084                      .clink
    3085                      .global _PWM_setDigitalCompareAEvent2
    3086              
    3087              $C$DW$244       .dwtag  DW_TAG_subprogram
    3088                      .dwattr $C$DW$244, DW_AT_name("PWM_setDigitalCompareAEvent2")
    3089                      .dwattr $C$DW$244, DW_AT_low_pc(_PWM_setDigitalCompareAEvent2)
    3090                      .dwattr $C$DW$244, DW_AT_high_pc(0x00)
    3091                      .dwattr $C$DW$244, DW_AT_TI_symbol_name("_PWM_setDigitalCompareAEvent2")
    3092                      .dwattr $C$DW$244, DW_AT_external
    3093                      .dwattr $C$DW$244, DW_AT_TI_begin_file("D:/ti/motorware/motorware_1_01_00_18/sw/drivers/pwm/src/32b/f
    3094                      .dwattr $C$DW$244, DW_AT_TI_begin_line(0x459)
    3095                      .dwattr $C$DW$244, DW_AT_TI_begin_column(0x06)
    3096                      .dwattr $C$DW$244, DW_AT_TI_max_frame_size(-2)
    3097                      .dwpsn  file "D:/ti/motorware/motorware_1_01_00_18/sw/drivers/pwm/src/32b/f28x/f2802x/pwm.c",line 111
    3098              
    3099                      .dwfde $C$DW$CIE, _PWM_setDigitalCompareAEvent2
    3100              $C$DW$245       .dwtag  DW_TAG_formal_parameter
    3101                      .dwattr $C$DW$245, DW_AT_name("pwmHandle")
    3102                      .dwattr $C$DW$245, DW_AT_TI_symbol_name("_pwmHandle")
    3103                      .dwattr $C$DW$245, DW_AT_type(*$C$DW$T$33)
    3104                      .dwattr $C$DW$245, DW_AT_location[DW_OP_reg12]
    3105              
    3106              $C$DW$246       .dwtag  DW_TAG_formal_parameter
    3107                      .dwattr $C$DW$246, DW_AT_name("selectFilter")
    3108                      .dwattr $C$DW$246, DW_AT_TI_symbol_name("_selectFilter")
    3109                      .dwattr $C$DW$246, DW_AT_type(*$C$DW$T$155)
    3110                      .dwattr $C$DW$246, DW_AT_location[DW_OP_reg0]
    3111              
    3112              $C$DW$247       .dwtag  DW_TAG_formal_parameter
    3113                      .dwattr $C$DW$247, DW_AT_name("disableSync")
    3114                      .dwattr $C$DW$247, DW_AT_TI_symbol_name("_disableSync")
    3115                      .dwattr $C$DW$247, DW_AT_type(*$C$DW$T$155)
    3116                      .dwattr $C$DW$247, DW_AT_location[DW_OP_reg1]
    3117              
    3118              
    3119              ;***************************************************************
    3120              ;* FNAME: _PWM_setDigitalCompareAEvent2 FR SIZE:   0           *
    3121              ;*                                                             *
    3122              ;* FUNCTION ENVIRONMENT                                        *
    3123              ;*                                                             *
    3124              ;* FUNCTION PROPERTIES                                         *
    3125              ;*                            0 Parameter,  0 Auto,  0 SOE     *
    3126              ;***************************************************************
    3127              
    3128              _PWM_setDigitalCompareAEvent2:
    3129              ;* AR4   assigned to _pwmHandle
    3130              $C$DW$248       .dwtag  DW_TAG_variable
    3131                      .dwattr $C$DW$248, DW_AT_name("pwmHandle")
    3132                      .dwattr $C$DW$248, DW_AT_TI_symbol_name("_pwmHandle")
    3133                      .dwattr $C$DW$248, DW_AT_type(*$C$DW$T$127)
    3134                      .dwattr $C$DW$248, DW_AT_location[DW_OP_reg12]
    3135              
    3136              ;* AR6   assigned to _selectFilter
TMS320C2000 Assembler PC v18.1.2 Sun Jun 17 14:52:33 2018

Tools Copyright (c) 1996-2017 Texas Instruments Incorporated
C:\Users\haowp\AppData\Local\Temp\{2610D5B4-5CBC-4747-A1C3-229C8FD63D4F} PAGE   59

    3137              $C$DW$249       .dwtag  DW_TAG_variable
    3138                      .dwattr $C$DW$249, DW_AT_name("selectFilter")
    3139                      .dwattr $C$DW$249, DW_AT_TI_symbol_name("_selectFilter")
    3140                      .dwattr $C$DW$249, DW_AT_type(*$C$DW$T$156)
    3141                      .dwattr $C$DW$249, DW_AT_location[DW_OP_reg16]
    3142              
    3143              ;* AH    assigned to _disableSync
    3144              $C$DW$250       .dwtag  DW_TAG_variable
    3145                      .dwattr $C$DW$250, DW_AT_name("disableSync")
    3146                      .dwattr $C$DW$250, DW_AT_TI_symbol_name("_disableSync")
    3147                      .dwattr $C$DW$250, DW_AT_type(*$C$DW$T$156)
    3148                      .dwattr $C$DW$250, DW_AT_location[DW_OP_reg1]
    3149              
    3150                      .dwcfi  cfa_offset, -2
    3151                      .dwcfi  save_reg_to_mem, 26, 0
    3152 00000150 88A9          MOVZ      AR6,AL                ; [CPU_ALU] |1116| 
    3153 00000151 7622   EALLOW
    3154                      .dwpsn  file "D:/ti/motorware/motorware_1_01_00_18/sw/drivers/pwm/src/32b/f28x/f2802x/pwm.c",line 112
    3155 00000152 83A4          MOVL      XAR5,XAR4             ; [CPU_ALU] |1122| 
    3156                      .dwpsn  file "D:/ti/motorware/motorware_1_01_00_18/sw/drivers/pwm/src/32b/f28x/f2802x/pwm.c",line 112
    3157 00000153 5603          MOV       ACC,AH << #1          ; [CPU_ALU] |1125| 
         00000154 01A8 
    3158 00000155 DC31          ADDB      XAR4,#49              ; [CPU_ALU] |1125| 
    3159 00000156 CAA6          OR        AL,AR6                ; [CPU_ALU] |1125| 
    3160 00000157 5603          MOV       ACC,AL << #8          ; [CPU_ALU] |1125| 
         00000158 08A9 
    3161                      .dwpsn  file "D:/ti/motorware/motorware_1_01_00_18/sw/drivers/pwm/src/32b/f28x/f2802x/pwm.c",line 112
    3162 00000159 DD31          ADDB      XAR5,#49              ; [CPU_ALU] |1122| 
    3163 0000015a 18C5          AND       *+XAR5[0],#0xfcff     ; [CPU_ALU] |1122| 
         0000015b FCFF 
    3164                      .dwpsn  file "D:/ti/motorware/motorware_1_01_00_18/sw/drivers/pwm/src/32b/f28x/f2802x/pwm.c",line 112
    3165 0000015c 98C4          OR        *+XAR4[0],AL          ; [CPU_ALU] |1125| 
    3166 0000015d 761A   EDIS
    3167 0000015e FF69          SPM       #0                    ; [CPU_ALU] 
    3168              $C$DW$251       .dwtag  DW_TAG_TI_branch
    3169                      .dwattr $C$DW$251, DW_AT_low_pc(0x00)
    3170                      .dwattr $C$DW$251, DW_AT_TI_return
    3171              
    3172 0000015f 0006          LRETR     ; [CPU_ALU] 
    3173                      ; return occurs ; [] 
    3174                      .dwattr $C$DW$244, DW_AT_TI_end_file("D:/ti/motorware/motorware_1_01_00_18/sw/drivers/pwm/src/32b/f28
    3175                      .dwattr $C$DW$244, DW_AT_TI_end_line(0x46a)
    3176                      .dwattr $C$DW$244, DW_AT_TI_end_column(0x01)
    3177                      .dwendentry
    3178                      .dwendtag $C$DW$244
    3179              
    3180 00000160               .sect   ".text"
    3181                      .clink
    3182                      .global _PWM_setDigitalCompareAEvent1
    3183              
    3184              $C$DW$252       .dwtag  DW_TAG_subprogram
    3185                      .dwattr $C$DW$252, DW_AT_name("PWM_setDigitalCompareAEvent1")
    3186                      .dwattr $C$DW$252, DW_AT_low_pc(_PWM_setDigitalCompareAEvent1)
    3187                      .dwattr $C$DW$252, DW_AT_high_pc(0x00)
    3188                      .dwattr $C$DW$252, DW_AT_TI_symbol_name("_PWM_setDigitalCompareAEvent1")
TMS320C2000 Assembler PC v18.1.2 Sun Jun 17 14:52:33 2018

Tools Copyright (c) 1996-2017 Texas Instruments Incorporated
C:\Users\haowp\AppData\Local\Temp\{2610D5B4-5CBC-4747-A1C3-229C8FD63D4F} PAGE   60

    3189                      .dwattr $C$DW$252, DW_AT_external
    3190                      .dwattr $C$DW$252, DW_AT_TI_begin_file("D:/ti/motorware/motorware_1_01_00_18/sw/drivers/pwm/src/32b/f
    3191                      .dwattr $C$DW$252, DW_AT_TI_begin_line(0x443)
    3192                      .dwattr $C$DW$252, DW_AT_TI_begin_column(0x06)
    3193                      .dwattr $C$DW$252, DW_AT_TI_max_frame_size(-2)
    3194                      .dwpsn  file "D:/ti/motorware/motorware_1_01_00_18/sw/drivers/pwm/src/32b/f28x/f2802x/pwm.c",line 109
    3195              
    3196                      .dwfde $C$DW$CIE, _PWM_setDigitalCompareAEvent1
    3197              $C$DW$253       .dwtag  DW_TAG_formal_parameter
    3198                      .dwattr $C$DW$253, DW_AT_name("pwmHandle")
    3199                      .dwattr $C$DW$253, DW_AT_TI_symbol_name("_pwmHandle")
    3200                      .dwattr $C$DW$253, DW_AT_type(*$C$DW$T$33)
    3201                      .dwattr $C$DW$253, DW_AT_location[DW_OP_reg12]
    3202              
    3203              $C$DW$254       .dwtag  DW_TAG_formal_parameter
    3204                      .dwattr $C$DW$254, DW_AT_name("selectFilter")
    3205                      .dwattr $C$DW$254, DW_AT_TI_symbol_name("_selectFilter")
    3206                      .dwattr $C$DW$254, DW_AT_type(*$C$DW$T$155)
    3207                      .dwattr $C$DW$254, DW_AT_location[DW_OP_reg0]
    3208              
    3209              $C$DW$255       .dwtag  DW_TAG_formal_parameter
    3210                      .dwattr $C$DW$255, DW_AT_name("disableSync")
    3211                      .dwattr $C$DW$255, DW_AT_TI_symbol_name("_disableSync")
    3212                      .dwattr $C$DW$255, DW_AT_type(*$C$DW$T$155)
    3213                      .dwattr $C$DW$255, DW_AT_location[DW_OP_reg1]
    3214              
    3215              $C$DW$256       .dwtag  DW_TAG_formal_parameter
    3216                      .dwattr $C$DW$256, DW_AT_name("enableSoc")
    3217                      .dwattr $C$DW$256, DW_AT_TI_symbol_name("_enableSoc")
    3218                      .dwattr $C$DW$256, DW_AT_type(*$C$DW$T$155)
    3219                      .dwattr $C$DW$256, DW_AT_location[DW_OP_reg14]
    3220              
    3221              $C$DW$257       .dwtag  DW_TAG_formal_parameter
    3222                      .dwattr $C$DW$257, DW_AT_name("generateSync")
    3223                      .dwattr $C$DW$257, DW_AT_TI_symbol_name("_generateSync")
    3224                      .dwattr $C$DW$257, DW_AT_type(*$C$DW$T$155)
    3225                      .dwattr $C$DW$257, DW_AT_location[DW_OP_breg20 -3]
    3226              
    3227              
    3228              ;***************************************************************
    3229              ;* FNAME: _PWM_setDigitalCompareAEvent1 FR SIZE:   0           *
    3230              ;*                                                             *
    3231              ;* FUNCTION ENVIRONMENT                                        *
    3232              ;*                                                             *
    3233              ;* FUNCTION PROPERTIES                                         *
    3234              ;*                            0 Parameter,  0 Auto,  0 SOE     *
    3235              ;***************************************************************
    3236              
    3237              _PWM_setDigitalCompareAEvent1:
    3238              ;* AR4   assigned to _pwmHandle
    3239              $C$DW$258       .dwtag  DW_TAG_variable
    3240                      .dwattr $C$DW$258, DW_AT_name("pwmHandle")
    3241                      .dwattr $C$DW$258, DW_AT_TI_symbol_name("_pwmHandle")
    3242                      .dwattr $C$DW$258, DW_AT_type(*$C$DW$T$127)
    3243                      .dwattr $C$DW$258, DW_AT_location[DW_OP_reg12]
TMS320C2000 Assembler PC v18.1.2 Sun Jun 17 14:52:33 2018

Tools Copyright (c) 1996-2017 Texas Instruments Incorporated
C:\Users\haowp\AppData\Local\Temp\{2610D5B4-5CBC-4747-A1C3-229C8FD63D4F} PAGE   61

    3244              
    3245              ;* AR7   assigned to _selectFilter
    3246              $C$DW$259       .dwtag  DW_TAG_variable
    3247                      .dwattr $C$DW$259, DW_AT_name("selectFilter")
    3248                      .dwattr $C$DW$259, DW_AT_TI_symbol_name("_selectFilter")
    3249                      .dwattr $C$DW$259, DW_AT_type(*$C$DW$T$156)
    3250                      .dwattr $C$DW$259, DW_AT_location[DW_OP_reg18]
    3251              
    3252              ;* AH    assigned to _disableSync
    3253              $C$DW$260       .dwtag  DW_TAG_variable
    3254                      .dwattr $C$DW$260, DW_AT_name("disableSync")
    3255                      .dwattr $C$DW$260, DW_AT_TI_symbol_name("_disableSync")
    3256                      .dwattr $C$DW$260, DW_AT_type(*$C$DW$T$156)
    3257                      .dwattr $C$DW$260, DW_AT_location[DW_OP_reg1]
    3258              
    3259              ;* AR5   assigned to _enableSoc
    3260              $C$DW$261       .dwtag  DW_TAG_variable
    3261                      .dwattr $C$DW$261, DW_AT_name("enableSoc")
    3262                      .dwattr $C$DW$261, DW_AT_TI_symbol_name("_enableSoc")
    3263                      .dwattr $C$DW$261, DW_AT_type(*$C$DW$T$156)
    3264                      .dwattr $C$DW$261, DW_AT_location[DW_OP_reg14]
    3265              
    3266              ;* PL    assigned to _generateSync
    3267              $C$DW$262       .dwtag  DW_TAG_variable
    3268                      .dwattr $C$DW$262, DW_AT_name("generateSync")
    3269                      .dwattr $C$DW$262, DW_AT_TI_symbol_name("_generateSync")
    3270                      .dwattr $C$DW$262, DW_AT_type(*$C$DW$T$156)
    3271                      .dwattr $C$DW$262, DW_AT_location[DW_OP_reg2]
    3272              
    3273                      .dwcfi  cfa_offset, -2
    3274                      .dwcfi  save_reg_to_mem, 26, 0
    3275 00000160 80A9          MOVZ      AR7,AL                ; [CPU_ALU] |1096| 
    3276 00000161 2743          MOV       PL,*-SP[3]            ; [CPU_ALU] |1096| 
    3277 00000162 7622   EALLOW
    3278                      .dwpsn  file "D:/ti/motorware/motorware_1_01_00_18/sw/drivers/pwm/src/32b/f28x/f2802x/pwm.c",line 110
    3279 00000163 C4A4          MOVL      XAR6,XAR4             ; [CPU_ALU] |1102| 
    3280                      .dwpsn  file "D:/ti/motorware/motorware_1_01_00_18/sw/drivers/pwm/src/32b/f28x/f2802x/pwm.c",line 110
    3281 00000164 5603          MOV       ACC,AH << #1          ; [CPU_ALU] |1105| 
         00000165 01A8 
    3282 00000166 DC31          ADDB      XAR4,#49              ; [CPU_ALU] |1105| 
    3283 00000167 93A9          MOV       AH,AL                 ; [CPU_ALU] |1105| 
    3284                      .dwpsn  file "D:/ti/motorware/motorware_1_01_00_18/sw/drivers/pwm/src/32b/f28x/f2802x/pwm.c",line 110
    3285 00000168 DE31          ADDB      XAR6,#49              ; [CPU_ALU] |1102| 
    3286 00000169 18C6          AND       *+XAR6[0],#0xfff0     ; [CPU_ALU] |1102| 
         0000016a FFF0 
    3287                      .dwpsn  file "D:/ti/motorware/motorware_1_01_00_18/sw/drivers/pwm/src/32b/f28x/f2802x/pwm.c",line 110
    3288 0000016b CBC4          OR        AH,*+XAR4[0]          ; [CPU_ALU] |1105| 
    3289 0000016c 88A8          MOVZ      AR6,AH                ; [CPU_ALU] |1105| 
    3290 0000016d 5603          MOV       ACC,AR5 << #2         ; [CPU_ALU] |1105| 
         0000016e 02A5 
    3291 0000016f 93A9          MOV       AH,AL                 ; [CPU_ALU] |1105| 
    3292 00000170 CBA6          OR        AH,AR6                ; [CPU_ALU] |1105| 
    3293 00000171 2FA8          MOV       PH,AH                 ; [CPU_ALU] |1105| 
    3294 00000172 5603          MOV       ACC,PL << #3          ; [CPU_ALU] |1105| 
         00000173 03AB 
TMS320C2000 Assembler PC v18.1.2 Sun Jun 17 14:52:33 2018

Tools Copyright (c) 1996-2017 Texas Instruments Incorporated
C:\Users\haowp\AppData\Local\Temp\{2610D5B4-5CBC-4747-A1C3-229C8FD63D4F} PAGE   62

    3295 00000174 CAAA          OR        AL,PH                 ; [CPU_ALU] |1105| 
    3296 00000175 CAA7          OR        AL,AR7                ; [CPU_ALU] |1105| 
    3297 00000176 96C4          MOV       *+XAR4[0],AL          ; [CPU_ALU] |1105| 
    3298 00000177 761A   EDIS
    3299 00000178 FF69          SPM       #0                    ; [CPU_ALU] 
    3300              $C$DW$263       .dwtag  DW_TAG_TI_branch
    3301                      .dwattr $C$DW$263, DW_AT_low_pc(0x00)
    3302                      .dwattr $C$DW$263, DW_AT_TI_return
    3303              
    3304 00000179 0006          LRETR     ; [CPU_ALU] 
    3305                      ; return occurs ; [] 
    3306                      .dwattr $C$DW$252, DW_AT_TI_end_file("D:/ti/motorware/motorware_1_01_00_18/sw/drivers/pwm/src/32b/f28
    3307                      .dwattr $C$DW$252, DW_AT_TI_end_line(0x456)
    3308                      .dwattr $C$DW$252, DW_AT_TI_end_column(0x01)
    3309                      .dwendentry
    3310                      .dwendtag $C$DW$252
    3311              
    3312 0000017a               .sect   ".text"
    3313                      .clink
    3314                      .global _PWM_setDeadBandRisingEdgeDelay
    3315              
    3316              $C$DW$264       .dwtag  DW_TAG_subprogram
    3317                      .dwattr $C$DW$264, DW_AT_name("PWM_setDeadBandRisingEdgeDelay")
    3318                      .dwattr $C$DW$264, DW_AT_low_pc(_PWM_setDeadBandRisingEdgeDelay)
    3319                      .dwattr $C$DW$264, DW_AT_high_pc(0x00)
    3320                      .dwattr $C$DW$264, DW_AT_TI_symbol_name("_PWM_setDeadBandRisingEdgeDelay")
    3321                      .dwattr $C$DW$264, DW_AT_external
    3322                      .dwattr $C$DW$264, DW_AT_TI_begin_file("D:/ti/motorware/motorware_1_01_00_18/sw/drivers/pwm/src/32b/f
    3323                      .dwattr $C$DW$264, DW_AT_TI_begin_line(0x3e5)
    3324                      .dwattr $C$DW$264, DW_AT_TI_begin_column(0x06)
    3325                      .dwattr $C$DW$264, DW_AT_TI_max_frame_size(-2)
    3326                      .dwpsn  file "D:/ti/motorware/motorware_1_01_00_18/sw/drivers/pwm/src/32b/f28x/f2802x/pwm.c",line 998
    3327              
    3328                      .dwfde $C$DW$CIE, _PWM_setDeadBandRisingEdgeDelay
    3329              $C$DW$265       .dwtag  DW_TAG_formal_parameter
    3330                      .dwattr $C$DW$265, DW_AT_name("pwmHandle")
    3331                      .dwattr $C$DW$265, DW_AT_TI_symbol_name("_pwmHandle")
    3332                      .dwattr $C$DW$265, DW_AT_type(*$C$DW$T$33)
    3333                      .dwattr $C$DW$265, DW_AT_location[DW_OP_reg12]
    3334              
    3335              $C$DW$266       .dwtag  DW_TAG_formal_parameter
    3336                      .dwattr $C$DW$266, DW_AT_name("delay")
    3337                      .dwattr $C$DW$266, DW_AT_TI_symbol_name("_delay")
    3338                      .dwattr $C$DW$266, DW_AT_type(*$C$DW$T$19)
    3339                      .dwattr $C$DW$266, DW_AT_location[DW_OP_reg0]
    3340              
    3341              
    3342              ;***************************************************************
    3343              ;* FNAME: _PWM_setDeadBandRisingEdgeDelay FR SIZE:   0           *
    3344              ;*                                                             *
    3345              ;* FUNCTION ENVIRONMENT                                        *
    3346              ;*                                                             *
    3347              ;* FUNCTION PROPERTIES                                         *
    3348              ;*                            0 Parameter,  0 Auto,  0 SOE     *
    3349              ;***************************************************************
TMS320C2000 Assembler PC v18.1.2 Sun Jun 17 14:52:33 2018

Tools Copyright (c) 1996-2017 Texas Instruments Incorporated
C:\Users\haowp\AppData\Local\Temp\{2610D5B4-5CBC-4747-A1C3-229C8FD63D4F} PAGE   63

    3350              
    3351              _PWM_setDeadBandRisingEdgeDelay:
    3352              ;* AR4   assigned to _pwmHandle
    3353              $C$DW$267       .dwtag  DW_TAG_variable
    3354                      .dwattr $C$DW$267, DW_AT_name("pwmHandle")
    3355                      .dwattr $C$DW$267, DW_AT_TI_symbol_name("_pwmHandle")
    3356                      .dwattr $C$DW$267, DW_AT_type(*$C$DW$T$127)
    3357                      .dwattr $C$DW$267, DW_AT_location[DW_OP_reg12]
    3358              
    3359              ;* AL    assigned to _delay
    3360              $C$DW$268       .dwtag  DW_TAG_variable
    3361                      .dwattr $C$DW$268, DW_AT_name("delay")
    3362                      .dwattr $C$DW$268, DW_AT_TI_symbol_name("_delay")
    3363                      .dwattr $C$DW$268, DW_AT_type(*$C$DW$T$146)
    3364                      .dwattr $C$DW$268, DW_AT_location[DW_OP_reg0]
    3365              
    3366                      .dwcfi  cfa_offset, -2
    3367                      .dwcfi  save_reg_to_mem, 26, 0
